 ImWindowGLFW_x64

 Timestamp is 5f809cc1 (Fri Oct  9 14:24:17 2020)

 Preferred load address is 0000000140000000

 Start         Length     Name                   Class
 0001:00000000 00000c10H .text$di                CODE
 0001:00000c10 00097e20H .text$mn                CODE
 0001:00098a30 00000040H .text$mn$00             CODE
 0001:00098a70 00002df0H .text$x                 CODE
 0001:0009b860 00000e6eH .text$yd                CODE
 0002:00000000 00000be8H .idata$5                DATA
 0002:00000be8 00000028H .00cfg                  DATA
 0002:00000c10 00000008H .CRT$XCA                DATA
 0002:00000c18 00000008H .CRT$XCAA               DATA
 0002:00000c20 00000028H .CRT$XCL                DATA
 0002:00000c48 00000110H .CRT$XCU                DATA
 0002:00000d58 00000008H .CRT$XCZ                DATA
 0002:00000d60 00000008H .CRT$XIA                DATA
 0002:00000d68 00000008H .CRT$XIAA               DATA
 0002:00000d70 00000008H .CRT$XIAC               DATA
 0002:00000d78 00000008H .CRT$XIC                DATA
 0002:00000d80 00000008H .CRT$XIZ                DATA
 0002:00000d88 00000008H .CRT$XLA                DATA
 0002:00000d90 00000008H .CRT$XLZ                DATA
 0002:00000d98 00000008H .CRT$XPA                DATA
 0002:00000da0 00000008H .CRT$XPZ                DATA
 0002:00000da8 00000008H .CRT$XTA                DATA
 0002:00000db0 00000010H .CRT$XTZ                DATA
 0002:00000db8 00000000H .gehcont$y              DATA
 0002:00000db8 00000000H .gfids$y                DATA
 0002:00000dc0 000134a0H .rdata                  DATA
 0002:00014260 00000030H .rdata$T                DATA
 0002:00014290 0000676cH .rdata$r                DATA
 0002:0001a9fc 0000037cH .rdata$zzzdbg           DATA
 0002:0001ad78 00000008H .rtc$IAA                DATA
 0002:0001ad80 00000008H .rtc$IZZ                DATA
 0002:0001ad88 00000008H .rtc$TAA                DATA
 0002:0001ad90 00000008H .rtc$TZZ                DATA
 0002:0001ad98 00000004H .tls                    DATA
 0002:0001ad9c 00000004H .tls$                   DATA
 0002:0001ada0 00000008H .tls$ZZZ                DATA
 0002:0001ada8 0000a8c8H .xdata                  DATA
 0002:00025670 00000d38H .xdata$x                DATA
 0002:000263a8 00000000H ATL$__a                 DATA
 0002:000263a8 00000000H ATL$__z                 DATA
 0002:000263a8 00000000H .edata                  DATA
 0002:000263a8 000001e0H .idata$2                DATA
 0002:00026588 00000018H .idata$3                DATA
 0002:000265a0 00000be8H .idata$4                DATA
 0002:00027188 000028e6H .idata$6                DATA
 0003:00000000 00000bd0H .data                   DATA
 0003:00000bd0 000037f0H .data$r                 DATA
 0003:000043c0 00003118H .bss                    DATA
 0004:00000000 00006408H .pdata                  DATA
 0005:00000000 00000200H .rsrc$01                DATA
 0005:00000200 0002a280H .rsrc$02                DATA

  Address         Publics by Value              Rva+Base               Lib:Object

 0000:00000000       ___safe_se_handler_table   0000000000000000     <absolute>
 0000:00000000       ___safe_se_handler_count   0000000000000000     <absolute>
 0000:00000000       __x64_code_ranges_to_entry_points_count 0000000000000000     <absolute>
 0000:00000000       __enclave_config           0000000000000000     <absolute>
 0000:00000000       __volatile_metadata        0000000000000000     <absolute>
 0000:00000000       __arm64x_native_entrypoint 0000000000000000     <absolute>
 0000:00000000       __guard_eh_cont_count      0000000000000000     <absolute>
 0000:00000000       __guard_eh_cont_table      0000000000000000     <absolute>
 0000:00000000       __guard_iat_count          0000000000000000     <absolute>
 0000:00000000       __hybrid_code_map          0000000000000000     <absolute>
 0000:00000000       __x64_code_ranges_to_entry_points 0000000000000000     <absolute>
 0000:00000000       __hybrid_code_map_count    0000000000000000     <absolute>
 0000:00000000       __guard_fids_count         0000000000000000     <absolute>
 0000:00000000       __hybrid_auxiliary_iat     0000000000000000     <absolute>
 0000:00000000       __guard_iat_table          0000000000000000     <absolute>
 0000:00000000       __guard_longjmp_table      0000000000000000     <absolute>
 0000:00000000       __arm64x_redirection_metadata 0000000000000000     <absolute>
 0000:00000000       __guard_longjmp_count      0000000000000000     <absolute>
 0000:00000000       __arm64x_redirection_metadata_count 0000000000000000     <absolute>
 0000:00000000       __arm64x_extra_rfe_table   0000000000000000     <absolute>
 0000:00000000       __AbsoluteZero             0000000000000000     <absolute>
 0000:00000000       __arm64x_extra_rfe_table_size 0000000000000000     <absolute>
 0000:00000000       __guard_fids_table         0000000000000000     <absolute>
 0000:00000000       __dynamic_value_reloc_table 0000000000000000     <absolute>
 0000:00000100       __guard_flags              0000000000000100     <absolute>
 0000:00000000       __ImageBase                0000000140000000     <linker-defined>
 0001:00000c10       ??0ImVec2@@QEAA@MM@Z       0000000140001c10 f i imgui_impl_glfw.obj
 0001:00000c40       ?ImGui_ImplGlfw_MouseButtonCallback@@YAXPEAUGLFWwindow@@HHH@Z 0000000140001c40 f   imgui_impl_glfw.obj
 0001:00000c80       ?ImGui_ImplGlfw_ScrollCallback@@YAXPEAUGLFWwindow@@NN@Z 0000000140001c80 f   imgui_impl_glfw.obj
 0001:00000d10       ?ImGui_ImplGlfw_KeyCallback@@YAXPEAUGLFWwindow@@HHHH@Z 0000000140001d10 f   imgui_impl_glfw.obj
 0001:00000e10       ?ImGui_ImplGlfw_CharCallback@@YAXPEAUGLFWwindow@@I@Z 0000000140001e10 f   imgui_impl_glfw.obj
 0001:00001130       ?ImGui_ImplGlfw_Shutdown@@YAXXZ 0000000140002130 f   imgui_impl_glfw.obj
 0001:000014a0       ?ImGui_ImplGlfw_NewFrame@@YAXXZ 00000001400024a0 f   imgui_impl_glfw.obj
 0001:000017f0       ?ImGui_ImplOpenGL2_Init@@YA_NXZ 00000001400027f0 f   imgui_impl_opengl2.obj
 0001:00001970       ?ImGui_ImplOpenGL2_RenderDrawData@@YAXPEAUImDrawData@@@Z 0000000140002970 f   imgui_impl_opengl2.obj
 0001:00001d40       ?ImGui_ImplOpenGL2_CreateFontsTexture@@YA_NXZ 0000000140002d40 f   imgui_impl_opengl2.obj
 0001:00001e70       ?ImGui_ImplOpenGL2_DestroyFontsTexture@@YAXXZ 0000000140002e70 f   imgui_impl_opengl2.obj
 0001:00001ee0       ??0ImVec4@@QEAA@MMMM@Z     0000000140002ee0 f i imgui.obj
 0001:00001f00       ?SetAutoSignalPropagation@BufferedTransformation@CryptoPP@@UEAAXH@Z 0000000140002f00 f i main.obj
 0001:00001f00       ?_Run_deferred_function@?$_Associated_state@H@std@@EEAAXAEAV?$unique_lock@Vmutex@std@@@2@@Z 0000000140002f00 f i main.obj
 0001:00001f00       ?AssertValidKeyLength@SimpleKeyingInterface@CryptoPP@@IEBAX_K@Z 0000000140002f00 f i cryptopp-static:rijndael.cpp.obj
 0001:00001f00       ?InitializeDerived@FilterWithBufferedInput@CryptoPP@@MEAAXAEBVNameValuePairs@2@@Z 0000000140002f00 f i main.obj
 0001:00001f00       ?FlushDerived@FilterWithBufferedInput@CryptoPP@@MEAAXXZ 0000000140002f00 f i main.obj
 0001:00001f00       ??3@YAXPEAXUImNewDummy@@0@Z 0000000140002f00 f i imgui.obj
 0001:00001f00       _initialize_denormal_control 0000000140002f00 f i MSVCRT:denormal_control.obj
 0001:00001f00       ??1?$_Compressed_pair@V?$allocator@D@std@@V?$_String_val@U?$_Simple_types@D@std@@@2@$00@std@@QEAA@XZ 0000000140002f00 f i main.obj
 0001:00001f00       _initialize_invalid_parameter_handler 0000000140002f00 f i MSVCRT:invalid_parameter_handler.obj
 0001:00001f00       ?NextPutSingle@FilterWithBufferedInput@CryptoPP@@MEAAXPEBE@Z 0000000140002f00 f i main.obj
 0001:00001f00       _guard_check_icall_nop     0000000140002f00 f i MSVCRT:guard_support.obj
 0001:00001f00       ?StoreInitialize@BERGeneralDecoder@CryptoPP@@EEAAXAEBVNameValuePairs@2@@Z 0000000140002f00 f i cryptopp-static:integer.cpp.obj
 0001:00001f00       ?IsolatedInitialize@?$CustomSignalPropagation@VSink@CryptoPP@@@CryptoPP@@EEAAXAEBVNameValuePairs@2@@Z 0000000140002f00 f i cryptopp-static:filters.cpp.obj
 0001:00001f00       ?IsolatedInitialize@BitBucket@CryptoPP@@UEAAXAEBVNameValuePairs@2@@Z 0000000140002f00 f i cryptopp-static:cryptlib.cpp.obj
 0001:00001f00       ?FirstPut@SimpleProxyFilter@CryptoPP@@UEAAXPEBE@Z 0000000140002f00 f i main.obj
 0001:00001f10       ?begin@ImGuiTextBuffer@@QEBAPEBDXZ 0000000140002f10 f i imgui.obj
 0001:00001f60       ??1ImDrawListSplitter@@QEAA@XZ 0000000140002f60 f i imgui.obj
 0001:00001fa0       ??0ImDrawList@@QEAA@PEBUImDrawListSharedData@@@Z 0000000140002fa0 f i imgui.obj
 0001:00002380       ??1ImDrawList@@QEAA@XZ     0000000140003380 f i imgui.obj
 0001:000024a0       ?PathLineTo@ImDrawList@@QEAAXAEBUImVec2@@@Z 00000001400034a0 f i imgui.obj
 0001:00002510       ??1ImDrawData@@QEAA@XZ     0000000140003510 f i imgui.obj
 0001:00002530       __local_stdio_printf_options 0000000140003530 f i imgui.obj
 0001:00002540       __local_stdio_scanf_options 0000000140003540 f i imgui.obj
 0001:00002550       sscanf                     0000000140003550 f i imgui.obj
 0001:000025b0       ?ClipWithFull@ImRect@@QEAAXAEBU1@@Z 00000001400035b0 f i imgui.obj
 0001:00002630       ??0ImGuiContext@@QEAA@PEAUImFontAtlas@@@Z 0000000140003630 f i imgui.obj
 0001:00002ef0       ??1ImGuiIO@@QEAA@XZ        0000000140003ef0 f i imgui.obj
 0001:00002f20       ??1?$ImChunkStream@UImGuiWindowSettings@@@@QEAA@XZ 0000000140003f20 f i imgui.obj
 0001:00002f20       ??1ImGuiStorage@@QEAA@XZ   0000000140003f20 f i imgui.obj
 0001:00002f20       ??1ImGuiTextBuffer@@QEAA@XZ 0000000140003f20 f i imgui.obj
 0001:00002f50       ??1ImDrawDataBuilder@@QEAA@XZ 0000000140003f50 f i imgui.obj
 0001:00002f70       ??1ImGuiInputTextState@@QEAA@XZ 0000000140003f70 f i imgui.obj
 0001:00002ff0       ??0ImGuiWindowTempData@@QEAA@XZ 0000000140003ff0 f i imgui.obj
 0001:00003110       ?CalcFontSize@ImGuiWindow@@QEBAMXZ 0000000140004110 f i imgui.obj
 0001:00003140       ?MenuBarRect@ImGuiWindow@@QEBA?AUImRect@@XZ 0000000140004140 f i imgui.obj
 0001:00003220       ?UnalignedDeallocate@CryptoPP@@YAXPEAX@Z 0000000140004220 f   cryptopp-static:misc.cpp.obj
 0001:00003230       ??0ImGuiStyle@@QEAA@XZ     0000000140004230 f   imgui.obj
 0001:00003390       ??0ImGuiIO@@QEAA@XZ        0000000140004390 f   imgui.obj
 0001:00003730       ?ImTriangleClosestPoint@@YA?AUImVec2@@AEBU1@000@Z 0000000140004730 f   imgui.obj
 0001:000039e0       ?ImFormatString@@YAHPEAD_KPEBDZZ 00000001400049e0 f   imgui.obj
 0001:00003a60       ?ImHashStr@@YAIPEBD_KI@Z   0000000140004a60 f   imgui.obj
 0001:00003b10       ?ImFileOpen@@YAPEAU_iobuf@@PEBD0@Z 0000000140004b10 f   imgui.obj
 0001:00003c80       ?ImFileLoadToMemory@@YAPEAXPEBD0PEA_KH@Z 0000000140004c80 f   imgui.obj
 0001:00003de0       ?ImTextCharFromUtf8@@YAHPEAIPEBD1@Z 0000000140004de0 f   imgui.obj
 0001:00003fc0       ?ImTextStrFromUtf8@@YAHPEAGHPEBD1PEAPEBD@Z 0000000140004fc0 f   imgui.obj
 0001:00004210       ?ImTextCountCharsFromUtf8@@YAHPEBD0@Z 0000000140005210 f   imgui.obj
 0001:00004570       ?ImTextStrToUtf8@@YAHPEADHPEBG1@Z 0000000140005570 f   imgui.obj
 0001:000046b0       ?ColorConvertFloat4ToU32@ImGui@@YAIAEBUImVec4@@@Z 00000001400056b0 f   imgui.obj
 0001:00004760       ?ColorConvertRGBtoHSV@ImGui@@YAXMMMAEAM00@Z 0000000140005760 f   imgui.obj
 0001:00004810       ?ColorConvertHSVtoRGB@ImGui@@YAXMMMAEAM00@Z 0000000140005810 f   imgui.obj
 0001:00004980       ?append@ImGuiTextBuffer@@QEAAXPEBD0@Z 0000000140005980 f   imgui.obj
 0001:00004a50       ?appendf@ImGuiTextBuffer@@QEAAXPEBDZZ 0000000140005a50 f   imgui.obj
 0001:00004a80       ?appendfv@ImGuiTextBuffer@@QEAAXPEBDPEAD@Z 0000000140005a80 f   imgui.obj
 0001:00004bd0       ?RenderText@ImGui@@YAXUImVec2@@PEBD1_N@Z 0000000140005bd0 f   imgui.obj
 0001:00004e40       ?RenderTextClippedEx@ImGui@@YAXPEAUImDrawList@@AEBUImVec2@@1PEBD2PEBU3@1PEBUImRect@@@Z 0000000140005e40 f   imgui.obj
 0001:000052f0       ?RenderTextClipped@ImGui@@YAXAEBUImVec2@@0PEBD1PEBU2@0PEBUImRect@@@Z 00000001400062f0 f   imgui.obj
 0001:000053c0       ?RenderFrame@ImGui@@YAXUImVec2@@0I_NM@Z 00000001400063c0 f   imgui.obj
 0001:00005570       ?RenderFrameBorder@ImGui@@YAXUImVec2@@0M@Z 0000000140006570 f   imgui.obj
 0001:000056d0       ?RenderArrow@ImGui@@YAXPEAUImDrawList@@UImVec2@@IHM@Z 00000001400066d0 f   imgui.obj
 0001:00005950       ?RenderCheckMark@ImGui@@YAXUImVec2@@IM@Z 0000000140006950 f   imgui.obj
 0001:00005ba0       ?RenderNavHighlight@ImGui@@YAXAEBUImRect@@IH@Z 0000000140006ba0 f   imgui.obj
 0001:00005e80       ??0ImGuiWindow@@QEAA@PEAUImGuiContext@@PEBD@Z 0000000140006e80 f   imgui.obj
 0001:00006370       ??1ImGuiWindowTempData@@QEAA@XZ 0000000140007370 f i imgui.obj
 0001:00006440       ??1ImGuiWindow@@QEAA@XZ    0000000140007440 f   imgui.obj
 0001:000065b0       ?GetID@ImGuiWindow@@QEAAIPEBD0@Z 00000001400075b0 f   imgui.obj
 0001:00006640       ?GetID@ImGuiWindow@@QEAAIH@Z 0000000140007640 f   imgui.obj
 0001:00006720       ?GetIDFromRectangle@ImGuiWindow@@QEAAIAEBUImRect@@@Z 0000000140007720 f   imgui.obj
 0001:00006990       ?GcCompactTransientWindowBuffers@ImGui@@YAXPEAUImGuiWindow@@@Z 0000000140007990 f   imgui.obj
 0001:00006b10       ?SetNavID@ImGui@@YAXIHI@Z  0000000140007b10 f   imgui.obj
 0001:00006bb0       ?SetActiveID@ImGui@@YAXIPEAUImGuiWindow@@@Z 0000000140007bb0 f   imgui.obj
 0001:00006c80       ?SetFocusID@ImGui@@YAXIPEAUImGuiWindow@@@Z 0000000140007c80 f   imgui.obj
 0001:00006da0       ?ClearActiveID@ImGui@@YAXXZ 0000000140007da0 f   imgui.obj
 0001:00006e00       ?MarkItemEdited@ImGui@@YAXI@Z 0000000140007e00 f   imgui.obj
 0001:00006e60       ?ItemSize@ImGui@@YAXAEBUImVec2@@M@Z 0000000140007e60 f   imgui.obj
 0001:00006fb0       ?ItemAdd@ImGui@@YA_NAEBUImRect@@IPEBU2@@Z 0000000140007fb0 f   imgui.obj
 0001:000070f0       ?IsItemHovered@ImGui@@YA_NH@Z 00000001400080f0 f   imgui.obj
 0001:00007230       ?ItemHoverable@ImGui@@YA_NAEBUImRect@@I@Z 0000000140008230 f   imgui.obj
 0001:00007390       ?FocusableItemRegister@ImGui@@YA_NPEAUImGuiWindow@@I@Z 0000000140008390 f   imgui.obj
 0001:00007460       ?CreateContext@ImGui@@YAPEAUImGuiContext@@PEAUImFontAtlas@@@Z 0000000140008460 f   imgui.obj
 0001:000074e0       ?DestroyContext@ImGui@@YAXPEAUImGuiContext@@@Z 00000001400084e0 f   imgui.obj
 0001:00007540       ?GetDrawData@ImGui@@YAPEAUImDrawData@@XZ 0000000140008540 f   imgui.obj
 0001:00007560       ?StartMouseMovingWindow@ImGui@@YAXPEAUImGuiWindow@@@Z 0000000140008560 f   imgui.obj
 0001:000075f0       ?UpdateMouseMovingWindowNewFrame@ImGui@@YAXXZ 00000001400085f0 f   imgui.obj
 0001:00007810       ?UpdateMouseMovingWindowEndFrame@ImGui@@YAXXZ 0000000140008810 f   imgui.obj
 0001:00008310       ?UpdateHoveredWindowAndCaptureFlags@ImGui@@YAXXZ 0000000140009310 f   imgui.obj
 0001:00008aa0       ?NewFrame@ImGui@@YAXXZ     0000000140009aa0 f   imgui.obj
 0001:00009810       ?Initialize@ImGui@@YAXPEAUImGuiContext@@@Z 000000014000a810 f   imgui.obj
 0001:000099e0       ?Shutdown@ImGui@@YAXPEAUImGuiContext@@@Z 000000014000a9e0 f   imgui.obj
 0001:0000a420       ?PushClipRect@ImGui@@YAXAEBUImVec2@@0_N@Z 000000014000b420 f   imgui.obj
 0001:0000a4d0       ?PopClipRect@ImGui@@YAXXZ  000000014000b4d0 f   imgui.obj
 0001:0000a5d0       ?EndFrame@ImGui@@YAXXZ     000000014000b5d0 f   imgui.obj
 0001:0000a910       ?Render@ImGui@@YAXXZ       000000014000b910 f   imgui.obj
 0001:0000ad00       ?IsMouseHoveringRect@ImGui@@YA_NAEBUImVec2@@0_N@Z 000000014000bd00 f   imgui.obj
 0001:0000add0       ?IsKeyDown@ImGui@@YA_NH@Z  000000014000bdd0 f   imgui.obj
 0001:0000ae30       ?CalcTypematicRepeatAmount@ImGui@@YAHMMMM@Z 000000014000be30 f   imgui.obj
 0001:0000ae90       ?IsKeyPressed@ImGui@@YA_NH_N@Z 000000014000be90 f   imgui.obj
 0001:0000b010       ?IsMouseDown@ImGui@@YA_NH@Z 000000014000c010 f   imgui.obj
 0001:0000b060       ?IsMouseDragging@ImGui@@YA_NHM@Z 000000014000c060 f   imgui.obj
 0001:0000b0a0       ?IsItemVisible@ImGui@@YA_NXZ 000000014000c0a0 f   imgui.obj
 0001:0000b100       ?BeginChildEx@ImGui@@YA_NPEBDIAEBUImVec2@@_NH@Z 000000014000c100 f   imgui.obj
 0001:0000b2e0       ?EndChild@ImGui@@YAXXZ     000000014000c2e0 f   imgui.obj
 0001:0000b590       ?BeginChildFrame@ImGui@@YA_NIAEBUImVec2@@H@Z 000000014000c590 f   imgui.obj
 0001:0000b6b0       ?FindWindowByName@ImGui@@YAPEAUImGuiWindow@@PEBD@Z 000000014000c6b0 f   imgui.obj
 0001:0000de50       ?Begin@ImGui@@YA_NPEBDPEA_NH@Z 000000014000ee50 f   imgui.obj
 0001:000101d0       ?End@ImGui@@YAXXZ          00000001400111d0 f   imgui.obj
 0001:000103b0       ?FocusWindow@ImGui@@YAXPEAUImGuiWindow@@@Z 00000001400113b0 f   imgui.obj
 0001:00010740       ?FocusTopMostWindowUnderOne@ImGui@@YAXPEAUImGuiWindow@@0@Z 0000000140011740 f   imgui.obj
 0001:00010800       ?PushItemWidth@ImGui@@YAXM@Z 0000000140011800 f   imgui.obj
 0001:000108a0       ?PopItemWidth@ImGui@@YAXXZ 00000001400118a0 f   imgui.obj
 0001:00010950       ?CalcItemWidth@ImGui@@YAMXZ 0000000140011950 f   imgui.obj
 0001:000109c0       ?CalcItemSize@ImGui@@YA?AUImVec2@@U2@MM@Z 00000001400119c0 f   imgui.obj
 0001:00010ab0       ?SetCurrentFont@ImGui@@YAXPEAUImFont@@@Z 0000000140011ab0 f   imgui.obj
 0001:00010bc0       ?PopFont@ImGui@@YAXXZ      0000000140011bc0 f   imgui.obj
 0001:00010d00       ?PushItemFlag@ImGui@@YAXH_N@Z 0000000140011d00 f   imgui.obj
 0001:00010d90       ?PopItemFlag@ImGui@@YAXXZ  0000000140011d90 f   imgui.obj
 0001:00010e40       ?PushStyleColor@ImGui@@YAXHAEBUImVec4@@@Z 0000000140011e40 f   imgui.obj
 0001:00010ea0       ?PopStyleColor@ImGui@@YAXH@Z 0000000140011ea0 f   imgui.obj
 0001:00010f40       ?PushStyleVar@ImGui@@YAXHM@Z 0000000140011f40 f   imgui.obj
 0001:00011010       ?PopStyleVar@ImGui@@YAXH@Z 0000000140012010 f   imgui.obj
 0001:00011140       ?SetWindowPos@ImGui@@YAXPEAUImGuiWindow@@AEBUImVec2@@H@Z 0000000140012140 f   imgui.obj
 0001:00011250       ?SetWindowSize@ImGui@@YAXPEAUImGuiWindow@@AEBUImVec2@@H@Z 0000000140012250 f   imgui.obj
 0001:00011320       ?SetNextWindowPos@ImGui@@YAXAEBUImVec2@@H0@Z 0000000140012320 f   imgui.obj
 0001:000113b0       ?SetNextWindowSize@ImGui@@YAXAEBUImVec2@@H@Z 00000001400123b0 f   imgui.obj
 0001:00011430       ?SetItemDefaultFocus@ImGui@@YAXXZ 0000000140012430 f   imgui.obj
 0001:00011520       ?PushID@ImGui@@YAXPEBD@Z   0000000140012520 f   imgui.obj
 0001:000115e0       ?PushID@ImGui@@YAXPEBX@Z   00000001400125e0 f   imgui.obj
 0001:00011750       ?PushID@ImGui@@YAXH@Z      0000000140012750 f   imgui.obj
 0001:00011870       ?PopID@ImGui@@YAXXZ        0000000140012870 f   imgui.obj
 0001:000118d0       ?BeginGroup@ImGui@@YAXXZ   00000001400128d0 f   imgui.obj
 0001:00011a10       ?EndGroup@ImGui@@YAXXZ     0000000140012a10 f   imgui.obj
 0001:00011d90       ?SameLine@ImGui@@YAXMM@Z   0000000140012d90 f   imgui.obj
 0001:00012450       ?ScrollToBringRectIntoView@ImGui@@YA?AUImVec2@@PEAUImGuiWindow@@AEBUImRect@@@Z 0000000140013450 f   imgui.obj
 0001:00012630       ?SetScrollFromPosX@ImGui@@YAXPEAUImGuiWindow@@MM@Z 0000000140013630 f   imgui.obj
 0001:000126b0       ?SetScrollFromPosY@ImGui@@YAXPEAUImGuiWindow@@MM@Z 00000001400136b0 f   imgui.obj
 0001:000127d0       ?SetScrollHereY@ImGui@@YAXM@Z 00000001400137d0 f   imgui.obj
 0001:00012830       ?BeginTooltip@ImGui@@YAXXZ 0000000140013830 f   imgui.obj
 0001:00012920       ?BeginTooltipEx@ImGui@@YAXH_N@Z 0000000140013920 f   imgui.obj
 0001:000129e0       ?SetTooltip@ImGui@@YAXPEBDZZ 00000001400139e0 f   imgui.obj
 0001:00012a70       ?GetTopMostPopupModal@ImGui@@YAPEAUImGuiWindow@@XZ 0000000140013a70 f   imgui.obj
 0001:00012ad0       ?OpenPopupEx@ImGui@@YAXI@Z 0000000140013ad0 f   imgui.obj
 0001:00012d80       ?ClosePopupsOverWindow@ImGui@@YAXPEAUImGuiWindow@@_N@Z 0000000140013d80 f   imgui.obj
 0001:00012f40       ?ClosePopupToLevel@ImGui@@YAXH_N@Z 0000000140013f40 f   imgui.obj
 0001:00013080       ?CloseCurrentPopup@ImGui@@YAXXZ 0000000140014080 f   imgui.obj
 0001:000131d0       ?BeginPopupEx@ImGui@@YA_NIH@Z 00000001400141d0 f   imgui.obj
 0001:00013290       ?EndPopup@ImGui@@YAXXZ     0000000140014290 f   imgui.obj
 0001:00013430       ?OpenPopupOnItemClick@ImGui@@YA_NPEBDH@Z 0000000140014430 f   imgui.obj
 0001:00013560       ?FindBestWindowPosForPopupEx@ImGui@@YA?AUImVec2@@AEBU2@0PEAHAEBUImRect@@2W4ImGuiPopupPositionPolicy@@@Z 0000000140014560 f   imgui.obj
 0001:000138a0       ?GetWindowAllowedExtentRect@ImGui@@YA?AUImRect@@PEAUImGuiWindow@@@Z 00000001400148a0 f   imgui.obj
 0001:00013950       ?FindBestWindowPosForPopup@ImGui@@YA?AUImVec2@@PEAUImGuiWindow@@@Z 0000000140014950 f   imgui.obj
 0001:00014550       ?NavMoveRequestForward@ImGui@@YAXHHAEBUImRect@@H@Z 0000000140015550 f   imgui.obj
 0001:00014720       ?NavInitWindow@ImGui@@YAXPEAUImGuiWindow@@_N@Z 0000000140015720 f   imgui.obj
 0001:00014970       ?GetNavInputAmount@ImGui@@YAMHW4ImGuiInputReadMode@@@Z 0000000140015970 f   imgui.obj
 0001:00014a90       ?GetNavInputAmount2d@ImGui@@YA?AUImVec2@@HW4ImGuiInputReadMode@@MM@Z 0000000140015a90 f   imgui.obj
 0001:000174e0       ?ClearDragDrop@ImGui@@YAXXZ 00000001400184e0 f   imgui.obj
 0001:000175a0       ?BeginDragDropSource@ImGui@@YA_NH@Z 00000001400185a0 f   imgui.obj
 0001:000176d0       ?EndDragDropSource@ImGui@@YAXXZ 00000001400186d0 f   imgui.obj
 0001:00017780       ?BeginDragDropTarget@ImGui@@YA_NXZ 0000000140018780 f   imgui.obj
 0001:00017870       ?AcceptDragDropPayload@ImGui@@YAPEBUImGuiPayload@@PEBDH@Z 0000000140018870 f   imgui.obj
 0001:00017c10       ?EndDragDropTarget@ImGui@@YAXXZ 0000000140018c10 f   imgui.obj
 0001:00017c70       ?LogText@ImGui@@YAXPEBDZZ  0000000140018c70 f   imgui.obj
 0001:00017d70       ?LogRenderedText@ImGui@@YAXPEBUImVec2@@PEBD1@Z 0000000140018d70 f   imgui.obj
 0001:00017f10       ?LogFinish@ImGui@@YAXXZ    0000000140018f10 f   imgui.obj
 0001:00018020       ?CreateNewWindowSettings@ImGui@@YAPEAUImGuiWindowSettings@@PEBD@Z 0000000140019020 f   imgui.obj
 0001:00018120       ?FindWindowSettings@ImGui@@YAPEAUImGuiWindowSettings@@I@Z 0000000140019120 f   imgui.obj
 0001:00018210       ?LoadIniSettingsFromMemory@ImGui@@YAXPEBD_K@Z 0000000140019210 f   imgui.obj
 0001:00018560       ?SaveIniSettingsToDisk@ImGui@@YAXPEBD@Z 0000000140019560 f   imgui.obj
 0001:00018ea0       ??1?$ImVector@UImGuiPopupData@@@@QEAA@XZ 0000000140019ea0 f i imgui.obj
 0001:00018ea0       ??1?$ImVector@D@@QEAA@XZ   0000000140019ea0 f i imgui.obj
 0001:00018ea0       ??1?$ImVector@UImFontBuildSrcData@@@@QEAA@XZ 0000000140019ea0 f i imgui_draw.obj
 0001:00018ea0       ??1?$ImVector@PEAUImGuiWindow@@@@QEAA@XZ 0000000140019ea0 f i imgui.obj
 0001:00018ea0       ??1?$ImVector@PEAX@@QEAA@XZ 0000000140019ea0 f i imgui.obj
 0001:00018ea0       ??1?$ImVector@UImDrawCmd@@@@QEAA@XZ 0000000140019ea0 f i imgui.obj
 0001:00018ea0       ??1?$ImVector@UImFontBuildDstData@@@@QEAA@XZ 0000000140019ea0 f i imgui_draw.obj
 0001:00018ea0       ??1?$ImVector@E@@QEAA@XZ   0000000140019ea0 f i imgui.obj
 0001:00018ea0       ??1?$ImVector@PEAUImFont@@@@QEAA@XZ 0000000140019ea0 f i imgui.obj
 0001:00018ea0       ??1?$ImVector@UImVec4@@@@QEAA@XZ 0000000140019ea0 f i imgui.obj
 0001:00018ea0       ??1?$ImVector@UImGuiPtrOrIndex@@@@QEAA@XZ 0000000140019ea0 f i imgui.obj
 0001:00018ea0       ??1?$ImVector@UImGuiShrinkWidthItem@@@@QEAA@XZ 0000000140019ea0 f i imgui.obj
 0001:00018ea0       ??1?$ImVector@UImGuiStyleMod@@@@QEAA@XZ 0000000140019ea0 f i imgui.obj
 0001:00018ea0       ??1?$ImVector@UImVec2@@@@QEAA@XZ 0000000140019ea0 f i imgui.obj
 0001:00018ea0       ??1?$ImVector@UImGuiSettingsHandler@@@@QEAA@XZ 0000000140019ea0 f i imgui.obj
 0001:00018ea0       ??1?$ImVector@I@@QEAA@XZ   0000000140019ea0 f i imgui.obj
 0001:00018ea0       ??1?$ImVector@UImGuiColorMod@@@@QEAA@XZ 0000000140019ea0 f i imgui.obj
 0001:00018ea0       ??1?$ImVector@Ustbrp_rect@@@@QEAA@XZ 0000000140019ea0 f i imgui_draw.obj
 0001:00018ea0       ??1?$ImVector@PEAUImDrawList@@@@QEAA@XZ 0000000140019ea0 f i imgui.obj
 0001:00018ea0       ??1?$ImVector@G@@QEAA@XZ   0000000140019ea0 f i imgui.obj
 0001:00018ea0       ??1?$ImVector@UImDrawVert@@@@QEAA@XZ 0000000140019ea0 f i imgui.obj
 0001:00018ea0       ??1?$ImVector@Ustbtt_packedchar@@@@QEAA@XZ 0000000140019ea0 f i imgui_draw.obj
 0001:00018ea0       ??1?$ImVector@UImGuiColumns@@@@QEAA@XZ 0000000140019ea0 f i imgui.obj
 0001:00018ed0       ?resize@?$ImVector@UImGuiGroupData@@@@QEAAXH@Z 0000000140019ed0 f i imgui.obj
 0001:00018fb0       ?offset_from_ptr@?$ImChunkStream@UImGuiWindowSettings@@@@QEAAHPEBUImGuiWindowSettings@@@Z 0000000140019fb0 f i imgui.obj
 0001:00019010       ?Clear@?$ImPool@UImGuiTabBar@@@@QEAAXXZ 000000014001a010 f i imgui.obj
 0001:00019160       ??1?$ImPool@UImGuiTabBar@@@@QEAA@XZ 000000014001a160 f i imgui.obj
 0001:000191c0       ?resize@?$ImVector@E@@QEAAXH@Z 000000014001a1c0 f i imgui.obj
 0001:000192a0       ?push_back@?$ImVector@UImGuiPopupData@@@@QEAAXAEBUImGuiPopupData@@@Z 000000014001a2a0 f i imgui.obj
 0001:00019320       ?back@?$ImVector@UImGuiPopupData@@@@QEAAAEAUImGuiPopupData@@XZ 000000014001a320 f i imgui.obj
 0001:00019370       ??A?$ImVector@UImGuiPopupData@@@@QEAAAEAUImGuiPopupData@@H@Z 000000014001a370 f i imgui.obj
 0001:000193c0       ?push_back@?$ImVector@UImGuiStyleMod@@@@QEAAXAEBUImGuiStyleMod@@@Z 000000014001a3c0 f i imgui.obj
 0001:000194b0       ?push_back@?$ImVector@UImGuiColorMod@@@@QEAAXAEBUImGuiColorMod@@@Z 000000014001a4b0 f i imgui.obj
 0001:000195a0       ?reserve@?$ImVector@PEAUImGuiWindow@@@@QEAAXH@Z 000000014001a5a0 f i imgui.obj
 0001:000195a0       ?reserve@?$ImVector@UImVec2@@@@QEAAXH@Z 000000014001a5a0 f i imgui.obj
 0001:000195a0       ?reserve@?$ImVector@PEAUImDrawList@@@@QEAAXH@Z 000000014001a5a0 f i imgui.obj
 0001:000195a0       ?reserve@?$ImVector@PEAX@@QEAAXH@Z 000000014001a5a0 f i imgui_draw.obj
 0001:00019630       ??0?$ImVector@PEAUImDrawList@@@@QEAA@XZ 000000014001a630 f i imgui.obj
 0001:00019640       ?push_back@?$ImVector@H@@QEAAXAEBH@Z 000000014001a640 f i imgui.obj
 0001:000196a0       ?push_back@?$ImVector@PEAUImFont@@@@QEAAXAEBQEAUImFont@@@Z 000000014001a6a0 f i imgui.obj
 0001:00019770       ?back@?$ImVector@I@@QEAAAEAIXZ 000000014001a770 f i imgui.obj
 0001:000197b0       ?reserve@?$ImVector@UImDrawVert@@@@QEAAXH@Z 000000014001a7b0 f i imgui.obj
 0001:00019850       ?pop_back@?$ImVector@UImDrawCmd@@@@QEAAXXZ 000000014001a850 f i imgui.obj
 0001:00019890       ?back@?$ImVector@UImDrawCmd@@@@QEAAAEAUImDrawCmd@@XZ 000000014001a890 f i imgui.obj
 0001:000198d0       ?insert@?$ImVector@UImGuiStoragePair@ImGuiStorage@@@@QEAAPEAUImGuiStoragePair@ImGuiStorage@@PEBU23@AEBU23@@Z 000000014001a8d0 f i imgui.obj
 0001:00019a20       ?reserve@?$ImVector@D@@QEAAXH@Z 000000014001aa20 f i imgui.obj
 0001:00019ab0       ?resize@?$ImVector@D@@QEAAXH@Z 000000014001aab0 f i imgui.obj
 0001:00019b00       ?reserve@?$ImVector@G@@QEAAXH@Z 000000014001ab00 f i imgui.obj
 0001:00019b90       ?resize@?$ImVector@G@@QEAAXH@Z 000000014001ab90 f i imgui.obj
 0001:00019be0       ?reserve@?$ImVector@UImGuiPopupData@@@@QEAAXH@Z 000000014001abe0 f i imgui.obj
 0001:00019c80       ?reserve@?$ImVector@M@@QEAAXH@Z 000000014001ac80 f i imgui.obj
 0001:00019c80       ?reserve@?$ImVector@I@@QEAAXH@Z 000000014001ac80 f i imgui.obj
 0001:00019c80       ?reserve@?$ImVector@H@@QEAAXH@Z 000000014001ac80 f i imgui.obj
 0001:00019d10       ??1ImGuiContext@@QEAA@XZ   000000014001ad10 f i imgui.obj
 0001:000210f0       ?StyleColorsDark@ImGui@@YAXPEAUImGuiStyle@@@Z 00000001400220f0 f   imgui_draw.obj
 0001:000215f0       ?Clear@ImDrawList@@QEAAXXZ 00000001400225f0 f   imgui_draw.obj
 0001:00021720       ?ClearFreeMemory@ImDrawList@@QEAAXXZ 0000000140022720 f   imgui_draw.obj
 0001:00021850       ?AddDrawCmd@ImDrawList@@QEAAXXZ 0000000140022850 f   imgui_draw.obj
 0001:00021970       ?UpdateClipRect@ImDrawList@@QEAAXXZ 0000000140022970 f   imgui_draw.obj
 0001:00021a60       ?UpdateTextureID@ImDrawList@@QEAAXXZ 0000000140022a60 f   imgui_draw.obj
 0001:00021b80       ?PushClipRect@ImDrawList@@QEAAXUImVec2@@0_N@Z 0000000140022b80 f   imgui_draw.obj
 0001:00021cb0       ?PopClipRect@ImDrawList@@QEAAXXZ 0000000140022cb0 f   imgui_draw.obj
 0001:00021d10       ?PushTextureID@ImDrawList@@QEAAXPEAX@Z 0000000140022d10 f   imgui_draw.obj
 0001:00021d90       ?PopTextureID@ImDrawList@@QEAAXXZ 0000000140022d90 f   imgui_draw.obj
 0001:00021df0       ?PrimReserve@ImDrawList@@QEAAXHH@Z 0000000140022df0 f   imgui_draw.obj
 0001:00021ef0       ?PrimRectUV@ImDrawList@@QEAAXAEBUImVec2@@000I@Z 0000000140022ef0 f   imgui_draw.obj
 0001:00022040       ?AddPolyline@ImDrawList@@QEAAXPEBUImVec2@@HI_NM@Z 0000000140023040 f   imgui_draw.obj
 0001:00022e90       ?AddConvexPolyFilled@ImDrawList@@QEAAXPEBUImVec2@@HI@Z 0000000140023e90 f   imgui_draw.obj
 0001:00023500       ?PathArcToFast@ImDrawList@@QEAAXAEBUImVec2@@MHH@Z 0000000140024500 f   imgui_draw.obj
 0001:00023680       ?PathArcTo@ImDrawList@@QEAAXAEBUImVec2@@MMMH@Z 0000000140024680 f   imgui_draw.obj
 0001:00023840       ?PathRect@ImDrawList@@QEAAXAEBUImVec2@@0MH@Z 0000000140024840 f   imgui_draw.obj
 0001:00023bb0       ?AddLine@ImDrawList@@QEAAXAEBUImVec2@@0IM@Z 0000000140024bb0 f   imgui_draw.obj
 0001:00023d10       ?AddRect@ImDrawList@@QEAAXAEBUImVec2@@0IMHM@Z 0000000140024d10 f   imgui_draw.obj
 0001:00023e10       ?AddRectFilled@ImDrawList@@QEAAXAEBUImVec2@@0IMH@Z 0000000140024e10 f   imgui_draw.obj
 0001:00023fb0       ?AddRectFilledMultiColor@ImDrawList@@QEAAXAEBUImVec2@@0IIII@Z 0000000140024fb0 f   imgui_draw.obj
 0001:00024190       ?AddCircle@ImDrawList@@QEAAXAEBUImVec2@@MIHM@Z 0000000140025190 f   imgui_draw.obj
 0001:00024230       ?AddText@ImDrawList@@QEAAXPEBUImFont@@MAEBUImVec2@@IPEBD2MPEBUImVec4@@@Z 0000000140025230 f   imgui_draw.obj
 0001:00024420       ?AddImage@ImDrawList@@QEAAXPEAXAEBUImVec2@@111I@Z 0000000140025420 f   imgui_draw.obj
 0001:00024500       ?ClearFreeMemory@ImDrawListSplitter@@QEAAXXZ 0000000140025500 f   imgui_draw.obj
 0001:00024670       ?Merge@ImDrawListSplitter@@QEAAXPEAUImDrawList@@@Z 0000000140025670 f   imgui_draw.obj
 0001:00024b20       ?SetCurrentChannel@ImDrawListSplitter@@QEAAXPEAUImDrawList@@H@Z 0000000140025b20 f   imgui_draw.obj
 0001:00024bd0       ?ShadeVertsLinearColorGradientKeepAlpha@ImGui@@YAXPEAUImDrawList@@HHUImVec2@@1II@Z 0000000140025bd0 f   imgui_draw.obj
 0001:00025080       ?ClearInputData@ImFontAtlas@@QEAAXXZ 0000000140026080 f   imgui_draw.obj
 0001:00025310       ?ClearTexData@ImFontAtlas@@QEAAXXZ 0000000140026310 f   imgui_draw.obj
 0001:00025390       ?ClearFonts@ImFontAtlas@@QEAAXXZ 0000000140026390 f   imgui_draw.obj
 0001:000254f0       ?GetTexDataAsRGBA32@ImFontAtlas@@QEAAXPEAPEAEPEAH11@Z 00000001400264f0 f   imgui_draw.obj
 0001:00025780       ?AddFont@ImFontAtlas@@QEAAPEAUImFont@@PEBUImFontConfig@@@Z 0000000140026780 f   imgui_draw.obj
 0001:00025ab0       ?AddFontFromFileTTF@ImFontAtlas@@QEAAPEAUImFont@@PEBDMPEBUImFontConfig@@PEBG@Z 0000000140026ab0 f   imgui_draw.obj
 0001:00025cc0       ?AddFontFromMemoryTTF@ImFontAtlas@@QEAAPEAUImFont@@PEAXHMPEBUImFontConfig@@PEBG@Z 0000000140026cc0 f   imgui_draw.obj
 0001:00025ec0       ?AddFontFromMemoryCompressedTTF@ImFontAtlas@@QEAAPEAUImFont@@PEBXHMPEBUImFontConfig@@PEBG@Z 0000000140026ec0 f   imgui_draw.obj
 0001:00026240       ?AddFontFromMemoryCompressedBase85TTF@ImFontAtlas@@QEAAPEAUImFont@@PEBDMPEBUImFontConfig@@PEBG@Z 0000000140027240 f   imgui_draw.obj
 0001:000263d0       ?AddCustomRectRegular@ImFontAtlas@@QEAAHIHH@Z 00000001400273d0 f   imgui_draw.obj
 0001:00026490       ?ImFontAtlasBuildWithStbTruetype@@YA_NPEAUImFontAtlas@@@Z 0000000140027490 f   imgui_draw.obj
 0001:00027bd0       ?ImFontAtlasBuildPackCustomRects@@YAXPEAUImFontAtlas@@PEAX@Z 0000000140028bd0 f   imgui_draw.obj
 0001:00028480       ?ImFontAtlasBuildFinish@@YAXPEAUImFontAtlas@@@Z 0000000140029480 f   imgui_draw.obj
 0001:00028780       ??1ImFont@@QEAA@XZ         0000000140029780 f   imgui_draw.obj
 0001:00028800       ?ClearOutputData@ImFont@@QEAAXXZ 0000000140029800 f   imgui_draw.obj
 0001:000288b0       ?BuildLookupTable@ImFont@@QEAAXXZ 00000001400298b0 f   imgui_draw.obj
 0001:00028cc0       ?GrowIndex@ImFont@@QEAAXH@Z 0000000140029cc0 f   imgui_draw.obj
 0001:00028de0       ?AddGlyph@ImFont@@QEAAXGMMMMMMMMM@Z 0000000140029de0 f   imgui_draw.obj
 0001:00028f60       ?CalcWordWrapPositionA@ImFont@@QEBAPEBDMPEBD0M@Z 0000000140029f60 f   imgui_draw.obj
 0001:000290f0       ?CalcTextSizeA@ImFont@@QEBA?AUImVec2@@MMMPEBD0PEAPEBD@Z 000000014002a0f0 f   imgui_draw.obj
 0001:00029310       ?RenderText@ImFont@@QEBAXPEAUImDrawList@@MUImVec2@@IAEBUImVec4@@PEBD3M_N@Z 000000014002a310 f   imgui_draw.obj
 0001:000299f0       ?RenderMouseCursor@ImGui@@YAXPEAUImDrawList@@UImVec2@@MHIII@Z 000000014002a9f0 f   imgui_draw.obj
 0001:00029dd0       ?RenderArrowPointingAt@ImGui@@YAXPEAUImDrawList@@UImVec2@@1HI@Z 000000014002add0 f   imgui_draw.obj
 0001:0002a4b0       ?resize@?$ImVector@UImFontGlyph@@@@QEAAXH@Z 000000014002b4b0 f i imgui_draw.obj
 0001:0002a5a0       ?push_back@?$ImVector@UImFontAtlasCustomRect@@@@QEAAXAEBUImFontAtlasCustomRect@@@Z 000000014002b5a0 f i imgui_draw.obj
 0001:0002a680       ??A?$ImVector@UImFontAtlasCustomRect@@@@QEAAAEAUImFontAtlasCustomRect@@H@Z 000000014002b680 f i imgui_draw.obj
 0001:0002a6d0       ?reserve@?$ImVector@UImVec4@@@@QEAAXH@Z 000000014002b6d0 f i imgui_draw.obj
 0001:0002a760       ?reserve@?$ImVector@UImDrawCmd@@@@QEAAXH@Z 000000014002b760 f i imgui_draw.obj
 0001:0002a7f0       ??AImVec2@@QEAAAEAM_K@Z    000000014002b7f0 f i imgui_widgets.obj
 0001:0002a840       ?TextEx@ImGui@@YAXPEBD0H@Z 000000014002b840 f   imgui_widgets.obj
 0001:0002b150       ?Text@ImGui@@YAXPEBDZZ     000000014002c150 f   imgui_widgets.obj
 0001:0002b180       ?TextV@ImGui@@YAXPEBDPEAD@Z 000000014002c180 f   imgui_widgets.obj
 0001:0002b250       ?TextColored@ImGui@@YAXAEBUImVec4@@PEBDZZ 000000014002c250 f   imgui_widgets.obj
 0001:0002b2c0       ?ButtonBehavior@ImGui@@YA_NAEBUImRect@@IPEA_N1H@Z 000000014002c2c0 f   imgui_widgets.obj
 0001:0002b7a0       ?ButtonEx@ImGui@@YA_NPEBDAEBUImVec2@@H@Z 000000014002c7a0 f   imgui_widgets.obj
 0001:0002bb10       ?Button@ImGui@@YA_NPEBDAEBUImVec2@@@Z 000000014002cb10 f   imgui_widgets.obj
 0001:0002bb20       ?InvisibleButton@ImGui@@YA_NPEBDAEBUImVec2@@@Z 000000014002cb20 f   imgui_widgets.obj
 0001:0002bc60       ?CollapseButton@ImGui@@YA_NIAEBUImVec2@@@Z 000000014002cc60 f   imgui_widgets.obj
 0001:0002bf50       ?GetWindowScrollbarID@ImGui@@YAIPEAUImGuiWindow@@W4ImGuiAxis@@@Z 000000014002cf50 f   imgui_widgets.obj
 0001:0002bfc0       ?ScrollbarEx@ImGui@@YA_NAEBUImRect@@IW4ImGuiAxis@@PEAMMMH@Z 000000014002cfc0 f   imgui_widgets.obj
 0001:0002c5d0       ?Scrollbar@ImGui@@YAXW4ImGuiAxis@@@Z 000000014002d5d0 f   imgui_widgets.obj
 0001:0002c8c0       ?Checkbox@ImGui@@YA_NPEBDPEA_N@Z 000000014002d8c0 f   imgui_widgets.obj
 0001:0002cd40       ?RadioButton@ImGui@@YA_NPEBD_N@Z 000000014002dd40 f   imgui_widgets.obj
 0001:0002d340       ?Spacing@ImGui@@YAXXZ      000000014002e340 f   imgui_widgets.obj
 0001:0002d390       ?Dummy@ImGui@@YAXAEBUImVec2@@@Z 000000014002e390 f   imgui_widgets.obj
 0001:0002d4d0       ?SeparatorEx@ImGui@@YAXH@Z 000000014002e4d0 f   imgui_widgets.obj
 0001:0002d8c0       ?Separator@ImGui@@YAXXZ    000000014002e8c0 f   imgui_widgets.obj
 0001:0002d940       ?BeginCombo@ImGui@@YA_NPEBD0H@Z 000000014002e940 f   imgui_widgets.obj
 0001:0002e200       ?Combo@ImGui@@YA_NPEBDPEAHP6A_NPEAXHPEAPEBD@Z2HH@Z 000000014002f200 f   imgui_widgets.obj
 0001:0002e360       ?Combo@ImGui@@YA_NPEBDPEAHQEBQEBDHH@Z 000000014002f360 f   imgui_widgets.obj
 0001:0002e4b0       ?DataTypeGetInfo@ImGui@@YAPEBUImGuiDataTypeInfo@@H@Z 000000014002f4b0 f   imgui_widgets.obj
 0001:0002e4f0       ?DataTypeFormatString@ImGui@@YAHPEADHHPEBXPEBD@Z 000000014002f4f0 f   imgui_widgets.obj
 0001:0002e610       ?DataTypeApplyOp@ImGui@@YAXHHPEAX0PEBX@Z 000000014002f610 f   imgui_widgets.obj
 0001:0002eb20       ?DataTypeApplyOpFromText@ImGui@@YA_NPEBD0HPEAX0@Z 000000014002fb20 f   imgui_widgets.obj
 0001:0002efd0       ?DragBehavior@ImGui@@YA_NIHPEAXMPEBX1PEBDMH@Z 000000014002ffd0 f   imgui_widgets.obj
 0001:0002f4c0       ?DragScalar@ImGui@@YA_NPEBDHPEAXMPEBX20M@Z 00000001400304c0 f   imgui_widgets.obj
 0001:0002fbd0       ?SliderScalar@ImGui@@YA_NPEBDHPEAXPEBX20M@Z 0000000140030bd0 f   imgui_widgets.obj
 0001:000302b0       ?SliderInt@ImGui@@YA_NPEBDPEAHHH0@Z 00000001400312b0 f   imgui_widgets.obj
 0001:000302e0       ?ImParseFormatFindEnd@@YAPEBDPEBD@Z 00000001400312e0 f   imgui_widgets.obj
 0001:00030340       ?ImParseFormatPrecision@@YAHPEBDH@Z 0000000140031340 f   imgui_widgets.obj
 0001:00030450       ?TempInputTextScalar@ImGui@@YA_NAEBUImRect@@IPEBDHPEAX1@Z 0000000140031450 f   imgui_widgets.obj
 0001:00030710       ?InputScalar@ImGui@@YA_NPEBDHPEAXPEBX20H@Z 0000000140031710 f   imgui_widgets.obj
 0001:00030d60       ?InputFloat@ImGui@@YA_NPEBDPEAMMM0H@Z 0000000140031d60 f   imgui_widgets.obj
 0001:00030dc0       ?InputInt@ImGui@@YA_NPEBDPEAHHHH@Z 0000000140031dc0 f   imgui_widgets.obj
 0001:00030e10       ?InputText@ImGui@@YA_NPEBDPEAD_KHP6AHPEAUImGuiInputTextCallbackData@@@ZPEAX@Z 0000000140031e10 f   imgui_widgets.obj
 0001:00032c90       ?InputTextEx@ImGui@@YA_NPEBD0PEADHAEBUImVec2@@HP6AHPEAUImGuiInputTextCallbackData@@@ZPEAX@Z 0000000140033c90 f   imgui_widgets.obj
 0001:00035ba0       ?ColorEdit4@ImGui@@YA_NPEBDQEAMH@Z 0000000140036ba0 f   imgui_widgets.obj
 0001:00036ae0       ?RenderColorRectWithAlphaCheckerboard@ImGui@@YAXUImVec2@@0IM0MH@Z 0000000140037ae0 f   imgui_widgets.obj
 0001:000372e0       ?ColorPicker4@ImGui@@YA_NPEBDQEAMHPEBM@Z 00000001400382e0 f   imgui_widgets.obj
 0001:00039490       ?Hotkey@ImGui@@YA_NPEBDPEAHAEBUImVec2@@@Z 000000014003a490 f   imgui_widgets.obj
 0001:00039c20       ?ColorButton@ImGui@@YA_NPEBDAEBUImVec4@@HUImVec2@@@Z 000000014003ac20 f   imgui_widgets.obj
 0001:0003a3a0       ?ColorTooltip@ImGui@@YAXPEBDPEBMH@Z 000000014003b3a0 f   imgui_widgets.obj
 0001:0003a6f0       ?ColorEditOptionsPopup@ImGui@@YAXPEBMH@Z 000000014003b6f0 f   imgui_widgets.obj
 0001:0003ade0       ?ColorPickerOptionsPopup@ImGui@@YAXPEBMH@Z 000000014003bde0 f   imgui_widgets.obj
 0001:0003b1e0       ?Selectable@ImGui@@YA_NPEBD_NHAEBUImVec2@@@Z 000000014003c1e0 f   imgui_widgets.obj
 0001:0003b810       ?GetColumnOffset@ImGui@@YAMH@Z 000000014003c810 f   imgui_widgets.obj
 0001:0003b8c0       ?SetColumnOffset@ImGui@@YAXHM@Z 000000014003c8c0 f   imgui_widgets.obj
 0001:0003bb30       ?PushColumnsBackground@ImGui@@YAXXZ 000000014003cb30 f   imgui_widgets.obj
 0001:0003bbc0       ?PopColumnsBackground@ImGui@@YAXXZ 000000014003cbc0 f   imgui_widgets.obj
 0001:0003bc10       ?EndColumns@ImGui@@YAXXZ   000000014003cc10 f   imgui_widgets.obj
 0001:0003c130       ??$DragBehaviorT@HHM@ImGui@@YA_NHPEAHMHHPEBDMH@Z 000000014003d130 f i imgui_widgets.obj
 0001:0003c5a0       ??$DragBehaviorT@IHM@ImGui@@YA_NHPEAIMIIPEBDMH@Z 000000014003d5a0 f i imgui_widgets.obj
 0001:0003ca20       ??$DragBehaviorT@_J_JN@ImGui@@YA_NHPEA_JM_J1PEBDMH@Z 000000014003da20 f i imgui_widgets.obj
 0001:0003cf00       ??$DragBehaviorT@_K_JN@ImGui@@YA_NHPEA_KM_K1PEBDMH@Z 000000014003df00 f i imgui_widgets.obj
 0001:0003d490       ??$DragBehaviorT@MMM@ImGui@@YA_NHPEAMMMMPEBDMH@Z 000000014003e490 f i imgui_widgets.obj
 0001:0003d960       ??$DragBehaviorT@NNN@ImGui@@YA_NHPEANMNNPEBDMH@Z 000000014003e960 f i imgui_widgets.obj
 0001:0003de60       ??$SliderBehaviorT@HHM@ImGui@@YA_NAEBUImRect@@IHPEAHHHPEBDMHPEAU1@@Z 000000014003ee60 f i imgui_widgets.obj
 0001:0003e280       ??$RoundScalarWithFormatT@HH@ImGui@@YAHPEBDHH@Z 000000014003f280 f i imgui_widgets.obj
 0001:0003e350       ??$RoundScalarWithFormatT@IH@ImGui@@YAIPEBDHI@Z 000000014003f350 f i imgui_widgets.obj
 0001:0003e420       ??$RoundScalarWithFormatT@_J_J@ImGui@@YA_JPEBDH_J@Z 000000014003f420 f i imgui_widgets.obj
 0001:0003e4f0       ??$RoundScalarWithFormatT@_K_J@ImGui@@YA_KPEBDH_K@Z 000000014003f4f0 f i imgui_widgets.obj
 0001:0003e5f0       ??$RoundScalarWithFormatT@MM@ImGui@@YAMPEBDHM@Z 000000014003f5f0 f i imgui_widgets.obj
 0001:0003e750       ??$RoundScalarWithFormatT@NN@ImGui@@YANPEBDHN@Z 000000014003f750 f i imgui_widgets.obj
 0001:0003e8a0       ??$SliderCalcRatioFromValueT@HM@ImGui@@YAMHHHHMM@Z 000000014003f8a0 f i imgui_widgets.obj
 0001:0003e970       ??2@YAPEAX_KPEAX@Z         000000014003f970 f i main.obj
 0001:0003e980       snprintf                   000000014003f980 f i main.obj
 0001:0003e9e0       ?max@?$numeric_limits@_K@std@@SA_KXZ 000000014003f9e0 f i main.obj
 0001:0003e9f0       ??0exception@std@@QEAA@AEBV01@@Z 000000014003f9f0 f i main.obj
 0001:0003ea30       ??1exception@std@@UEAA@XZ  000000014003fa30 f i main.obj
 0001:0003ea30       ??1bad_cast@std@@UEAA@XZ   000000014003fa30 f i main.obj
 0001:0003ea30       ??1runtime_error@std@@UEAA@XZ 000000014003fa30 f i main.obj
 0001:0003ea30       ??1invalid_operation@Concurrency@@UEAA@XZ 000000014003fa30 f i main.obj
 0001:0003ea30       ??1range_error@std@@UEAA@XZ 000000014003fa30 f i main.obj
 0001:0003ea30       ??1system_error@std@@UEAA@XZ 000000014003fa30 f i main.obj
 0001:0003ea30       ??1bad_alloc@std@@UEAA@XZ  000000014003fa30 f i main.obj
 0001:0003ea30       ??1bad_array_new_length@std@@UEAA@XZ 000000014003fa30 f i main.obj
 0001:0003ea50       ?what@exception@std@@UEBAPEBDXZ 000000014003fa50 f i main.obj
 0001:0003ea70       ??_Ebad_array_new_length@std@@UEAAPEAXI@Z 000000014003fa70 f i * CIL library *:* CIL module *
 0001:0003ea70       ??_Gexception@std@@UEAAPEAXI@Z 000000014003fa70 f i main.obj
 0001:0003ea70       ??_Eruntime_error@std@@UEAAPEAXI@Z 000000014003fa70 f i * CIL library *:* CIL module *
 0001:0003ea70       ??_Gbad_array_new_length@std@@UEAAPEAXI@Z 000000014003fa70 f i main.obj
 0001:0003ea70       ??_Erange_error@std@@UEAAPEAXI@Z 000000014003fa70 f i * CIL library *:* CIL module *
 0001:0003ea70       ??_Eexception@std@@UEAAPEAXI@Z 000000014003fa70 f i * CIL library *:* CIL module *
 0001:0003ea70       ??_Ebad_alloc@std@@UEAAPEAXI@Z 000000014003fa70 f i * CIL library *:* CIL module *
 0001:0003ea70       ??_Ebad_cast@std@@UEAAPEAXI@Z 000000014003fa70 f i * CIL library *:* CIL module *
 0001:0003ea70       ??_Einvalid_operation@Concurrency@@UEAAPEAXI@Z 000000014003fa70 f i * CIL library *:* CIL module *
 0001:0003ea70       ??_Grange_error@std@@UEAAPEAXI@Z 000000014003fa70 f i main.obj
 0001:0003ea70       ??_Gbad_alloc@std@@UEAAPEAXI@Z 000000014003fa70 f i main.obj
 0001:0003ea70       ??_Ginvalid_operation@Concurrency@@UEAAPEAXI@Z 000000014003fa70 f i main.obj
 0001:0003ea70       ??_Gbad_cast@std@@UEAAPEAXI@Z 000000014003fa70 f i main.obj
 0001:0003ea70       ??_Gruntime_error@std@@UEAAPEAXI@Z 000000014003fa70 f i main.obj
 0001:0003eac0       ??0bad_array_new_length@std@@QEAA@XZ 000000014003fac0 f i main.obj
 0001:0003eaf0       ??1exception_ptr@std@@QEAA@XZ 000000014003faf0 f i main.obj
 0001:0003eb00       ??0exception_ptr@std@@QEAA@AEBV01@@Z 000000014003fb00 f i main.obj
 0001:0003eb20       ?current_exception@std@@YA?AVexception_ptr@1@XZ 000000014003fb20 f i main.obj
 0001:0003eb50       ?rethrow_exception@std@@YAXVexception_ptr@1@@Z 000000014003fb50 f i main.obj
 0001:0003eb60       ?_Throw_bad_array_new_length@std@@YAXXZ 000000014003fb60 f i main.obj
 0001:0003eb60       ?__scrt_throw_std_bad_array_new_length@@YAXXZ 000000014003fb60 f i MSVCRT:throw_bad_alloc.obj
 0001:0003eb80       ??0bad_array_new_length@std@@QEAA@AEBV01@@Z 000000014003fb80 f i main.obj
 0001:0003ebc0       ??0bad_alloc@std@@QEAA@AEBV01@@Z 000000014003fbc0 f i main.obj
 0001:0003ec00       ?_Xlen_string@std@@YAXXZ   000000014003fc00 f i main.obj
 0001:0003ec20       ??0runtime_error@std@@QEAA@PEBD@Z 000000014003fc20 f i main.obj
 0001:0003ec70       ??0range_error@std@@QEAA@PEBD@Z 000000014003fc70 f i main.obj
 0001:0003ecc0       ?_Throw_range_error@std@@YAXQEBD@Z 000000014003fcc0 f i main.obj
 0001:0003ece0       ??0range_error@std@@QEAA@AEBV01@@Z 000000014003fce0 f i main.obj
 0001:0003ed20       ??0runtime_error@std@@QEAA@AEBV01@@Z 000000014003fd20 f i main.obj
 0001:0003ed60       ?default_error_condition@error_category@std@@UEBA?AVerror_condition@2@H@Z 000000014003fd60 f i main.obj
 0001:0003ed70       ?equivalent@error_category@std@@UEBA_NHAEBVerror_condition@2@@Z 000000014003fd70 f i main.obj
 0001:0003edb0       ?equivalent@error_category@std@@UEBA_NAEBVerror_code@2@H@Z 000000014003fdb0 f i main.obj
 0001:0003edd0       ?make_error_code@std@@YA?AVerror_code@1@W4errc@1@@Z 000000014003fdd0 f i main.obj
 0001:0003ee10       ??0_System_error@std@@IEAA@Verror_code@1@AEBV?$basic_string@DU?$char_traits@D@std@@V?$allocator@D@2@@1@@Z 000000014003fe10 f i main.obj
 0001:0003eff0       ??_E_System_error@std@@UEAAPEAXI@Z 000000014003fff0 f i * CIL library *:* CIL module *
 0001:0003eff0       ??_G_System_error@std@@UEAAPEAXI@Z 000000014003fff0 f i main.obj
 0001:0003eff0       ??_Gsystem_error@std@@UEAAPEAXI@Z 000000014003fff0 f i main.obj
 0001:0003eff0       ??_Esystem_error@std@@UEAAPEAXI@Z 000000014003fff0 f i * CIL library *:* CIL module *
 0001:0003f040       ??0system_error@std@@QEAA@Verror_code@1@@Z 0000000140040040 f i main.obj
 0001:0003f0f0       ?_Throw_system_error@std@@YAXW4errc@1@@Z 00000001400400f0 f i main.obj
 0001:0003f130       ??0system_error@std@@QEAA@AEBV01@@Z 0000000140040130 f i main.obj
 0001:0003f190       ??0_System_error@std@@QEAA@AEBV01@@Z 0000000140040190 f i main.obj
 0001:0003f1e0       ??1_System_error_message@std@@QEAA@XZ 00000001400401e0 f i main.obj
 0001:0003f1f0       ?name@_Generic_error_category@std@@UEBAPEBDXZ 00000001400401f0 f i main.obj
 0001:0003f200       ?message@_Generic_error_category@std@@UEBA?AV?$basic_string@DU?$char_traits@D@std@@V?$allocator@D@2@@2@H@Z 0000000140040200 f i main.obj
 0001:0003f250       ??_E_System_error_category@std@@UEAAPEAXI@Z 0000000140040250 f i * CIL library *:* CIL module *
 0001:0003f250       ??_G_System_error_category@std@@UEAAPEAXI@Z 0000000140040250 f i main.obj
 0001:0003f250       ??_E?$output_string_adapter@DV?$basic_string@DU?$char_traits@D@std@@V?$allocator@D@2@@std@@@detail@nlohmann@@UEAAPEAXI@Z 0000000140040250 f i * CIL library *:* CIL module *
 0001:0003f250       ??_E_Future_error_category2@std@@UEAAPEAXI@Z 0000000140040250 f i * CIL library *:* CIL module *
 0001:0003f250       ??_G_Generic_error_category@std@@UEAAPEAXI@Z 0000000140040250 f i main.obj
 0001:0003f250       ??_E_Generic_error_category@std@@UEAAPEAXI@Z 0000000140040250 f i * CIL library *:* CIL module *
 0001:0003f250       ??_G_Future_error_category2@std@@UEAAPEAXI@Z 0000000140040250 f i main.obj
 0001:0003f250       ??_G?$output_string_adapter@DV?$basic_string@DU?$char_traits@D@std@@V?$allocator@D@2@@std@@@detail@nlohmann@@UEAAPEAXI@Z 0000000140040250 f i main.obj
 0001:0003f280       ?name@_System_error_category@std@@UEBAPEBDXZ 0000000140040280 f i main.obj
 0001:0003f290       ?message@_System_error_category@std@@UEBA?AV?$basic_string@DU?$char_traits@D@std@@V?$allocator@D@2@@2@H@Z 0000000140040290 f i main.obj
 0001:0003f310       ?default_error_condition@_System_error_category@std@@UEBA?AVerror_condition@2@H@Z 0000000140040310 f i main.obj
 0001:0003f3b0       ??0bad_cast@std@@QEAA@XZ   00000001400403b0 f i main.obj
 0001:0003f3e0       ?_Throw_bad_cast@std@@YAXXZ 00000001400403e0 f i main.obj
 0001:0003f400       ??0bad_cast@std@@QEAA@AEBV01@@Z 0000000140040400 f i main.obj
 0001:0003f440       ?_Decref@_Ref_count_base@std@@QEAAXXZ 0000000140040440 f i main.obj
 0001:0003f490       __scrt_initialize_winrt    0000000140040490 f i MSVCRT:utility_desktop.obj
 0001:0003f490       ?NextPut@FilterWithBufferedInput@CryptoPP@@MEAAHPEBE_K@Z 0000000140040490 f i main.obj
 0001:0003f490       ?MinLastBlockSize@CBC_ModeBase@CryptoPP@@UEBAIXZ 0000000140040490 f i main.obj
 0001:0003f490       __scrt_stub_for_initialize_mta 0000000140040490 f i MSVCRT:utility_desktop.obj
 0001:0003f490       ?Put2@BitBucket@CryptoPP@@UEAA_KPEBE_KH_N@Z 0000000140040490 f i cryptopp-static:cryptlib.cpp.obj
 0001:0003f490       ?GetOptimalBlockSizeUsed@StreamTransformation@CryptoPP@@UEBAIXZ 0000000140040490 f i main.obj
 0001:0003f490       ?_Move@?$_Func_impl_no_alloc@V<lambda_052e919cc0e5399df76dff3972c0cac1>@@E$$V@std@@EEAAPEAV?$_Func_base@E$$V@2@PEAX@Z 0000000140040490 f i main.obj
 0001:0003f490       __scrt_exe_initialize_mta  0000000140040490 f i MSVCRT:utility_desktop.obj
 0001:0003f490       _get_startup_thread_locale_mode 0000000140040490 f i MSVCRT:thread_locale.obj
 0001:0003f490       ?NumberOfMessageSeries@BufferedTransformation@CryptoPP@@UEBAIXZ 0000000140040490 f i main.obj
 0001:0003f490       _matherr                   0000000140040490 f i MSVCRT:matherr.obj
 0001:0003f490       ?AttachedTransformation@BufferedTransformation@CryptoPP@@UEAAPEAV12@XZ 0000000140040490 f i main.obj
 0001:0003f490       ?_Get_deleter@_Ref_count_base@std@@UEBAPEAXAEBVtype_info@@@Z 0000000140040490 f i main.obj
 0001:0003f490       ?do_encoding@?$codecvt_utf8@_W$0BAPPPP@$0A@@std@@MEBAHXZ 0000000140040490 f i main.obj
 0001:0003f490       ?IVSize@?$SimpleKeyingInterfaceImpl@V?$TwoBases@VBlockCipher@CryptoPP@@URijndael_Info@2@@CryptoPP@@V12@@CryptoPP@@UEBAIXZ 0000000140040490 f i main.obj
 0001:0003f490       ?GetNativeByteOrder@CryptoPP@@YA?AW4ByteOrder@1@XZ 0000000140040490 f i cryptopp-static:cryptlib.cpp.obj
 0001:0003f490       ?GetAutoSignalPropagation@BufferedTransformation@CryptoPP@@UEBAHXZ 0000000140040490 f i main.obj
 0001:0003f490       ?CopyRangeTo2@Sink@CryptoPP@@UEBA_KAEAVBufferedTransformation@2@AEA_K_KAEBV?$basic_string@DU?$char_traits@D@std@@V?$allocator@D@2@@std@@_N@Z 0000000140040490 f i main.obj
 0001:0003f490       _get_startup_commit_mode   0000000140040490 f i MSVCRT:commit_mode.obj
 0001:0003f490       _get_startup_new_mode      0000000140040490 f i MSVCRT:new_mode.obj
 0001:0003f4a0       ??1locale@std@@QEAA@XZ     00000001400404a0 f i main.obj
 0001:0003f4d0       ?_Make_ec@filesystem@std@@YA?AVerror_code@2@W4__std_win_error@@@Z 00000001400404d0 f i main.obj
 0001:0003f510       ?_Throw_system_error_from_std_win_error@filesystem@std@@YAXW4__std_win_error@@@Z 0000000140040510 f i main.obj
 0001:0003f550       ?string@path@filesystem@std@@QEBA?AV?$basic_string@DU?$char_traits@D@std@@V?$allocator@D@2@@3@XZ 0000000140040550 f i main.obj
 0001:0003f640       ??1?$basic_string@_WU?$char_traits@_W@std@@V?$allocator@_W@2@@std@@QEAA@XZ 0000000140040640 f i main.obj
 0001:0003f640       ?_Tidy_deallocate@?$basic_string@_WU?$char_traits@_W@std@@V?$allocator@_W@2@@std@@AEAAXXZ 0000000140040640 f i main.obj
 0001:0003f640       ??1path@filesystem@std@@QEAA@XZ 0000000140040640 f i main.obj
 0001:0003f6b0       ??0path@filesystem@std@@QEAA@AEBV012@@Z 00000001400406b0 f i main.obj
 0001:0003f750       ??0filesystem_error@filesystem@std@@QEAA@AEBV?$basic_string@DU?$char_traits@D@std@@V?$allocator@D@2@@2@AEBVpath@12@Verror_code@2@@Z 0000000140040750 f i main.obj
 0001:0003f880       ?what@filesystem_error@filesystem@std@@UEBAPEBDXZ 0000000140040880 f i main.obj
 0001:0003f890       ?_Pretty_message@filesystem_error@filesystem@std@@CA?AV?$basic_string@DU?$char_traits@D@std@@V?$allocator@D@2@@3@V?$basic_string_view@DU?$char_traits@D@std@@@3@AEBVpath@23@1@Z 0000000140040890 f i main.obj
 0001:0003faa0       ??_Efilesystem_error@filesystem@std@@UEAAPEAXI@Z 0000000140040aa0 f i * CIL library *:* CIL module *
 0001:0003faa0       ??_Gfilesystem_error@filesystem@std@@UEAAPEAXI@Z 0000000140040aa0 f i main.obj
 0001:0003fbf0       ??1filesystem_error@filesystem@std@@UEAA@XZ 0000000140040bf0 f i main.obj
 0001:0003fd20       ??0filesystem_error@filesystem@std@@QEAA@AEBV012@@Z 0000000140040d20 f i main.obj
 0001:0003fdb0       ?_Throw_fs_error@filesystem@std@@YAXPEBDAEBVerror_code@2@AEBVpath@12@@Z 0000000140040db0 f i main.obj
 0001:0003fe10       ?exists@filesystem@std@@YA_NAEBVpath@12@@Z 0000000140040e10 f i main.obj
 0001:0003ffb0       ?to_string@std@@YA?AV?$basic_string@DU?$char_traits@D@std@@V?$allocator@D@2@@1@H@Z 0000000140040fb0 f i main.obj
 0001:00040090       ?to_string@std@@YA?AV?$basic_string@DU?$char_traits@D@std@@V?$allocator@D@2@@1@_K@Z 0000000140041090 f i main.obj
 0001:00040130       ?to_wstring@std@@YA?AV?$basic_string@_WU?$char_traits@_W@std@@V?$allocator@_W@2@@1@J@Z 0000000140041130 f i main.obj
 0001:00040220       ??1thread@std@@QEAA@XZ     0000000140041220 f i main.obj
 0001:00040240       ?detach@thread@std@@QEAAXXZ 0000000140041240 f i main.obj
 0001:00040290       ?native_handle@thread@std@@QEAAPEAXXZ 0000000140041290 f i main.obj
 0001:00040290       ??$?CU_ExceptionHolder@details@Concurrency@@$0A@@?$shared_ptr@U_ExceptionHolder@details@Concurrency@@@std@@QEBAPEAU_ExceptionHolder@details@Concurrency@@XZ 0000000140041290 f i main.obj
 0001:000402a0       ??0invalid_operation@Concurrency@@QEAA@PEBD@Z 00000001400412a0 f i main.obj
 0001:000402f0       ?_Callback@_PPLTaskChore@_DefaultPPLTaskScheduler@details@Concurrency@@CAXPEAX@Z 00000001400412f0 f i main.obj
 0001:00040330       ?schedule@_DefaultPPLTaskScheduler@details@Concurrency@@UEAAXP6AXPEAX@Z0@Z 0000000140041330 f i main.obj
 0001:000403c0       ??_G_PPLTaskChore@_DefaultPPLTaskScheduler@details@Concurrency@@QEAAPEAXI@Z 00000001400413c0 f i main.obj
 0001:000403f0       ?get_ambient_scheduler@Concurrency@@YAAEBV?$shared_ptr@Uscheduler_interface@Concurrency@@@std@@XZ 00000001400413f0 f i main.obj
 0001:000404a0       ?_Destroy@_RefCounter@details@Concurrency@@MEAAXXZ 00000001400414a0 f i main.obj
 0001:000404c0       ??_G_RefCounter@details@Concurrency@@UEAAPEAXI@Z 00000001400414c0 f i main.obj
 0001:000404c0       ??_E_RefCounter@details@Concurrency@@UEAAPEAXI@Z 00000001400414c0 f i * CIL library *:* CIL module *
 0001:000404f0       ??_G_CancellationTokenRegistration@details@Concurrency@@MEAAPEAXI@Z 00000001400414f0 f i main.obj
 0001:000404f0       ??_E_CancellationTokenRegistration@details@Concurrency@@MEAAPEAXI@Z 00000001400414f0 f i * CIL library *:* CIL module *
 0001:00040550       ?_RegisterCallback@_CancellationTokenState@details@Concurrency@@QEAAXPEAV_CancellationTokenRegistration@23@@Z 0000000140041550 f i main.obj
 0001:000406a0       ?_DeregisterCallback@_CancellationTokenState@details@Concurrency@@QEAAXPEAV_CancellationTokenRegistration@23@@Z 00000001400416a0 f i main.obj
 0001:00040820       ??1cancellation_token@Concurrency@@QEAA@XZ 0000000140041820 f i main.obj
 0001:00040860       ?_RunChoreBridge@_TaskProcHandle@details@Concurrency@@SAXPEAX@Z 0000000140041860 f i main.obj
 0001:00040890       ??_E_TaskProcHandle@details@Concurrency@@UEAAPEAXI@Z 0000000140041890 f i * CIL library *:* CIL module *
 0001:00040890       ??_G_TaskProcHandle@details@Concurrency@@UEAAPEAXI@Z 0000000140041890 f i main.obj
 0001:000408c0       ?_Wait@_TaskCollectionBaseImpl@details@Concurrency@@QEAAXXZ 00000001400418c0 f i main.obj
 0001:00040950       ?_Complete@_TaskCollectionBaseImpl@details@Concurrency@@QEAAXXZ 0000000140041950 f i main.obj
 0001:000409c0       ??1?$shared_ptr@U_Task_impl_base@details@Concurrency@@@std@@QEAA@XZ 00000001400419c0 f i main.obj
 0001:000409c0       ??1?$shared_ptr@U_ExceptionHolder@details@Concurrency@@@std@@QEAA@XZ 00000001400419c0 f i main.obj
 0001:000409c0       ??1scheduler_ptr@Concurrency@@QEAA@XZ 00000001400419c0 f i main.obj
 0001:000409c0       ??1?$task@E@Concurrency@@QEAA@XZ 00000001400419c0 f i main.obj
 0001:000409c0       ??1?$task@X@Concurrency@@QEAA@XZ 00000001400419c0 f i main.obj
 0001:000409c0       ??1?$shared_ptr@Uscheduler_interface@Concurrency@@@std@@QEAA@XZ 00000001400419c0 f i main.obj
 0001:000409c0       ??1input_adapter@detail@nlohmann@@QEAA@XZ 00000001400419c0 f i main.obj
 0001:000409c0       ??1?$output_adapter@DV?$basic_string@DU?$char_traits@D@std@@V?$allocator@D@2@@std@@@detail@nlohmann@@QEAA@XZ 00000001400419c0 f i main.obj
 0001:000409c0       ??1?$shared_ptr@U?$output_adapter_protocol@D@detail@nlohmann@@@std@@QEAA@XZ 00000001400419c0 f i main.obj
 0001:000409c0       ??1?$shared_ptr@Uinput_adapter_protocol@detail@nlohmann@@@std@@QEAA@XZ 00000001400419c0 f i main.obj
 0001:00040a10       ?_NoCallOnDefaultTask_ErrorImpl@_DefaultTaskHelper@details@Concurrency@@SAXXZ 0000000140041a10 f i main.obj
 0001:00040a30       ??0invalid_operation@Concurrency@@QEAA@AEBV01@@Z 0000000140041a30 f i main.obj
 0001:00040a70       ??1?$json_sax_dom_parser@V?$basic_json@Vmap@std@@Vvector@2@V?$basic_string@DU?$char_traits@D@std@@V?$allocator@D@2@@2@_N_J_KNVallocator@2@Uadl_serializer@nlohmann@@@nlohmann@@@detail@nlohmann@@QEAA@XZ 0000000140041a70 f i main.obj
 0001:00040a70       ??1_TaskCreationCallstack@details@Concurrency@@QEAA@XZ 0000000140041a70 f i main.obj
 0001:00040ad0       ?_Bridge@_TaskProcThunk@details@Concurrency@@SAXPEAX@Z 0000000140041ad0 f i main.obj
 0001:00040b30       ??1_Holder@_TaskProcThunk@details@Concurrency@@QEAA@XZ 0000000140041b30 f i main.obj
 0001:00040b80       ??1<lambda_052e919cc0e5399df76dff3972c0cac1>@@QEAA@XZ 0000000140041b80 f i main.obj
 0001:00040b80       ??1?$function@$$A6A_NHW4parse_event_t@?$parser@V?$basic_json@Vmap@std@@Vvector@2@V?$basic_string@DU?$char_traits@D@std@@V?$allocator@D@2@@2@_N_J_KNVallocator@2@Uadl_serializer@nlohmann@@@nlohmann@@@detail@nlohmann@@AEAV?$basic_json@Vmap@std@@Vvector@2@V?$basic_string@DU?$char_traits@D@std@@V?$allocator@D@2@@2@_N_J_KNVallocator@2@Uadl_serializer@nlohmann@@@4@@Z@std@@QEAA@XZ 0000000140041b80 f i main.obj
 0001:00040b80       ??1?$function@$$A6AEXZ@std@@QEAA@XZ 0000000140041b80 f i main.obj
 0001:00040b80       ??1?$_Func_class@X$$V@std@@QEAA@XZ 0000000140041b80 f i main.obj
 0001:00040b80       ??1?$_Func_class@_NHW4parse_event_t@?$parser@V?$basic_json@Vmap@std@@Vvector@2@V?$basic_string@DU?$char_traits@D@std@@V?$allocator@D@2@@2@_N_J_KNVallocator@2@Uadl_serializer@nlohmann@@@nlohmann@@@detail@nlohmann@@AEAV?$basic_json@Vmap@std@@Vvector@2@V?$basic_string@DU?$char_traits@D@std@@V?$allocator@D@2@@2@_N_J_KNVallocator@2@Uadl_serializer@nlohmann@@@4@@std@@QEAA@XZ 0000000140041b80 f i main.obj
 0001:00040b80       ??1?$_Func_class@E$$V@std@@QEAA@XZ 0000000140041b80 f i main.obj
 0001:00040b80       ??1?$function@$$A6AXXZ@std@@QEAA@XZ 0000000140041b80 f i main.obj
 0001:00040bb0       ?_ScheduleFuncWithAutoInline@details@Concurrency@@YAXAEBV?$function@$$A6AXXZ@std@@W4_TaskInliningMode@12@@Z 0000000140041bb0 f i main.obj
 0001:00040cf0       ??1_ContextCallback@details@Concurrency@@QEAA@XZ 0000000140041cf0 f i main.obj
 0001:00040d00       ??1_ExceptionHolder@details@Concurrency@@QEAA@XZ 0000000140041d00 f i main.obj
 0001:00040d80       ?_RethrowUserException@_ExceptionHolder@details@Concurrency@@QEAAXXZ 0000000140041d80 f i main.obj
 0001:00040db0       ??0_TaskCreationCallstack@details@Concurrency@@QEAA@AEBV012@@Z 0000000140041db0 f i main.obj
 0001:00040e40       ??4_TaskCreationCallstack@details@Concurrency@@QEAAAEAV012@AEBV012@@Z 0000000140041e40 f i main.obj
 0001:00040f60       ??1_TaskWorkItemRAIILogger@details@Concurrency@@QEAA@XZ 0000000140041f60 f i main.obj
 0001:00040f80       ??0_Task_impl_base@details@Concurrency@@QEAA@PEAV_CancellationTokenState@12@Uscheduler_ptr@2@@Z 0000000140041f80 f i main.obj
 0001:00041110       ??1_Task_impl_base@details@Concurrency@@UEAA@XZ 0000000140042110 f i main.obj
 0001:00041200       ?_Wait@_Task_impl_base@details@Concurrency@@QEAA?AW4task_group_status@3@XZ 0000000140042200 f i main.obj
 0001:00041270       ?_CancelWithException@_Task_impl_base@details@Concurrency@@QEAA_NAEBVexception_ptr@std@@@Z 0000000140042270 f i main.obj
 0001:00041410       ?_HasUserException@_Task_impl_base@details@Concurrency@@QEAA_NXZ 0000000140042410 f i main.obj
 0001:00041420       ?_ScheduleTask@_Task_impl_base@details@Concurrency@@QEAAXPEAU_TaskProcHandle@23@W4_TaskInliningMode@23@@Z 0000000140042420 f i main.obj
 0001:000414a0       ??R<lambda_713ee8bbd6b08550d59c52695cab5ce3>@@QEBAXXZ 00000001400424a0 f i main.obj
 0001:00041630       ?_RunTaskContinuations@_Task_impl_base@details@Concurrency@@QEAAXXZ 0000000140042630 f i main.obj
 0001:000417f0       ??_G_Task_impl_base@details@Concurrency@@UEAAPEAXI@Z 00000001400427f0 f i main.obj
 0001:000417f0       ??_E_Task_impl_base@details@Concurrency@@UEAAPEAXI@Z 00000001400427f0 f i * CIL library *:* CIL module *
 0001:00041830       ??1_TaskCollectionBaseImpl@details@Concurrency@@QEAA@XZ 0000000140042830 f i main.obj
 0001:000418a0       ??1?$weak_ptr@U_Task_impl_base@details@Concurrency@@@std@@QEAA@XZ 00000001400428a0 f i main.obj
 0001:000418a0       ??1<lambda_be3e5d9dce35d2c8dbfa8485373731d5>@@QEAA@XZ 00000001400428a0 f i main.obj
 0001:000418c0       ??1task_options@Concurrency@@QEAA@XZ 00000001400428c0 f i main.obj
 0001:000419a0       ?make_error_code@std@@YA?AVerror_code@1@W4future_errc@1@@Z 00000001400429a0 f i main.obj
 0001:000419e0       ?name@_Future_error_category2@std@@UEBAPEBDXZ 00000001400429e0 f i main.obj
 0001:000419f0       ?message@_Future_error_category2@std@@UEBA?AV?$basic_string@DU?$char_traits@D@std@@V?$allocator@D@2@@2@H@Z 00000001400429f0 f i main.obj
 0001:00041ab0       ??1?$_Promise@H@std@@QEAA@XZ 0000000140042ab0 f i main.obj
 0001:00041ab0       ??1?$future@X@std@@QEAA@XZ 0000000140042ab0 f i main.obj
 0001:00041b00       ?_Throw_tree_length_error@std@@YAXXZ 0000000140042b00 f i main.obj
 0001:00041b20       ??1Exception@CryptoPP@@UEAA@XZ 0000000140042b20 f i main.obj
 0001:00041ba0       ??0Exception@CryptoPP@@QEAA@W4ErrorType@01@AEBV?$basic_string@DU?$char_traits@D@std@@V?$allocator@D@2@@std@@@Z 0000000140042ba0 f i main.obj
 0001:00041be0       ?what@Exception@CryptoPP@@UEBAPEBDXZ 0000000140042be0 f i main.obj
 0001:00041bf0       ??_EInputRejected@?$InputRejecting@VBufferedTransformation@CryptoPP@@@CryptoPP@@UEAAPEAXI@Z 0000000140042bf0 f i * CIL library *:* CIL module *
 0001:00041bf0       ??_GInputRejected@?$InputRejecting@VFilter@CryptoPP@@@CryptoPP@@UEAAPEAXI@Z 0000000140042bf0 f i main.obj
 0001:00041bf0       ??_ENoChannelSupport@BufferedTransformation@CryptoPP@@UEAAPEAXI@Z 0000000140042bf0 f i cryptopp-static:cryptlib.cpp.obj
 0001:00041bf0       ??_EInvalidArgument@CryptoPP@@UEAAPEAXI@Z 0000000140042bf0 f i * CIL library *:* CIL module *
 0001:00041bf0       ??_EInvalidKeyLength@CryptoPP@@UEAAPEAXI@Z 0000000140042bf0 f i cryptopp-static:cryptlib.cpp.obj
 0001:00041bf0       ??_GNoChannelSupport@BufferedTransformation@CryptoPP@@UEAAPEAXI@Z 0000000140042bf0 f i cryptopp-static:cryptlib.cpp.obj
 0001:00041bf0       ??_ENotImplemented@CryptoPP@@UEAAPEAXI@Z 0000000140042bf0 f i * CIL library *:* CIL module *
 0001:00041bf0       ??_GException@CryptoPP@@UEAAPEAXI@Z 0000000140042bf0 f i main.obj
 0001:00041bf0       ??_GInvalidDataFormat@CryptoPP@@UEAAPEAXI@Z 0000000140042bf0 f i cryptopp-static:cryptlib.cpp.obj
 0001:00041bf0       ??_EInputRejected@?$InputRejecting@VFilter@CryptoPP@@@CryptoPP@@UEAAPEAXI@Z 0000000140042bf0 f i * CIL library *:* CIL module *
 0001:00041bf0       ??_EBlockingInputOnly@BufferedTransformation@CryptoPP@@UEAAPEAXI@Z 0000000140042bf0 f i cryptopp-static:filters.cpp.obj
 0001:00041bf0       ??_EException@CryptoPP@@UEAAPEAXI@Z 0000000140042bf0 f i * CIL library *:* CIL module *
 0001:00041bf0       ??_GOS_RNG_Err@CryptoPP@@UEAAPEAXI@Z 0000000140042bf0 f i cryptopp-static:osrng.cpp.obj
 0001:00041bf0       ??_GParameterNotUsed@AlgorithmParametersBase@CryptoPP@@UEAAPEAXI@Z 0000000140042bf0 f i main.obj
 0001:00041bf0       ??_EInvalidCiphertext@CryptoPP@@UEAAPEAXI@Z 0000000140042bf0 f i cryptopp-static:cryptlib.cpp.obj
 0001:00041bf0       ??_ECannotFlush@CryptoPP@@UEAAPEAXI@Z 0000000140042bf0 f i * CIL library *:* CIL module *
 0001:00041bf0       ??_GBlockingInputOnly@BufferedTransformation@CryptoPP@@UEAAPEAXI@Z 0000000140042bf0 f i cryptopp-static:filters.cpp.obj
 0001:00041bf0       ??_EParameterNotUsed@AlgorithmParametersBase@CryptoPP@@UEAAPEAXI@Z 0000000140042bf0 f i * CIL library *:* CIL module *
 0001:00041bf0       ??_GNotImplemented@CryptoPP@@UEAAPEAXI@Z 0000000140042bf0 f i main.obj
 0001:00041bf0       ??_EHashInputTooLong@CryptoPP@@UEAAPEAXI@Z 0000000140042bf0 f i cryptopp-static:iterhash.cpp.obj
 0001:00041bf0       ??_EInvalidDataFormat@CryptoPP@@UEAAPEAXI@Z 0000000140042bf0 f i cryptopp-static:cryptlib.cpp.obj
 0001:00041bf0       ??_GInvalidKeyLength@CryptoPP@@UEAAPEAXI@Z 0000000140042bf0 f i cryptopp-static:cryptlib.cpp.obj
 0001:00041bf0       ??_EBERDecodeErr@CryptoPP@@UEAAPEAXI@Z 0000000140042bf0 f i cryptopp-static:integer.cpp.obj
 0001:00041bf0       ??_GInvalidArgument@CryptoPP@@UEAAPEAXI@Z 0000000140042bf0 f i main.obj
 0001:00041bf0       ??_GBERDecodeErr@CryptoPP@@UEAAPEAXI@Z 0000000140042bf0 f i cryptopp-static:integer.cpp.obj
 0001:00041bf0       ??_EOS_RNG_Err@CryptoPP@@UEAAPEAXI@Z 0000000140042bf0 f i cryptopp-static:osrng.cpp.obj
 0001:00041bf0       ??_GInvalidCiphertext@CryptoPP@@UEAAPEAXI@Z 0000000140042bf0 f i cryptopp-static:cryptlib.cpp.obj
 0001:00041bf0       ??_GInputRejected@?$InputRejecting@VBufferedTransformation@CryptoPP@@@CryptoPP@@UEAAPEAXI@Z 0000000140042bf0 f i main.obj
 0001:00041bf0       ??_ESelfTestFailure@CryptoPP@@UEAAPEAXI@Z 0000000140042bf0 f i cryptopp-static:cryptlib.cpp.obj
 0001:00041bf0       ??_GHashInputTooLong@CryptoPP@@UEAAPEAXI@Z 0000000140042bf0 f i cryptopp-static:iterhash.cpp.obj
 0001:00041bf0       ??_GSelfTestFailure@CryptoPP@@UEAAPEAXI@Z 0000000140042bf0 f i cryptopp-static:cryptlib.cpp.obj
 0001:00041bf0       ??_GCannotFlush@CryptoPP@@UEAAPEAXI@Z 0000000140042bf0 f i main.obj
 0001:00041c30       ??0InvalidArgument@CryptoPP@@QEAA@AEBV?$basic_string@DU?$char_traits@D@std@@V?$allocator@D@2@@std@@@Z 0000000140042c30 f i main.obj
 0001:00041c80       ??1InvalidArgument@CryptoPP@@UEAA@XZ 0000000140042c80 f i main.obj
 0001:00041c80       ??1InvalidCiphertext@CryptoPP@@UEAA@XZ 0000000140042c80 f i cryptopp-static:cryptlib.cpp.obj
 0001:00041c80       ??1InputRejected@?$InputRejecting@VFilter@CryptoPP@@@CryptoPP@@UEAA@XZ 0000000140042c80 f i main.obj
 0001:00041c80       ??1InputRejected@?$InputRejecting@VBufferedTransformation@CryptoPP@@@CryptoPP@@UEAA@XZ 0000000140042c80 f i main.obj
 0001:00041c80       ??1InvalidKeyLength@CryptoPP@@UEAA@XZ 0000000140042c80 f i cryptopp-static:cryptlib.cpp.obj
 0001:00041c80       ??1InvalidDataFormat@CryptoPP@@UEAA@XZ 0000000140042c80 f i cryptopp-static:cryptlib.cpp.obj
 0001:00041c80       ??1ParameterNotUsed@AlgorithmParametersBase@CryptoPP@@UEAA@XZ 0000000140042c80 f i main.obj
 0001:00041c80       ??1HashInputTooLong@CryptoPP@@UEAA@XZ 0000000140042c80 f i cryptopp-static:iterhash.cpp.obj
 0001:00041c80       ??1BERDecodeErr@CryptoPP@@UEAA@XZ 0000000140042c80 f i cryptopp-static:integer.cpp.obj
 0001:00041c80       ??1SelfTestFailure@CryptoPP@@UEAA@XZ 0000000140042c80 f i cryptopp-static:cryptlib.cpp.obj
 0001:00041c80       ??1BlockingInputOnly@BufferedTransformation@CryptoPP@@UEAA@XZ 0000000140042c80 f i cryptopp-static:filters.cpp.obj
 0001:00041c80       ??1CannotFlush@CryptoPP@@UEAA@XZ 0000000140042c80 f i main.obj
 0001:00041c80       ??1OS_RNG_Err@CryptoPP@@UEAA@XZ 0000000140042c80 f i cryptopp-static:osrng.cpp.obj
 0001:00041c80       ??1ValueTypeMismatch@NameValuePairs@CryptoPP@@UEAA@XZ 0000000140042c80 f i main.obj
 0001:00041c80       ??1NoChannelSupport@BufferedTransformation@CryptoPP@@UEAA@XZ 0000000140042c80 f i cryptopp-static:cryptlib.cpp.obj
 0001:00041c80       ??1NotImplemented@CryptoPP@@UEAA@XZ 0000000140042c80 f i main.obj
 0001:00041c90       ??0NotImplemented@CryptoPP@@QEAA@AEBV?$basic_string@DU?$char_traits@D@std@@V?$allocator@D@2@@std@@@Z 0000000140042c90 f i main.obj
 0001:00041ce0       ??0CannotFlush@CryptoPP@@QEAA@AEBV?$basic_string@DU?$char_traits@D@std@@V?$allocator@D@2@@std@@@Z 0000000140042ce0 f i main.obj
 0001:00041d30       ??1NameValuePairs@CryptoPP@@UEAA@XZ 0000000140042d30 f i main.obj
 0001:00041d30       ??1CombinedNameValuePairs@CryptoPP@@UEAA@XZ 0000000140042d30 f i cryptopp-static:base64.cpp.obj
 0001:00041d40       ??0ValueTypeMismatch@NameValuePairs@CryptoPP@@QEAA@AEBV?$basic_string@DU?$char_traits@D@std@@V?$allocator@D@2@@std@@AEBVtype_info@@1@Z 0000000140042d40 f i main.obj
 0001:00042220       ?ThrowIfTypeMismatch@NameValuePairs@CryptoPP@@SAXPEBDAEBVtype_info@@1@Z 0000000140043220 f i main.obj
 0001:000422b0       ??_ENameValuePairs@CryptoPP@@UEAAPEAXI@Z 00000001400432b0 f i * CIL library *:* CIL module *
 0001:000422b0       ??_ENullNameValuePairs@CryptoPP@@UEAAPEAXI@Z 00000001400432b0 f i cryptopp-static:cryptlib.cpp.obj
 0001:000422b0       ??_GNameValuePairs@CryptoPP@@UEAAPEAXI@Z 00000001400432b0 f i main.obj
 0001:000422b0       ??_GNullNameValuePairs@CryptoPP@@UEAAPEAXI@Z 00000001400432b0 f i cryptopp-static:cryptlib.cpp.obj
 0001:000422e0       ??_GValueTypeMismatch@NameValuePairs@CryptoPP@@UEAAPEAXI@Z 00000001400432e0 f i main.obj
 0001:000422e0       ??_EValueTypeMismatch@NameValuePairs@CryptoPP@@UEAAPEAXI@Z 00000001400432e0 f i * CIL library *:* CIL module *
 0001:00042320       ??0ValueTypeMismatch@NameValuePairs@CryptoPP@@QEAA@AEBV012@@Z 0000000140043320 f i main.obj
 0001:000423a0       ??0InvalidArgument@CryptoPP@@QEAA@AEBV01@@Z 00000001400433a0 f i main.obj
 0001:00042410       ??0Exception@CryptoPP@@QEAA@AEBV01@@Z 0000000140043410 f i main.obj
 0001:00042470       ?Clone@Clonable@CryptoPP@@UEBAPEAV12@XZ 0000000140043470 f i main.obj
 0001:000424c0       ??0NotImplemented@CryptoPP@@QEAA@AEBV01@@Z 00000001400434c0 f i main.obj
 0001:00042530       ?AlgorithmName@Algorithm@CryptoPP@@UEBA?AV?$basic_string@DU?$char_traits@D@std@@V?$allocator@D@2@@std@@XZ 0000000140043530 f i main.obj
 0001:00042580       ?AlgorithmProvider@Algorithm@CryptoPP@@UEBA?AV?$basic_string@DU?$char_traits@D@std@@V?$allocator@D@2@@std@@XZ 0000000140043580 f i main.obj
 0001:000425d0       ?IsValidKeyLength@SimpleKeyingInterface@CryptoPP@@UEBA_N_K@Z 00000001400435d0 f i main.obj
 0001:000425f0       ?Initialize@BufferedTransformation@CryptoPP@@UEAAXAEBVNameValuePairs@2@H@Z 00000001400435f0 f i cryptopp-static:cryptlib.cpp.obj
 0001:000425f0       ?MinIVLength@SimpleKeyingInterface@CryptoPP@@UEBAIXZ 00000001400435f0 f i main.obj
 0001:000425f0       ?MaxIVLength@SimpleKeyingInterface@CryptoPP@@UEBAIXZ 00000001400435f0 f i main.obj
 0001:00042600       ?Resynchronize@SimpleKeyingInterface@CryptoPP@@UEAAXPEBEH@Z 0000000140043600 f i main.obj
 0001:00042670       ?CPU_ProbeSSE2@CryptoPP@@YA_NXZ 0000000140043670 f i cryptopp-static:sse_simd.cpp.obj
 0001:00042670       ?HasSSE2@CryptoPP@@YA_NXZ  0000000140043670 f i cryptopp-static:rijndael.cpp.obj
 0001:00042670       ?CanIncorporateEntropy@RandomPool@CryptoPP@@UEBA_NXZ 0000000140043670 f i main.obj
 0001:00042670       __acrt_uninitialize        0000000140043670 f i MSVCRT:ucrt_stubs.obj
 0001:00042670       ?IsForwardTransformation@?$BlockCipherFinal@$0A@VEnc@Rijndael@CryptoPP@@@CryptoPP@@UEBA_NXZ 0000000140043670 f i cryptopp-static:randpool.cpp.obj
 0001:00042670       _should_initialize_environment 0000000140043670 f i MSVCRT:env_mode.obj
 0001:00042670       __scrt_stub_for_acrt_initialize 0000000140043670 f i MSVCRT:ucrt_stubs.obj
 0001:00042670       __scrt_stub_for_acrt_uninitialize 0000000140043670 f i MSVCRT:ucrt_stubs.obj
 0001:00042670       __vcrt_uninitialize        0000000140043670 f i MSVCRT:ucrt_stubs.obj
 0001:00042670       __acrt_initialize          0000000140043670 f i MSVCRT:ucrt_stubs.obj
 0001:00042670       ?ShouldPropagateMessageEnd@Filter@CryptoPP@@MEBA_NXZ 0000000140043670 f i main.obj
 0001:00042670       ?ShouldPropagateMessageSeriesEnd@Filter@CryptoPP@@MEBA_NXZ 0000000140043670 f i main.obj
 0001:00042670       ?Attachable@Filter@CryptoPP@@UEAA_NXZ 0000000140043670 f i main.obj
 0001:00042670       __vcrt_initialize          0000000140043670 f i MSVCRT:ucrt_stubs.obj
 0001:00042670       ?IsPermutation@BlockTransformation@CryptoPP@@UEBA_NXZ 0000000140043670 f i main.obj
 0001:00042680       ?GetByteOrder@?$IteratedHash@IU?$EnumToType@W4ByteOrder@CryptoPP@@$00@CryptoPP@@$0EA@VHashTransformation@2@@CryptoPP@@UEBA?AW4ByteOrder@2@XZ 0000000140043680 f i cryptopp-static:integer.cpp.obj
 0001:00042680       ?OptimalNumberOfParallelBlocks@BlockTransformation@CryptoPP@@UEBAIXZ 0000000140043680 f i main.obj
 0001:00042680       _get_startup_argv_mode     0000000140043680 f i MSVCRT:argv_mode.obj
 0001:00042690       ?OptimalBlockSize@StreamTransformation@CryptoPP@@UEBAIXZ 0000000140043690 f i main.obj
 0001:000426a0       ?IsolatedMessageSeriesEnd@BufferedTransformation@CryptoPP@@UEAA_N_N@Z 00000001400436a0 f i main.obj
 0001:000426a0       ?IsolatedFlush@?$Unflushable@VFilter@CryptoPP@@@CryptoPP@@UEAA_N_N0@Z 00000001400436a0 f i main.obj
 0001:000426a0       ?CanModifyInput@BufferedTransformation@CryptoPP@@UEBA_NXZ 00000001400436a0 f i main.obj
 0001:000426a0       ?IsolatedFlush@?$Bufferless@VFilter@CryptoPP@@@CryptoPP@@UEAA_N_N0@Z 00000001400436a0 f i main.obj
 0001:000426a0       ?IsolatedFlush@?$CustomFlushPropagation@VSink@CryptoPP@@@CryptoPP@@EEAA_N_N0@Z 00000001400436a0 f i cryptopp-static:filters.cpp.obj
 0001:000426a0       ?GetVoidValue@NullNameValuePairs@CryptoPP@@UEBA_NPEBDAEBVtype_info@@PEAX@Z 00000001400436a0 f i cryptopp-static:cryptlib.cpp.obj
 0001:000426a0       ?IsolatedFlush@?$InputRejecting@VFilter@CryptoPP@@@CryptoPP@@UEAA_N_N0@Z 00000001400436a0 f i main.obj
 0001:000426a0       ?IsLastBlockSpecial@StreamTransformation@CryptoPP@@UEBA_NXZ 00000001400436a0 f i main.obj
 0001:000426a0       ?CanIncorporateEntropy@RandomNumberGenerator@CryptoPP@@UEBA_NXZ 00000001400436a0 f i cryptopp-static:cryptlib.cpp.obj
 0001:000426a0       ?IsRandomAccess@BlockOrientedCipherModeBase@CryptoPP@@UEBA_NXZ 00000001400436a0 f i main.obj
 0001:000426a0       ?PowerUpSelfTestInProgressOnThisThread@CryptoPP@@YA_NXZ 00000001400436a0 f i cryptopp-static:fips140.cpp.obj
 0001:000426a0       ?_Has_deferred_function@?$_Associated_state@H@std@@EEBA_NXZ 00000001400436a0 f i main.obj
 0001:000426a0       ?FIPS_140_2_ComplianceEnabled@CryptoPP@@YA_NXZ 00000001400436a0 f i cryptopp-static:fips140.cpp.obj
 0001:000426a0       ?Attachable@BufferedTransformation@CryptoPP@@UEAA_NXZ 00000001400436a0 f i main.obj
 0001:000426a0       ?do_always_noconv@?$codecvt_utf8@_W$0BAPPPP@$0A@@std@@MEBA_NXZ 00000001400436a0 f i main.obj
 0001:000426a0       ?GetNextMessageSeries@BufferedTransformation@CryptoPP@@UEAA_NXZ 00000001400436a0 f i main.obj
 0001:000426a0       ?IsolatedFlush@MessageQueue@CryptoPP@@UEAA_N_N0@Z 00000001400436a0 f i cryptopp-static:mqueue.cpp.obj
 0001:000426a0       ?IsolatedFlush@?$Bufferless@VSink@CryptoPP@@@CryptoPP@@UEAA_N_N0@Z 00000001400436a0 f i main.obj
 0001:000426a0       ?InputBufferIsEmpty@?$Unflushable@VFilter@CryptoPP@@@CryptoPP@@MEBA_NXZ 00000001400436a0 f i main.obj
 0001:000426a0       ?IsSelfInverting@BlockOrientedCipherModeBase@CryptoPP@@UEBA_NXZ 00000001400436a0 f i main.obj
 0001:000426a0       ?IsForwardTransformation@?$BlockCipherFinal@$00VDec@Rijndael@CryptoPP@@@CryptoPP@@UEBA_NXZ 00000001400436a0 f i main.obj
 0001:000426a0       ?IsolatedFlush@?$InputRejecting@VBufferedTransformation@CryptoPP@@@CryptoPP@@UEAA_N_N0@Z 00000001400436a0 f i main.obj
 0001:000426a0       ?IsolatedFlush@?$Bufferless@VBufferedTransformation@CryptoPP@@@CryptoPP@@UEAA_N_N0@Z 00000001400436a0 f i cryptopp-static:integer.cpp.obj
 0001:000426b0       ?Seek@StreamTransformation@CryptoPP@@UEAAX_K@Z 00000001400436b0 f i main.obj
 0001:00042700       ?_Get@?$_Func_impl_no_alloc@V<lambda_052e919cc0e5399df76dff3972c0cac1>@@E$$V@std@@EEBAPEBXXZ 0000000140043700 f i main.obj
 0001:00042700       ?_Get@?$_Func_impl_no_alloc@V<lambda_713ee8bbd6b08550d59c52695cab5ce3>@@X$$V@std@@EEBAPEBXXZ 0000000140043700 f i main.obj
 0001:00042700       ?_Get@?$_Func_impl_no_alloc@V<lambda_f25c37099038263181b5186a3fa41b37>@@X$$V@std@@EEBAPEBXXZ 0000000140043700 f i main.obj
 0001:00042700       ?_Get@?$_Func_impl_no_alloc@V<lambda_202dd44b79ed805f6289af950b2eac1c>@@X$$V@std@@EEBAPEBXXZ 0000000140043700 f i main.obj
 0001:00042700       ?GetAlgorithm@BlockCipher@CryptoPP@@MEBAAEBVAlgorithm@2@XZ 0000000140043700 f i main.obj
 0001:00042700       ?_Get@?$_Func_impl_no_alloc@V<lambda_763529b0c7473cbc215a52d189ac9b18>@@X$$V@std@@EEBAPEBXXZ 0000000140043700 f i main.obj
 0001:00042700       ?GetAlgorithm@SymmetricCipher@CryptoPP@@MEBAAEBVAlgorithm@2@XZ 0000000140043700 f i main.obj
 0001:00042700       ?_Get@?$_Func_impl_no_alloc@V?$_Fake_no_copy_callable_adapter@A6AX_N@Z_N@std@@X$$V@std@@EEBAPEBXXZ 0000000140043700 f i main.obj
 0001:00042710       ?CreatePutSpace@BufferedTransformation@CryptoPP@@UEAAPEAEAEA_K@Z 0000000140043710 f i main.obj
 0001:00042720       ?PutModifiable2@BufferedTransformation@CryptoPP@@UEAA_KPEAE_KH_N@Z 0000000140043720 f i main.obj
 0001:00042740       ?NumberOfMessagesInThisSeries@BufferedTransformation@CryptoPP@@UEBAIXZ 0000000140043740 f i main.obj
 0001:00042750       ?AttachedTransformation@BufferedTransformation@CryptoPP@@UEBAPEBV12@XZ 0000000140043750 f i main.obj
 0001:00042760       ?Detach@BufferedTransformation@CryptoPP@@UEAAXPEAV12@@Z 0000000140043760 f i main.obj
 0001:000427b0       ?IsolatedInitialize@Store@CryptoPP@@UEAAXAEBVNameValuePairs@2@@Z 00000001400437b0 f i main.obj
 0001:000427c0       ?NumberOfMessages@Store@CryptoPP@@UEBAIXZ 00000001400437c0 f i main.obj
 0001:000427d0       ?TransferTo2@Sink@CryptoPP@@UEAA_KAEAVBufferedTransformation@2@AEA_KAEBV?$basic_string@DU?$char_traits@D@std@@V?$allocator@D@2@@std@@_N@Z 00000001400437d0 f i main.obj
 0001:000427e0       ??0ParameterNotUsed@AlgorithmParametersBase@CryptoPP@@QEAA@PEBD@Z 00000001400437e0 f i main.obj
 0001:00042a50       ??1AlgorithmParametersBase@CryptoPP@@UEAA@XZ 0000000140043a50 f i main.obj
 0001:00042ae0       ??0AlgorithmParametersBase@CryptoPP@@QEAA@AEBV01@@Z 0000000140043ae0 f i main.obj
 0001:00042b60       ??_GAlgorithmParametersBase@CryptoPP@@UEAAPEAXI@Z 0000000140043b60 f i main.obj
 0001:00042b60       ??_EAlgorithmParametersBase@CryptoPP@@UEAAPEAXI@Z 0000000140043b60 f i * CIL library *:* CIL module *
 0001:00042ba0       ??0ParameterNotUsed@AlgorithmParametersBase@CryptoPP@@QEAA@AEBV012@@Z 0000000140043ba0 f i main.obj
 0001:00042c10       ??1CipherModeBase@CryptoPP@@UEAA@XZ 0000000140043c10 f i main.obj
 0001:00042c10       ??1ConstByteArrayParameter@CryptoPP@@QEAA@XZ 0000000140043c10 f i main.obj
 0001:00042c50       ?MinKeyLength@CipherModeBase@CryptoPP@@UEBA_KXZ 0000000140043c50 f i main.obj
 0001:00042c60       ?MaxKeyLength@CipherModeBase@CryptoPP@@UEBA_KXZ 0000000140043c60 f i main.obj
 0001:00042c70       ?DefaultKeyLength@CipherModeBase@CryptoPP@@UEBA_KXZ 0000000140043c70 f i main.obj
 0001:00042c80       ?GetValidKeyLength@CipherModeBase@CryptoPP@@UEBA_K_K@Z 0000000140043c80 f i main.obj
 0001:00042c90       ?IsValidKeyLength@CipherModeBase@CryptoPP@@UEBA_N_K@Z 0000000140043c90 f i main.obj
 0001:00042ca0       ?OptimalDataAlignment@CipherModeBase@CryptoPP@@UEBAIXZ 0000000140043ca0 f i main.obj
 0001:00042cb0       ?IVSize@CipherModeBase@CryptoPP@@UEBAIXZ 0000000140043cb0 f i main.obj
 0001:00042cc0       ?SetFeedbackSize@CipherModeBase@CryptoPP@@MEAAXI@Z 0000000140043cc0 f i main.obj
 0001:00042d30       ??1BlockOrientedCipherModeBase@CryptoPP@@UEAA@XZ 0000000140043d30 f i main.obj
 0001:00042db0       ?MandatoryBlockSize@BlockOrientedCipherModeBase@CryptoPP@@UEBAIXZ 0000000140043db0 f i main.obj
 0001:00042dc0       ?IsForwardTransformation@BlockOrientedCipherModeBase@CryptoPP@@UEBA_NXZ 0000000140043dc0 f i main.obj
 0001:00042dd0       ?Resynchronize@BlockOrientedCipherModeBase@CryptoPP@@UEAAXPEBEH@Z 0000000140043dd0 f i main.obj
 0001:00042e70       ?IVRequirement@CBC_ModeBase@CryptoPP@@UEBA?AW4IV_Requirement@SimpleKeyingInterface@2@XZ 0000000140043e70 f i main.obj
 0001:00042e80       ??1CBC_ModeBase@CryptoPP@@UEAA@XZ 0000000140043e80 f i main.obj
 0001:00042e90       ??1?$InputRejecting@VFilter@CryptoPP@@@CryptoPP@@UEAA@XZ 0000000140043e90 f i main.obj
 0001:00042e90       ??1Source@CryptoPP@@UEAA@XZ 0000000140043e90 f i main.obj
 0001:00042e90       ??1Filter@CryptoPP@@UEAA@XZ 0000000140043e90 f i main.obj
 0001:00042e90       ??1?$Unflushable@VFilter@CryptoPP@@@CryptoPP@@UEAA@XZ 0000000140043e90 f i main.obj
 0001:00042e90       ??1?$Bufferless@VFilter@CryptoPP@@@CryptoPP@@UEAA@XZ 0000000140043e90 f i main.obj
 0001:00042eb0       ??1FilterWithBufferedInput@CryptoPP@@UEAA@XZ 0000000140043eb0 f i main.obj
 0001:00042f20       ?Put2@FilterWithBufferedInput@CryptoPP@@UEAA_KPEBE_KH_N@Z 0000000140043f20 f i main.obj
 0001:00042f40       ?PutModifiable2@FilterWithBufferedInput@CryptoPP@@UEAA_KPEAE_KH_N@Z 0000000140043f40 f i main.obj
 0001:00042f60       ?DidFirstPut@FilterWithBufferedInput@CryptoPP@@MEBA_NXZ 0000000140043f60 f i main.obj
 0001:00042f70       ?GetFirstPutSize@FilterWithBufferedInput@CryptoPP@@MEBA_KXZ 0000000140043f70 f i main.obj
 0001:00042f80       ?GetBlockPutSize@FilterWithBufferedInput@CryptoPP@@MEBA_KXZ 0000000140043f80 f i main.obj
 0001:00042f90       ?GetLastPutSize@FilterWithBufferedInput@CryptoPP@@MEBA_KXZ 0000000140043f90 f i main.obj
 0001:00042fa0       ?InitializeDerivedAndReturnNewSizes@FilterWithBufferedInput@CryptoPP@@MEAAXAEBVNameValuePairs@2@AEA_K11@Z 0000000140043fa0 f i main.obj
 0001:00042fb0       ?NextPutModifiable@FilterWithBufferedInput@CryptoPP@@MEAAXPEAE_K@Z 0000000140043fb0 f i main.obj
 0001:00042fc0       ??_GFilterWithBufferedInput@CryptoPP@@UEAAPEAXI@Z 0000000140043fc0 f i main.obj
 0001:00042fc0       ??_EFilterWithBufferedInput@CryptoPP@@UEAAPEAXI@Z 0000000140043fc0 f i * CIL library *:* CIL module *
 0001:00043000       ??1BlockQueue@FilterWithBufferedInput@CryptoPP@@QEAA@XZ 0000000140044000 f i main.obj
 0001:00043040       ??_GProxyFilter@CryptoPP@@UEAAPEAXI@Z 0000000140044040 f i main.obj
 0001:00043040       ??_EProxyFilter@CryptoPP@@UEAAPEAXI@Z 0000000140044040 f i * CIL library *:* CIL module *
 0001:00043040       ??_EBase64Encoder@CryptoPP@@UEAAPEAXI@Z 0000000140044040 f i * CIL library *:* CIL module *
 0001:00043040       ??_GBase64Encoder@CryptoPP@@UEAAPEAXI@Z 0000000140044040 f i main.obj
 0001:000430b0       ?LastPut@SimpleProxyFilter@CryptoPP@@UEAAXPEBE_K@Z 00000001400440b0 f i main.obj
 0001:000430e0       ??1SimpleProxyFilter@CryptoPP@@UEAA@XZ 00000001400440e0 f i main.obj
 0001:00043130       ??_GStringStore@CryptoPP@@UEAAPEAXI@Z 0000000140044130 f i main.obj
 0001:00043130       ??_EStringStore@CryptoPP@@UEAAPEAXI@Z 0000000140044130 f i * CIL library *:* CIL module *
 0001:00043160       ??1AlgorithmParameters@CryptoPP@@UEAA@XZ 0000000140044160 f i main.obj
 0001:00043190       ??_G?$SourceTemplate@VStringStore@CryptoPP@@@CryptoPP@@UEAAPEAXI@Z 0000000140044190 f i main.obj
 0001:00043190       ??_EStringSource@CryptoPP@@UEAAPEAXI@Z 0000000140044190 f i * CIL library *:* CIL module *
 0001:00043190       ??_E?$SourceTemplate@VStringStore@CryptoPP@@@CryptoPP@@UEAAPEAXI@Z 0000000140044190 f i * CIL library *:* CIL module *
 0001:00043190       ??_GStringSource@CryptoPP@@UEAAPEAXI@Z 0000000140044190 f i main.obj
 0001:000431f0       ??1?$SourceTemplate@VStringStore@CryptoPP@@@CryptoPP@@UEAA@XZ 00000001400441f0 f i main.obj
 0001:000431f0       ??1StringSource@CryptoPP@@UEAA@XZ 00000001400441f0 f i main.obj
 0001:00043220       ??1AutoSeededRandomPool@CryptoPP@@UEAA@XZ 0000000140044220 f i main.obj
 0001:00043230       ??_GAutoSeededRandomPool@CryptoPP@@UEAAPEAXI@Z 0000000140044230 f i main.obj
 0001:00043230       ??_EAutoSeededRandomPool@CryptoPP@@UEAAPEAXI@Z 0000000140044230 f i * CIL library *:* CIL module *
 0001:00043270       ??1RandomPool@CryptoPP@@UEAA@XZ 0000000140044270 f i main.obj
 0001:000432f0       ??1?$FixedSizeAlignedSecBlock@E$0BA@$00@CryptoPP@@QEAA@XZ 00000001400442f0 f i main.obj
 0001:00043320       ??1?$FixedSizeAlignedSecBlock@E$0CA@$00@CryptoPP@@QEAA@XZ 0000000140044320 f i main.obj
 0001:00043350       ??_EBaseN_Encoder@CryptoPP@@UEAAPEAXI@Z 0000000140044350 f i * CIL library *:* CIL module *
 0001:00043350       ??_GBaseN_Encoder@CryptoPP@@UEAAPEAXI@Z 0000000140044350 f i main.obj
 0001:000433d0       ??0BaseN_Decoder@CryptoPP@@QEAA@PEBHHPEAVBufferedTransformation@1@@Z 00000001400443d0 f i main.obj
 0001:00043550       ??_GBaseN_Decoder@CryptoPP@@UEAAPEAXI@Z 0000000140044550 f i main.obj
 0001:00043550       ??_EBase64Decoder@CryptoPP@@UEAAPEAXI@Z 0000000140044550 f i * CIL library *:* CIL module *
 0001:00043550       ??_GBase64Decoder@CryptoPP@@UEAAPEAXI@Z 0000000140044550 f i main.obj
 0001:00043550       ??_EBaseN_Decoder@CryptoPP@@UEAAPEAXI@Z 0000000140044550 f i * CIL library *:* CIL module *
 0001:000435d0       ??_GGrouper@CryptoPP@@UEAAPEAXI@Z 00000001400445d0 f i main.obj
 0001:000435d0       ??_EGrouper@CryptoPP@@UEAAPEAXI@Z 00000001400445d0 f i * CIL library *:* CIL module *
 0001:00043680       ??0Base64Encoder@CryptoPP@@QEAA@PEAVBufferedTransformation@1@_NH@Z 0000000140044680 f i main.obj
 0001:000438b0       ?finish@hash256_one_by_one@picosha2@@QEAAXXZ 00000001400448b0 f i main.obj
 0001:00043a70       ?_AtlInitializeCriticalSectionEx@ATL@@YAHPEAU_RTL_CRITICAL_SECTION@@KK@Z 0000000140044a70 f i main.obj
 0001:00043a80       ??1_bstr_t@@QEAA@XZ        0000000140044a80 f i main.obj
 0001:00043af0       ?distribucaoint@@YAHHH@Z   0000000140044af0 f   main.obj
 0001:00043c00       ?get_key_name_by_id@@YA?AV?$basic_string@DU?$char_traits@D@std@@V?$allocator@D@2@@std@@H@Z 0000000140044c00 f   main.obj
 0001:000453e0       ??1?$pair@$$CBHV?$basic_string@DU?$char_traits@D@std@@V?$allocator@D@2@@std@@@std@@QEAA@XZ 00000001400463e0 f i main.obj
 0001:00045450       ??1?$_Hash@V?$_Umap_traits@HV?$basic_string@DU?$char_traits@D@std@@V?$allocator@D@2@@std@@V?$_Uhash_compare@HU?$hash@H@std@@U?$equal_to@H@2@@2@V?$allocator@U?$pair@$$CBHV?$basic_string@DU?$char_traits@D@std@@V?$allocator@D@2@@std@@@std@@@2@$0A@@std@@@std@@QEAA@XZ 0000000140046450 f i main.obj
 0001:000454c0       ?getWmiQueryResult@@YA?AUWmiQueryResult@@V?$basic_string@_WU?$char_traits@_W@std@@V?$allocator@_W@2@@std@@0_N@Z 00000001400464c0 f   main.obj
 0001:00046480       ??1WmiQueryResult@@QEAA@XZ 0000000140047480 f i main.obj
 0001:000464f0       ?MouseMove@@YAXHH@Z        00000001400474f0 f   main.obj
 0001:000465b0       ?GetActiveWindowTitle@@YA?AV?$basic_string@DU?$char_traits@D@std@@V?$allocator@D@2@@std@@XZ 00000001400475b0 f   main.obj
 0001:00046650       ?what@exception@detail@nlohmann@@UEBAPEBDXZ 0000000140047650 f i main.obj
 0001:00046670       ?name@exception@detail@nlohmann@@KA?AV?$basic_string@DU?$char_traits@D@std@@V?$allocator@D@2@@std@@AEBV45@H@Z 0000000140047670 f i main.obj
 0001:00046900       ??_Gout_of_range@detail@nlohmann@@UEAAPEAXI@Z 0000000140047900 f i main.obj
 0001:00046900       ??_Eother_error@detail@nlohmann@@UEAAPEAXI@Z 0000000140047900 f i * CIL library *:* CIL module *
 0001:00046900       ??_Etype_error@detail@nlohmann@@UEAAPEAXI@Z 0000000140047900 f i * CIL library *:* CIL module *
 0001:00046900       ??_Eout_of_range@detail@nlohmann@@UEAAPEAXI@Z 0000000140047900 f i * CIL library *:* CIL module *
 0001:00046900       ??_Einvalid_iterator@detail@nlohmann@@UEAAPEAXI@Z 0000000140047900 f i * CIL library *:* CIL module *
 0001:00046900       ??_Gtype_error@detail@nlohmann@@UEAAPEAXI@Z 0000000140047900 f i main.obj
 0001:00046900       ??_Ginvalid_iterator@detail@nlohmann@@UEAAPEAXI@Z 0000000140047900 f i main.obj
 0001:00046900       ??_Eexception@detail@nlohmann@@UEAAPEAXI@Z 0000000140047900 f i * CIL library *:* CIL module *
 0001:00046900       ??_Gexception@detail@nlohmann@@UEAAPEAXI@Z 0000000140047900 f i main.obj
 0001:00046900       ??_Gother_error@detail@nlohmann@@UEAAPEAXI@Z 0000000140047900 f i main.obj
 0001:00046960       ?create@parse_error@detail@nlohmann@@SA?AV123@HAEBUposition_t@23@AEBV?$basic_string@DU?$char_traits@D@std@@V?$allocator@D@2@@std@@@Z 0000000140047960 f i main.obj
 0001:00046de0       ?position_string@parse_error@detail@nlohmann@@CA?AV?$basic_string@DU?$char_traits@D@std@@V?$allocator@D@2@@std@@AEBUposition_t@23@@Z 0000000140047de0 f i main.obj
 0001:00047120       ??1invalid_iterator@detail@nlohmann@@UEAA@XZ 0000000140048120 f i main.obj
 0001:00047120       ??1out_of_range@detail@nlohmann@@UEAA@XZ 0000000140048120 f i main.obj
 0001:00047120       ??1other_error@detail@nlohmann@@UEAA@XZ 0000000140048120 f i main.obj
 0001:00047120       ??1type_error@detail@nlohmann@@UEAA@XZ 0000000140048120 f i main.obj
 0001:00047120       ??1parse_error@detail@nlohmann@@UEAA@XZ 0000000140048120 f i main.obj
 0001:00047160       ??_Eparse_error@detail@nlohmann@@UEAAPEAXI@Z 0000000140048160 f i * CIL library *:* CIL module *
 0001:00047160       ??_Gparse_error@detail@nlohmann@@UEAAPEAXI@Z 0000000140048160 f i main.obj
 0001:000471c0       ?create@invalid_iterator@detail@nlohmann@@SA?AV123@HAEBV?$basic_string@DU?$char_traits@D@std@@V?$allocator@D@2@@std@@@Z 00000001400481c0 f i main.obj
 0001:000473c0       ?create@type_error@detail@nlohmann@@SA?AV123@HAEBV?$basic_string@DU?$char_traits@D@std@@V?$allocator@D@2@@std@@@Z 00000001400483c0 f i main.obj
 0001:000475b0       ?create@out_of_range@detail@nlohmann@@SA?AV123@HAEBV?$basic_string@DU?$char_traits@D@std@@V?$allocator@D@2@@std@@@Z 00000001400485b0 f i main.obj
 0001:000477a0       ?create@other_error@detail@nlohmann@@SA?AV123@HAEBV?$basic_string@DU?$char_traits@D@std@@V?$allocator@D@2@@std@@@Z 00000001400487a0 f i main.obj
 0001:000479a0       ?get_character@input_buffer_adapter@detail@nlohmann@@UEAAHXZ 00000001400489a0 f i main.obj
 0001:00047a00       ??_Ginput_buffer_adapter@detail@nlohmann@@UEAAPEAXI@Z 0000000140048a00 f i main.obj
 0001:00047a00       ??_EBitBucket@CryptoPP@@UEAAPEAXI@Z 0000000140048a00 f i cryptopp-static:cryptlib.cpp.obj
 0001:00047a00       ??_Einput_buffer_adapter@detail@nlohmann@@UEAAPEAXI@Z 0000000140048a00 f i * CIL library *:* CIL module *
 0001:00047a00       ??_GBitBucket@CryptoPP@@UEAAPEAXI@Z 0000000140048a00 f i cryptopp-static:cryptlib.cpp.obj
 0001:00047a30       ?grisu2_round@dtoa_impl@detail@nlohmann@@YAXPEADH_K111@Z 0000000140048a30 f i main.obj
 0001:00047b70       ?grisu2_digit_gen@dtoa_impl@detail@nlohmann@@YAXPEADAEAH1Udiyfp@123@22@Z 0000000140048b70 f i main.obj
 0001:00047f20       ?grisu2@dtoa_impl@detail@nlohmann@@YAXPEADAEAH1Udiyfp@123@22@Z 0000000140048f20 f i main.obj
 0001:00048260       ?format_buffer@dtoa_impl@detail@nlohmann@@YAPEADPEADHHHH@Z 0000000140049260 f i main.obj
 0001:000487a0       ?XOR@@YA?AV?$basic_string@DU?$char_traits@D@std@@V?$allocator@D@2@@std@@V12@0@Z 00000001400497a0 f   main.obj
 0001:00048900       ?concatenateHwid@@YAXV?$basic_string@_WU?$char_traits@_W@std@@V?$allocator@_W@2@@std@@0@Z 0000000140049900 f   main.obj
 0001:00048f50       ?mouse_callback@@YA_JH_K_J@Z 0000000140049f50 f   main.obj
 0001:00049010       ??_D?$basic_ifstream@DU?$char_traits@D@std@@@std@@QEAAXXZ 000000014004a010 f i main.obj
 0001:00049080       ?AutoPot@@YAHXZ            000000014004a080 f   main.obj
 0001:000492e0       ?IsProcessElevated@@YAHXZ  000000014004a2e0 f   main.obj
 0001:00049350       ?testeTeclado@@YA_JH_K_J@Z 000000014004a350 f   main.obj
 0001:00049510       ?HULK@@YAHXZ               000000014004a510 f   main.obj
 0001:00049590       ?HULK_kb@@YAHXZ            000000014004a590 f   main.obj
 0001:00049610       ?loadconfig@@YAXXZ         000000014004a610 f   main.obj
 0001:0004bbd0       ??_D?$basic_stringstream@DU?$char_traits@D@std@@V?$allocator@D@2@@std@@QEAAXXZ 000000014004cbd0 f i main.obj
 0001:0004bc30       ?saveconfig@@YAX_N@Z       000000014004cc30 f   main.obj
 0001:0004f350       ?load_soundsource_from_resource@@YAPEAVISoundSource@irrklang@@PEAVISoundEngine@2@HPEAD@Z 0000000140050350 f   main.obj
 0001:0004f410       ?TimerThread@@YAHXZ        0000000140050410 f   main.obj
 0001:000501e0       ?ClickThread@@YAHXZ        00000001400511e0 f   main.obj
 0001:000505c0       ?ClickThread2@@YAHXZ       00000001400515c0 f   main.obj
 0001:000538e0       ??1?$CipherModeFinalTemplate_CipherHolder@V?$BlockCipherFinal@$00VDec@Rijndael@CryptoPP@@@CryptoPP@@VCBC_Decryption@2@@CryptoPP@@UEAA@XZ 00000001400548e0 f i main.obj
 0001:00053940       ??_D?$basic_ofstream@DU?$char_traits@D@std@@@std@@QEAAXXZ 0000000140054940 f i main.obj
 0001:000539b0       ??_D?$basic_ostringstream@DU?$char_traits@D@std@@V?$allocator@D@2@@std@@QEAAXXZ 00000001400549b0 f i main.obj
 0001:00053a10       ??_D?$basic_istringstream@DU?$char_traits@D@std@@V?$allocator@D@2@@std@@QEAAXXZ 0000000140054a10 f i main.obj
 0001:00053a70       ??1?$ObjectHolder@V?$BlockCipherFinal@$00VDec@Rijndael@CryptoPP@@@CryptoPP@@@CryptoPP@@QEAA@XZ 0000000140054a70 f i main.obj
 0001:00053a80       ??1?$AlgorithmImpl@VCBC_Decryption@CryptoPP@@V?$CipherModeFinalTemplate_CipherHolder@V?$BlockCipherFinal@$00VDec@Rijndael@CryptoPP@@@CryptoPP@@VCBC_Decryption@2@@2@@CryptoPP@@UEAA@XZ 0000000140054a80 f i main.obj
 0001:00053ad0       ??1Base@Rijndael@CryptoPP@@UEAA@XZ 0000000140054ad0 f i main.obj
 0001:00053b60       ?windowCloseCallback@@YAXPEAUGLFWwindow@@@Z 0000000140054b60 f   main.obj
 0001:00053b70       main                       0000000140054b70 f   main.obj
 0001:0005ebf0       ??0?$basic_ostringstream@DU?$char_traits@D@std@@V?$allocator@D@2@@std@@QEAA@XZ 000000014005fbf0 f i main.obj
 0001:0005eca0       ?AlgorithmProvider@?$CipherModeFinalTemplate_CipherHolder@V?$BlockCipherFinal@$00VDec@Rijndael@CryptoPP@@@CryptoPP@@VCBC_Decryption@2@@CryptoPP@@UEBA?AV?$basic_string@DU?$char_traits@D@std@@V?$allocator@D@2@@std@@XZ 000000014005fca0 f i main.obj
 0001:0005ecc0       ?AlgorithmName@?$AlgorithmImpl@VCBC_Decryption@CryptoPP@@V?$CipherModeFinalTemplate_CipherHolder@V?$BlockCipherFinal@$00VDec@Rijndael@CryptoPP@@@CryptoPP@@VCBC_Decryption@2@@2@@CryptoPP@@UEBA?AV?$basic_string@DU?$char_traits@D@std@@V?$allocator@D@2@@std@@XZ 000000014005fcc0 f i main.obj
 0001:0005ece0       ?Clone@?$ClonableImpl@V?$BlockCipherFinal@$00VDec@Rijndael@CryptoPP@@@CryptoPP@@VDec@Rijndael@2@@CryptoPP@@UEBAPEAVClonable@2@XZ 000000014005fce0 f i main.obj
 0001:0005edd0       ?seekpos@?$basic_stringbuf@DU?$char_traits@D@std@@V?$allocator@D@2@@std@@MEAA?AV?$fpos@U_Mbstatet@@@2@V32@H@Z 000000014005fdd0 f i main.obj
 0001:0005eec0       ?seekoff@?$basic_stringbuf@DU?$char_traits@D@std@@V?$allocator@D@2@@std@@MEAA?AV?$fpos@U_Mbstatet@@@2@_JHH@Z 000000014005fec0 f i main.obj
 0001:0005f020       ?underflow@?$basic_stringbuf@DU?$char_traits@D@std@@V?$allocator@D@2@@std@@MEAAHXZ 0000000140060020 f i main.obj
 0001:0005f090       ?pbackfail@?$basic_stringbuf@DU?$char_traits@D@std@@V?$allocator@D@2@@std@@MEAAHH@Z 0000000140060090 f i main.obj
 0001:0005f0f0       ?overflow@?$basic_stringbuf@DU?$char_traits@D@std@@V?$allocator@D@2@@std@@MEAAHH@Z 00000001400600f0 f i main.obj
 0001:0005f2a0       ??1?$basic_stringbuf@DU?$char_traits@D@std@@V?$allocator@D@2@@std@@UEAA@XZ 00000001400602a0 f i main.obj
 0001:0005f360       ?str@?$basic_stringstream@DU?$char_traits@D@std@@V?$allocator@D@2@@std@@QEBA?AV?$basic_string@DU?$char_traits@D@std@@V?$allocator@D@2@@2@XZ 0000000140060360 f i main.obj
 0001:0005f380       ??0?$basic_stringstream@DU?$char_traits@D@std@@V?$allocator@D@2@@std@@QEAA@XZ 0000000140060380 f i main.obj
 0001:0005f440       ?imbue@?$basic_filebuf@DU?$char_traits@D@std@@@std@@MEAAXAEBVlocale@2@@Z 0000000140060440 f i main.obj
 0001:0005f490       ?sync@?$basic_filebuf@DU?$char_traits@D@std@@@std@@MEAAHXZ 0000000140060490 f i main.obj
 0001:0005f4e0       ?setbuf@?$basic_filebuf@DU?$char_traits@D@std@@@std@@MEAAPEAV?$basic_streambuf@DU?$char_traits@D@std@@@2@PEAD_J@Z 00000001400604e0 f i main.obj
 0001:0005f5c0       ?seekpos@?$basic_filebuf@DU?$char_traits@D@std@@@std@@MEAA?AV?$fpos@U_Mbstatet@@@2@V32@H@Z 00000001400605c0 f i main.obj
 0001:0005f6a0       ?seekoff@?$basic_filebuf@DU?$char_traits@D@std@@@std@@MEAA?AV?$fpos@U_Mbstatet@@@2@_JHH@Z 00000001400606a0 f i main.obj
 0001:0005f780       ?xsputn@?$basic_filebuf@DU?$char_traits@D@std@@@std@@MEAA_JPEBD_J@Z 0000000140060780 f i main.obj
 0001:0005f860       ?xsgetn@?$basic_filebuf@DU?$char_traits@D@std@@@std@@MEAA_JPEAD_J@Z 0000000140060860 f i main.obj
 0001:0005f9d0       ?uflow@?$basic_filebuf@DU?$char_traits@D@std@@@std@@MEAAHXZ 00000001400609d0 f i main.obj
 0001:0005fca0       ?underflow@?$basic_filebuf@DU?$char_traits@D@std@@@std@@MEAAHXZ 0000000140060ca0 f i main.obj
 0001:0005fd10       ?pbackfail@?$basic_filebuf@DU?$char_traits@D@std@@@std@@MEAAHH@Z 0000000140060d10 f i main.obj
 0001:0005fe00       ?overflow@?$basic_filebuf@DU?$char_traits@D@std@@@std@@MEAAHH@Z 0000000140060e00 f i main.obj
 0001:0005ffa0       ?_Unlock@?$basic_filebuf@DU?$char_traits@D@std@@@std@@UEAAXXZ 0000000140060fa0 f i main.obj
 0001:0005ffc0       ?_Lock@?$basic_filebuf@DU?$char_traits@D@std@@@std@@UEAAXXZ 0000000140060fc0 f i main.obj
 0001:0005ffe0       ??1?$basic_filebuf@DU?$char_traits@D@std@@@std@@UEAA@XZ 0000000140060fe0 f i main.obj
 0001:00060050       ??1?$basic_ifstream@DU?$char_traits@D@std@@@std@@UEAA@XZ 0000000140061050 f i main.obj
 0001:000600b0       ??0?$basic_ifstream@DU?$char_traits@D@std@@@std@@QEAA@AEBV?$basic_string@DU?$char_traits@D@std@@V?$allocator@D@2@@1@HH@Z 00000001400610b0 f i main.obj
 0001:00060100       ??0?$basic_ifstream@DU?$char_traits@D@std@@@std@@QEAA@PEBDHH@Z 0000000140061100 f i main.obj
 0001:00060210       ?parse@?$basic_json@Vmap@std@@Vvector@2@V?$basic_string@DU?$char_traits@D@std@@V?$allocator@D@2@@2@_N_J_KNVallocator@2@Uadl_serializer@nlohmann@@@nlohmann@@SA?AV12@$$QEAVinput_adapter@detail@2@V?$function@$$A6A_NHW4parse_event_t@?$parser@V?$basic_json@Vmap@std@@Vvector@2@V?$basic_string@DU?$char_traits@D@std@@V?$allocator@D@2@@2@_N_J_KNVallocator@2@Uadl_serializer@nlohmann@@@nlohmann@@@detail@nlohmann@@AEAV?$basic_json@Vmap@std@@Vvector@2@V?$basic_string@DU?$char_traits@D@std@@V?$allocator@D@2@@2@_N_J_KNVallocator@2@Uadl_serializer@nlohmann@@@4@@Z@std@@_N@Z 0000000140061210 f i main.obj
 0001:000604d0       ?dump@?$basic_json@Vmap@std@@Vvector@2@V?$basic_string@DU?$char_traits@D@std@@V?$allocator@D@2@@2@_N_J_KNVallocator@2@Uadl_serializer@nlohmann@@@nlohmann@@QEBA?AV?$basic_string@DU?$char_traits@D@std@@V?$allocator@D@2@@std@@HD_NW4error_handler_t@detail@2@@Z 00000001400614d0 f i main.obj
 0001:00060780       ??1?$basic_json@Vmap@std@@Vvector@2@V?$basic_string@DU?$char_traits@D@std@@V?$allocator@D@2@@2@_N_J_KNVallocator@2@Uadl_serializer@nlohmann@@@nlohmann@@QEAA@XZ 0000000140061780 f i main.obj
 0001:000607a0       ??4?$basic_json@Vmap@std@@Vvector@2@V?$basic_string@DU?$char_traits@D@std@@V?$allocator@D@2@@2@_N_J_KNVallocator@2@Uadl_serializer@nlohmann@@@nlohmann@@QEAAAEAV01@V01@@Z 00000001400617a0 f i main.obj
 0001:00060810       ??0?$basic_json@Vmap@std@@Vvector@2@V?$basic_string@DU?$char_traits@D@std@@V?$allocator@D@2@@2@_N_J_KNVallocator@2@Uadl_serializer@nlohmann@@@nlohmann@@QEAA@$$T@Z 0000000140061810 f i main.obj
 0001:00060930       ?do_max_length@?$codecvt_utf8@_W$0BAPPPP@$0A@@std@@MEBAHXZ 0000000140061930 f i main.obj
 0001:00060940       ?do_length@?$codecvt_utf8@_W$0BAPPPP@$0A@@std@@MEBAHAEAU_Mbstatet@@PEBD1_K@Z 0000000140061940 f i main.obj
 0001:00060aa0       ?do_unshift@?$codecvt_utf8@_W$0BAPPPP@$0A@@std@@MEBAHAEAU_Mbstatet@@PEAD1AEAPEAD@Z 0000000140061aa0 f i main.obj
 0001:00060ab0       ?do_out@?$codecvt_utf8@_W$0BAPPPP@$0A@@std@@MEBAHAEAU_Mbstatet@@PEB_W1AEAPEB_WPEAD3AEAPEAD@Z 0000000140061ab0 f i main.obj
 0001:00060be0       ?do_in@?$codecvt_utf8@_W$0BAPPPP@$0A@@std@@MEBAHAEAU_Mbstatet@@PEBD1AEAPEBDPEA_W3AEAPEA_W@Z 0000000140061be0 f i main.obj
 0001:00060d40       ??1?$wstring_convert@V?$codecvt_utf8@_W$0BAPPPP@$0A@@std@@_WV?$allocator@_W@2@V?$allocator@D@2@@std@@UEAA@XZ 0000000140061d40 f i main.obj
 0001:00060e30       ??1?$_Hash_vec@V?$allocator@V?$_List_unchecked_iterator@V?$_List_val@U?$_List_simple_types@U?$pair@$$CBHV?$basic_string@DU?$char_traits@D@std@@V?$allocator@D@2@@std@@@std@@@std@@@std@@@std@@@std@@@std@@QEAA@XZ 0000000140061e30 f i main.obj
 0001:00060e90       ??1?$list@U?$pair@$$CBHV?$basic_string@DU?$char_traits@D@std@@V?$allocator@D@2@@std@@@std@@V?$allocator@U?$pair@$$CBHV?$basic_string@DU?$char_traits@D@std@@V?$allocator@D@2@@std@@@std@@@2@@std@@QEAA@XZ 0000000140061e90 f i main.obj
 0001:00060ec0       ?GetAutoSignalPropagation@?$SourceTemplate@VStringStore@CryptoPP@@@CryptoPP@@UEBAHXZ 0000000140061ec0 f i main.obj
 0001:00060ed0       ?SetAutoSignalPropagation@?$SourceTemplate@VStringStore@CryptoPP@@@CryptoPP@@UEAAXH@Z 0000000140061ed0 f i main.obj
 0001:00060ee0       ?SourceExhausted@?$SourceTemplate@VStringStore@CryptoPP@@@CryptoPP@@UEBA_NXZ 0000000140061ee0 f i main.obj
 0001:00060f20       ?PumpAll2@?$SourceTemplate@VStringStore@CryptoPP@@@CryptoPP@@UEAA_K_N@Z 0000000140061f20 f i main.obj
 0001:00060f60       ?PumpMessages2@?$SourceTemplate@VStringStore@CryptoPP@@@CryptoPP@@UEAA_KAEAI_N@Z 0000000140061f60 f i main.obj
 0001:00060fb0       ?Pump2@?$SourceTemplate@VStringStore@CryptoPP@@@CryptoPP@@UEAA_KAEA_K_N@Z 0000000140061fb0 f i main.obj
 0001:00061010       ?IsolatedInitialize@?$SourceTemplate@VStringStore@CryptoPP@@@CryptoPP@@UEAAXAEBVNameValuePairs@2@@Z 0000000140062010 f i main.obj
 0001:00061020       ??0?$SourceTemplate@VStringStore@CryptoPP@@@CryptoPP@@QEAA@PEAVBufferedTransformation@1@@Z 0000000140062020 f i main.obj
 0001:00061120       ?IsolatedMessageSeriesEnd@?$InputRejecting@VFilter@CryptoPP@@@CryptoPP@@UEAA_N_N@Z 0000000140062120 f i main.obj
 0001:00061120       ?Put2@?$InputRejecting@VFilter@CryptoPP@@@CryptoPP@@UEAA_KPEBE_KH_N@Z 0000000140062120 f i main.obj
 0001:00061120       ?ChannelPut2@?$InputRejecting@VFilter@CryptoPP@@@CryptoPP@@UEAA_KAEBV?$basic_string@DU?$char_traits@D@std@@V?$allocator@D@2@@std@@PEBE_KH_N@Z 0000000140062120 f i main.obj
 0001:00061120       ?ChannelMessageSeriesEnd@?$InputRejecting@VFilter@CryptoPP@@@CryptoPP@@UEAA_NAEBV?$basic_string@DU?$char_traits@D@std@@V?$allocator@D@2@@std@@H_N@Z 0000000140062120 f i main.obj
 0001:00061150       ?Put2@?$StringSinkTemplate@V?$basic_string@DU?$char_traits@D@std@@V?$allocator@D@2@@std@@@CryptoPP@@UEAA_KPEBE_KH_N@Z 0000000140062150 f i main.obj
 0001:000611e0       ?IsolatedInitialize@?$StringSinkTemplate@V?$basic_string@DU?$char_traits@D@std@@V?$allocator@D@2@@std@@@CryptoPP@@UEAAXAEBVNameValuePairs@2@@Z 00000001400621e0 f i main.obj
 0001:00061270       ?ChannelFlush@?$Unflushable@VFilter@CryptoPP@@@CryptoPP@@UEAA_NAEBV?$basic_string@DU?$char_traits@D@std@@V?$allocator@D@2@@std@@_NH1@Z 0000000140062270 f i main.obj
 0001:00061340       ?Flush@?$Unflushable@VFilter@CryptoPP@@@CryptoPP@@UEAA_N_NH0@Z 0000000140062340 f i main.obj
 0001:00061370       ?MoveInto@?$AlgorithmParametersTemplate@VConstByteArrayParameter@CryptoPP@@@CryptoPP@@UEBAXPEAX@Z 0000000140062370 f i main.obj
 0001:000613d0       ?AssignValue@?$AlgorithmParametersTemplate@VConstByteArrayParameter@CryptoPP@@@CryptoPP@@UEBAXPEBDAEBVtype_info@@PEAX@Z 00000001400623d0 f i main.obj
 0001:00061520       ?MoveInto@?$AlgorithmParametersTemplate@H@CryptoPP@@UEBAXPEAX@Z 0000000140062520 f i main.obj
 0001:00061560       ?AssignValue@?$AlgorithmParametersTemplate@H@CryptoPP@@UEBAXPEBDAEBVtype_info@@PEAX@Z 0000000140062560 f i main.obj
 0001:00061630       ?MoveInto@?$AlgorithmParametersTemplate@_N@CryptoPP@@UEBAXPEAX@Z 0000000140062630 f i main.obj
 0001:00061670       ?AssignValue@?$AlgorithmParametersTemplate@_N@CryptoPP@@UEBAXPEBDAEBVtype_info@@PEAX@Z 0000000140062670 f i main.obj
 0001:00061740       ?New@?$SecBlock@EV?$AllocatorWithCleanup@E$0A@@CryptoPP@@@CryptoPP@@QEAAX_K@Z 0000000140062740 f i main.obj
 0001:000617b0       ?Assign@?$SecBlock@EV?$AllocatorWithCleanup@E$0A@@CryptoPP@@@CryptoPP@@QEAAXPEBE_K@Z 00000001400627b0 f i main.obj
 0001:00061850       ??1?$SecBlock@EV?$AllocatorWithCleanup@E$0A@@CryptoPP@@@CryptoPP@@QEAA@XZ 0000000140062850 f i main.obj
 0001:00061880       ??1?$SecBlock@IV?$AllocatorWithCleanup@I$00@CryptoPP@@@CryptoPP@@QEAA@XZ 0000000140062880 f i main.obj
 0001:000618d0       ?MinKeyLength@?$SimpleKeyingInterfaceImpl@V?$TwoBases@VBlockCipher@CryptoPP@@URijndael_Info@2@@CryptoPP@@V12@@CryptoPP@@UEBA_KXZ 00000001400628d0 f i main.obj
 0001:000618d0       ?BlockSize@?$BlockCipherImpl@URijndael_Info@CryptoPP@@VBlockCipher@2@@CryptoPP@@UEBAIXZ 00000001400628d0 f i main.obj
 0001:000618d0       ?DefaultKeyLength@?$SimpleKeyingInterfaceImpl@V?$TwoBases@VBlockCipher@CryptoPP@@URijndael_Info@2@@CryptoPP@@V12@@CryptoPP@@UEBA_KXZ 00000001400628d0 f i main.obj
 0001:000618e0       ?AlgorithmName@?$AlgorithmImpl@V?$SimpleKeyingInterfaceImpl@V?$TwoBases@VBlockCipher@CryptoPP@@URijndael_Info@2@@CryptoPP@@V12@@CryptoPP@@V12@@CryptoPP@@UEBA?AV?$basic_string@DU?$char_traits@D@std@@V?$allocator@D@2@@std@@XZ 00000001400628e0 f i main.obj
 0001:00061930       ?OptimalDataAlignment@BlockTransformation@CryptoPP@@UEBAIXZ 0000000140062930 f i cryptopp-static:cryptlib.cpp.obj
 0001:00061930       ?OptimalDataAlignment@?$IteratedHashBase@IVHashTransformation@CryptoPP@@@CryptoPP@@UEBAIXZ 0000000140062930 f i cryptopp-static:integer.cpp.obj
 0001:00061930       ?IVRequirement@?$SimpleKeyingInterfaceImpl@V?$TwoBases@VBlockCipher@CryptoPP@@URijndael_Info@2@@CryptoPP@@V12@@CryptoPP@@UEBA?AW4IV_Requirement@SimpleKeyingInterface@2@XZ 0000000140062930 f i main.obj
 0001:00061940       ?GetValidKeyLength@?$SimpleKeyingInterfaceImpl@V?$TwoBases@VBlockCipher@CryptoPP@@URijndael_Info@2@@CryptoPP@@V12@@CryptoPP@@UEBA_K_K@Z 0000000140062940 f i main.obj
 0001:00061970       ?DigestSize@?$IteratedHashWithStaticTransform@IU?$EnumToType@W4ByteOrder@CryptoPP@@$00@CryptoPP@@$0EA@$0CA@VSHA256@2@$0CA@$00@CryptoPP@@UEBAIXZ 0000000140062970 f i cryptopp-static:randpool.cpp.obj
 0001:00061970       ?MaxKeyLength@?$SimpleKeyingInterfaceImpl@V?$TwoBases@VBlockCipher@CryptoPP@@URijndael_Info@2@@CryptoPP@@V12@@CryptoPP@@UEBA_KXZ 0000000140062970 f i main.obj
 0001:00061980       ?GetAutoSignalPropagation@?$AutoSignaling@V?$InputRejecting@VBufferedTransformation@CryptoPP@@@CryptoPP@@@CryptoPP@@UEBAHXZ 0000000140062980 f i main.obj
 0001:00061980       ?GetAutoSignalPropagation@?$AutoSignaling@VBufferedTransformation@CryptoPP@@@CryptoPP@@UEBAHXZ 0000000140062980 f i cryptopp-static:mqueue.cpp.obj
 0001:00061990       ?SetAutoSignalPropagation@?$AutoSignaling@VBufferedTransformation@CryptoPP@@@CryptoPP@@UEAAXH@Z 0000000140062990 f i cryptopp-static:mqueue.cpp.obj
 0001:00061990       ?SetAutoSignalPropagation@?$AutoSignaling@V?$InputRejecting@VBufferedTransformation@CryptoPP@@@CryptoPP@@@CryptoPP@@UEAAXH@Z 0000000140062990 f i main.obj
 0001:000619a0       ?IsolatedMessageSeriesEnd@?$InputRejecting@VBufferedTransformation@CryptoPP@@@CryptoPP@@UEAA_N_N@Z 00000001400629a0 f i main.obj
 0001:000619a0       ?ChannelMessageSeriesEnd@?$InputRejecting@VBufferedTransformation@CryptoPP@@@CryptoPP@@UEAA_NAEBV?$basic_string@DU?$char_traits@D@std@@V?$allocator@D@2@@std@@H_N@Z 00000001400629a0 f i main.obj
 0001:000619a0       ?ChannelPut2@?$InputRejecting@VBufferedTransformation@CryptoPP@@@CryptoPP@@UEAA_KAEBV?$basic_string@DU?$char_traits@D@std@@V?$allocator@D@2@@std@@PEBE_KH_N@Z 00000001400629a0 f i main.obj
 0001:000619a0       ?Put2@?$InputRejecting@VBufferedTransformation@CryptoPP@@@CryptoPP@@UEAA_KPEBE_KH_N@Z 00000001400629a0 f i main.obj
 0001:000619d0       ?_Do_notify@?$_Associated_state@H@std@@EEAAXPEAV?$unique_lock@Vmutex@std@@@2@_N@Z 00000001400629d0 f i main.obj
 0001:00061a30       ?_Get_value@?$_Associated_state@H@std@@UEAAAEAH_N@Z 0000000140062a30 f i main.obj
 0001:00061b70       ?_Wait@?$_Associated_state@H@std@@UEAAXXZ 0000000140062b70 f i main.obj
 0001:00061c20       ?_CancelAndRunContinuations@?$_Task_impl@E@details@Concurrency@@UEAA_N_N00AEBV?$shared_ptr@U_ExceptionHolder@details@Concurrency@@@std@@@Z 0000000140062c20 f i main.obj
 0001:00061e00       ?_CreateImpl@?$task@E@Concurrency@@QEAAXPEAV_CancellationTokenState@details@2@Uscheduler_ptr@2@@Z 0000000140062e00 f i main.obj
 0001:00062150       ?_Exec@?$_CancellationTokenCallback@V<lambda_be3e5d9dce35d2c8dbfa8485373731d5>@@@details@Concurrency@@MEAAXXZ 0000000140063150 f i main.obj
 0001:00062220       ??1?$vector@_NV?$allocator@_N@std@@@std@@QEAA@XZ 0000000140063220 f i main.obj
 0001:00062280       ??1?$unique_ptr@V_Facet_base@std@@U?$default_delete@V_Facet_base@std@@@2@@std@@QEAA@XZ 0000000140063280 f i main.obj
 0001:00062280       ??1?$unique_ptr@U_TaskProcHandle@details@Concurrency@@U?$default_delete@U_TaskProcHandle@details@Concurrency@@@std@@@std@@QEAA@XZ 0000000140063280 f i main.obj
 0001:00062280       ??1?$member_ptr@VBufferedTransformation@CryptoPP@@@CryptoPP@@QEAA@XZ 0000000140063280 f i main.obj
 0001:000622a0       ??1?$unique_ptr@V_PPLTaskChore@_DefaultPPLTaskScheduler@details@Concurrency@@U?$default_delete@V_PPLTaskChore@_DefaultPPLTaskScheduler@details@Concurrency@@@std@@@std@@QEAA@XZ 00000001400632a0 f i main.obj
 0001:000622d0       ??1?$lock_guard@Vmutex@std@@@std@@QEAA@XZ 00000001400632d0 f i main.obj
 0001:000622f0       ??1?$unique_lock@Vmutex@std@@@std@@QEAA@XZ 00000001400632f0 f i main.obj
 0001:00062320       ??B?$atomic@J@std@@QEBAJXZ 0000000140063320 f i main.obj
 0001:00062330       ?append@?$basic_string@_WU?$char_traits@_W@std@@V?$allocator@_W@2@@std@@QEAAAEAV12@QEB_W_K@Z 0000000140063330 f i main.obj
 0001:000624c0       ??0?$basic_string@_WU?$char_traits@_W@std@@V?$allocator@_W@2@@std@@QEAA@QEB_W@Z 00000001400634c0 f i main.obj
 0001:00062500       ?find@?$basic_string@DU?$char_traits@D@std@@V?$allocator@D@2@@std@@QEBA_KAEBV12@_K@Z 0000000140063500 f i main.obj
 0001:00062540       ?reserve@?$basic_string@DU?$char_traits@D@std@@V?$allocator@D@2@@std@@QEAAX_K@Z 0000000140063540 f i main.obj
 0001:000625f0       ?size@?$basic_string@DU?$char_traits@D@std@@V?$allocator@D@2@@std@@QEBA_KXZ 00000001400635f0 f i main.obj
 0001:00062600       ?_Myptr@?$_String_val@U?$_Simple_types@D@std@@@std@@QEBAPEBDXZ 0000000140063600 f i main.obj
 0001:00062600       ?c_str@?$basic_string@DU?$char_traits@D@std@@V?$allocator@D@2@@std@@QEBAPEBDXZ 0000000140063600 f i main.obj
 0001:00062610       ??A?$basic_string@DU?$char_traits@D@std@@V?$allocator@D@2@@std@@QEAAAEAD_K@Z 0000000140063610 f i main.obj
 0001:00062630       ?end@?$basic_string@DU?$char_traits@D@std@@V?$allocator@D@2@@std@@QEAA?AV?$_String_iterator@V?$_String_val@U?$_Simple_types@D@std@@@std@@@2@XZ 0000000140063630 f i main.obj
 0001:00062630       ?end@?$basic_string@DU?$char_traits@D@std@@V?$allocator@D@2@@std@@QEBA?AV?$_String_const_iterator@V?$_String_val@U?$_Simple_types@D@std@@@std@@@2@XZ 0000000140063630 f i main.obj
 0001:00062650       ?begin@?$basic_string@DU?$char_traits@D@std@@V?$allocator@D@2@@std@@QEAA?AV?$_String_iterator@V?$_String_val@U?$_Simple_types@D@std@@@std@@@2@XZ 0000000140063650 f i main.obj
 0001:00062650       ?begin@?$basic_string@DU?$char_traits@D@std@@V?$allocator@D@2@@std@@QEBA?AV?$_String_const_iterator@V?$_String_val@U?$_Simple_types@D@std@@@std@@@2@XZ 0000000140063650 f i main.obj
 0001:00062670       ?erase@?$basic_string@DU?$char_traits@D@std@@V?$allocator@D@2@@std@@QEAA?AV?$_String_iterator@V?$_String_val@U?$_Simple_types@D@std@@@std@@@2@V?$_String_const_iterator@V?$_String_val@U?$_Simple_types@D@std@@@std@@@2@0@Z 0000000140063670 f i main.obj
 0001:00062710       ?append@?$basic_string@DU?$char_traits@D@std@@V?$allocator@D@2@@std@@QEAAAEAV12@QEBD_K@Z 0000000140063710 f i main.obj
 0001:000627a0       ??Y?$basic_string@DU?$char_traits@D@std@@V?$allocator@D@2@@std@@QEAAAEAV01@AEBV01@@Z 00000001400637a0 f i main.obj
 0001:000627c0       ??4?$basic_string@DU?$char_traits@D@std@@V?$allocator@D@2@@std@@QEAAAEAV01@QEBD@Z 00000001400637c0 f i main.obj
 0001:000627e0       ??1?$basic_string@DU?$char_traits@D@std@@V?$allocator@D@2@@std@@QEAA@XZ 00000001400637e0 f i main.obj
 0001:000627e0       ?_Tidy_deallocate@?$basic_string@DU?$char_traits@D@std@@V?$allocator@D@2@@std@@AEAAXXZ 00000001400637e0 f i main.obj
 0001:00062840       ??4?$basic_string@DU?$char_traits@D@std@@V?$allocator@D@2@@std@@QEAAAEAV01@$$QEAV01@@Z 0000000140063840 f i main.obj
 0001:000628d0       ??0?$basic_string@DU?$char_traits@D@std@@V?$allocator@D@2@@std@@QEAA@_KD@Z 00000001400638d0 f i main.obj
 0001:00062900       ??0?$basic_string@DU?$char_traits@D@std@@V?$allocator@D@2@@std@@QEAA@QEBD@Z 0000000140063900 f i main.obj
 0001:00062940       ??0?$basic_string@DU?$char_traits@D@std@@V?$allocator@D@2@@std@@QEAA@AEBV01@@Z 0000000140063940 f i main.obj
 0001:00062a20       ??_E?$basic_istringstream@DU?$char_traits@D@std@@V?$allocator@D@2@@std@@UEAAPEAXI@Z 0000000140063a20 f i * CIL library *:* CIL module *
 0001:00062a20       ??_G?$basic_istringstream@DU?$char_traits@D@std@@V?$allocator@D@2@@std@@UEAAPEAXI@Z 0000000140063a20 f i main.obj
 0001:00062ac0       ??_G?$basic_ostringstream@DU?$char_traits@D@std@@V?$allocator@D@2@@std@@UEAAPEAXI@Z 0000000140063ac0 f i main.obj
 0001:00062ac0       ??_E?$basic_ostringstream@DU?$char_traits@D@std@@V?$allocator@D@2@@std@@UEAAPEAXI@Z 0000000140063ac0 f i * CIL library *:* CIL module *
 0001:00062b60       ??_E?$basic_ofstream@DU?$char_traits@D@std@@@std@@UEAAPEAXI@Z 0000000140063b60 f i * CIL library *:* CIL module *
 0001:00062b60       ??_G?$basic_ofstream@DU?$char_traits@D@std@@@std@@UEAAPEAXI@Z 0000000140063b60 f i main.obj
 0001:00062ba0       ??_G?$CipherModeFinalTemplate_CipherHolder@V?$BlockCipherFinal@$00VDec@Rijndael@CryptoPP@@@CryptoPP@@VCBC_Decryption@2@@CryptoPP@@UEAAPEAXI@Z 0000000140063ba0 f i main.obj
 0001:00062ba0       ??_E?$CipherModeFinalTemplate_CipherHolder@V?$BlockCipherFinal@$00VDec@Rijndael@CryptoPP@@@CryptoPP@@VCBC_Decryption@2@@CryptoPP@@UEAAPEAXI@Z 0000000140063ba0 f i * CIL library *:* CIL module *
 0001:00062c20       ??_E?$basic_stringbuf@DU?$char_traits@D@std@@V?$allocator@D@2@@std@@UEAAPEAXI@Z 0000000140063c20 f i * CIL library *:* CIL module *
 0001:00062c20       ??_G?$basic_stringbuf@DU?$char_traits@D@std@@V?$allocator@D@2@@std@@UEAAPEAXI@Z 0000000140063c20 f i main.obj
 0001:00062c60       ??_G?$basic_stringstream@DU?$char_traits@D@std@@V?$allocator@D@2@@std@@UEAAPEAXI@Z 0000000140063c60 f i main.obj
 0001:00062c60       ??_E?$basic_stringstream@DU?$char_traits@D@std@@V?$allocator@D@2@@std@@UEAAPEAXI@Z 0000000140063c60 f i * CIL library *:* CIL module *
 0001:00062d00       ??_G?$basic_filebuf@DU?$char_traits@D@std@@@std@@UEAAPEAXI@Z 0000000140063d00 f i main.obj
 0001:00062d00       ??_E?$basic_filebuf@DU?$char_traits@D@std@@@std@@UEAAPEAXI@Z 0000000140063d00 f i * CIL library *:* CIL module *
 0001:00062d40       ??_E?$basic_ifstream@DU?$char_traits@D@std@@@std@@UEAAPEAXI@Z 0000000140063d40 f i * CIL library *:* CIL module *
 0001:00062d40       ??_G?$basic_ifstream@DU?$char_traits@D@std@@@std@@UEAAPEAXI@Z 0000000140063d40 f i main.obj
 0001:00062d80       ??1?$parser@V?$basic_json@Vmap@std@@Vvector@2@V?$basic_string@DU?$char_traits@D@std@@V?$allocator@D@2@@2@_N_J_KNVallocator@2@Uadl_serializer@nlohmann@@@nlohmann@@@detail@nlohmann@@QEAA@XZ 0000000140063d80 f i main.obj
 0001:00062dc0       ??1?$serializer@V?$basic_json@Vmap@std@@Vvector@2@V?$basic_string@DU?$char_traits@D@std@@V?$allocator@D@2@@2@_N_J_KNVallocator@2@Uadl_serializer@nlohmann@@@nlohmann@@@detail@nlohmann@@QEAA@XZ 0000000140063dc0 f i main.obj
 0001:00062e70       ??_G?$codecvt_utf8@_W$0BAPPPP@$0A@@std@@UEAAPEAXI@Z 0000000140063e70 f i main.obj
 0001:00062e70       ??_E?$codecvt_utf8@_W$0BAPPPP@$0A@@std@@UEAAPEAXI@Z 0000000140063e70 f i * CIL library *:* CIL module *
 0001:00062eb0       ??_G?$wstring_convert@V?$codecvt_utf8@_W$0BAPPPP@$0A@@std@@_WV?$allocator@_W@2@V?$allocator@D@2@@std@@UEAAPEAXI@Z 0000000140063eb0 f i main.obj
 0001:00062eb0       ??_E?$wstring_convert@V?$codecvt_utf8@_W$0BAPPPP@$0A@@std@@_WV?$allocator@_W@2@V?$allocator@D@2@@std@@UEAAPEAXI@Z 0000000140063eb0 f i * CIL library *:* CIL module *
 0001:00062ef0       ??0InputRejected@?$InputRejecting@VFilter@CryptoPP@@@CryptoPP@@QEAA@AEBU012@@Z 0000000140063ef0 f i main.obj
 0001:00062f60       ??_G?$StringSinkTemplate@V?$basic_string@DU?$char_traits@D@std@@V?$allocator@D@2@@std@@@CryptoPP@@UEAAPEAXI@Z 0000000140063f60 f i main.obj
 0001:00062f60       ??_E?$StringSinkTemplate@V?$basic_string@DU?$char_traits@D@std@@V?$allocator@D@2@@std@@@CryptoPP@@UEAAPEAXI@Z 0000000140063f60 f i * CIL library *:* CIL module *
 0001:00062fa0       ??0CannotFlush@CryptoPP@@QEAA@AEBV01@@Z 0000000140063fa0 f i main.obj
 0001:00063010       ??0InputRejected@?$InputRejecting@VBufferedTransformation@CryptoPP@@@CryptoPP@@QEAA@AEBU012@@Z 0000000140064010 f i main.obj
 0001:00063080       ??_E?$_Associated_state@H@std@@UEAAPEAXI@Z 0000000140064080 f i * CIL library *:* CIL module *
 0001:00063080       ??_G?$_Associated_state@H@std@@UEAAPEAXI@Z 0000000140064080 f i main.obj
 0001:00063100       ??_E?$_Task_impl@E@details@Concurrency@@UEAAPEAXI@Z 0000000140064100 f i * CIL library *:* CIL module *
 0001:00063100       ??_G?$_Task_impl@E@details@Concurrency@@UEAAPEAXI@Z 0000000140064100 f i main.obj
 0001:000631b0       ??_G?$_CancellationTokenCallback@V<lambda_be3e5d9dce35d2c8dbfa8485373731d5>@@@details@Concurrency@@UEAAPEAXI@Z 00000001400641b0 f i main.obj
 0001:000631b0       ??_E?$_CancellationTokenCallback@V<lambda_be3e5d9dce35d2c8dbfa8485373731d5>@@@details@Concurrency@@UEAAPEAXI@Z 00000001400641b0 f i * CIL library *:* CIL module *
 0001:00063230       ??_G?$BlockCipherFinal@$0A@VEnc@Rijndael@CryptoPP@@@CryptoPP@@UEAAPEAXI@Z 0000000140064230 f i cryptopp-static:randpool.cpp.obj
 0001:00063230       ??_G?$BlockCipherFinal@$00VDec@Rijndael@CryptoPP@@@CryptoPP@@UEAAPEAXI@Z 0000000140064230 f i main.obj
 0001:00063230       ??_E?$BlockCipherFinal@$0A@VEnc@Rijndael@CryptoPP@@@CryptoPP@@UEAAPEAXI@Z 0000000140064230 f i cryptopp-static:randpool.cpp.obj
 0001:00063230       ??_E?$BlockCipherFinal@$00VDec@Rijndael@CryptoPP@@@CryptoPP@@UEAAPEAXI@Z 0000000140064230 f i * CIL library *:* CIL module *
 0001:00063270       ??1?$lexer@V?$basic_json@Vmap@std@@Vvector@2@V?$basic_string@DU?$char_traits@D@std@@V?$allocator@D@2@@2@_N_J_KNVallocator@2@Uadl_serializer@nlohmann@@@nlohmann@@@detail@nlohmann@@QEAA@XZ 0000000140064270 f i main.obj
 0001:00063360       ??_G?$AlgorithmParametersTemplate@VConstByteArrayParameter@CryptoPP@@@CryptoPP@@UEAAPEAXI@Z 0000000140064360 f i main.obj
 0001:00063360       ??_E?$AlgorithmParametersTemplate@VConstByteArrayParameter@CryptoPP@@@CryptoPP@@UEAAPEAXI@Z 0000000140064360 f i * CIL library *:* CIL module *
 0001:000633d0       ??_G?$AlgorithmParametersTemplate@PEBH@CryptoPP@@UEAAPEAXI@Z 00000001400643d0 f i main.obj
 0001:000633d0       ??_E?$AlgorithmParametersTemplate@PEBE@CryptoPP@@UEAAPEAXI@Z 00000001400643d0 f i cryptopp-static:base64.cpp.obj
 0001:000633d0       ??_G?$AlgorithmParametersTemplate@PEBE@CryptoPP@@UEAAPEAXI@Z 00000001400643d0 f i cryptopp-static:base64.cpp.obj
 0001:000633d0       ??_G?$AlgorithmParametersTemplate@_N@CryptoPP@@UEAAPEAXI@Z 00000001400643d0 f i main.obj
 0001:000633d0       ??_E?$AlgorithmParametersTemplate@_N@CryptoPP@@UEAAPEAXI@Z 00000001400643d0 f i * CIL library *:* CIL module *
 0001:000633d0       ??_E?$AlgorithmParametersTemplate@PEBH@CryptoPP@@UEAAPEAXI@Z 00000001400643d0 f i * CIL library *:* CIL module *
 0001:000633d0       ??_E?$AlgorithmParametersTemplate@E@CryptoPP@@UEAAPEAXI@Z 00000001400643d0 f i cryptopp-static:base64.cpp.obj
 0001:000633d0       ??_E?$AlgorithmParametersTemplate@W4BlockPaddingScheme@BlockPaddingSchemeDef@CryptoPP@@@CryptoPP@@UEAAPEAXI@Z 00000001400643d0 f i cryptopp-static:filters.cpp.obj
 0001:000633d0       ??_E?$AlgorithmParametersTemplate@H@CryptoPP@@UEAAPEAXI@Z 00000001400643d0 f i * CIL library *:* CIL module *
 0001:000633d0       ??_G?$AlgorithmParametersTemplate@H@CryptoPP@@UEAAPEAXI@Z 00000001400643d0 f i main.obj
 0001:000633d0       ??_G?$AlgorithmParametersTemplate@E@CryptoPP@@UEAAPEAXI@Z 00000001400643d0 f i cryptopp-static:base64.cpp.obj
 0001:000633d0       ??_G?$AlgorithmParametersTemplate@W4BlockPaddingScheme@BlockPaddingSchemeDef@CryptoPP@@@CryptoPP@@UEAAPEAXI@Z 00000001400643d0 f i cryptopp-static:filters.cpp.obj
 0001:00063410       ??0InputRejected@?$InputRejecting@VBufferedTransformation@CryptoPP@@@CryptoPP@@QEAA@XZ 0000000140064410 f i main.obj
 0001:00063540       ??0InputRejected@?$InputRejecting@VFilter@CryptoPP@@@CryptoPP@@QEAA@XZ 0000000140064540 f i main.obj
 0001:00063670       ?dump@?$serializer@V?$basic_json@Vmap@std@@Vvector@2@V?$basic_string@DU?$char_traits@D@std@@V?$allocator@D@2@@2@_N_J_KNVallocator@2@Uadl_serializer@nlohmann@@@nlohmann@@@detail@nlohmann@@QEAAXAEBV?$basic_json@Vmap@std@@Vvector@2@V?$basic_string@DU?$char_traits@D@std@@V?$allocator@D@2@@2@_N_J_KNVallocator@2@Uadl_serializer@nlohmann@@@3@_N1II@Z 0000000140064670 f i main.obj
 0001:00064010       ?StaticAlgorithmName@?$CipherModeFinalTemplate_CipherHolder@V?$BlockCipherFinal@$00VDec@Rijndael@CryptoPP@@@CryptoPP@@VCBC_Decryption@2@@CryptoPP@@SA?AV?$basic_string@DU?$char_traits@D@std@@V?$allocator@D@2@@std@@XZ 0000000140065010 f i main.obj
 0001:00064190       ?str@?$basic_stringbuf@DU?$char_traits@D@std@@V?$allocator@D@2@@std@@QEBA?AV?$basic_string@DU?$char_traits@D@std@@V?$allocator@D@2@@2@XZ 0000000140065190 f i main.obj
 0001:00064230       ?_Reset_back@?$basic_filebuf@DU?$char_traits@D@std@@@std@@AEAAXXZ 0000000140065230 f i main.obj
 0001:00064260       ?_Endwrite@?$basic_filebuf@DU?$char_traits@D@std@@@std@@IEAA_NXZ 0000000140065260 f i main.obj
 0001:00064350       ?close@?$basic_filebuf@DU?$char_traits@D@std@@@std@@QEAAPEAV12@XZ 0000000140065350 f i main.obj
 0001:000643d0       ?open@?$basic_filebuf@DU?$char_traits@D@std@@@std@@QEAAPEAV12@PEBDHH@Z 00000001400653d0 f i main.obj
 0001:00064510       ??0?$basic_filebuf@DU?$char_traits@D@std@@@std@@QEAA@XZ 0000000140065510 f i main.obj
 0001:00064560       ?destroy@json_value@?$basic_json@Vmap@std@@Vvector@2@V?$basic_string@DU?$char_traits@D@std@@V?$allocator@D@2@@2@_N_J_KNVallocator@2@Uadl_serializer@nlohmann@@@nlohmann@@QEAAXW4value_t@detail@3@@Z 0000000140065560 f i main.obj
 0001:00064ac0       ?parse@?$parser@V?$basic_json@Vmap@std@@Vvector@2@V?$basic_string@DU?$char_traits@D@std@@V?$allocator@D@2@@2@_N_J_KNVallocator@2@Uadl_serializer@nlohmann@@@nlohmann@@@detail@nlohmann@@QEAAX_NAEAV?$basic_json@Vmap@std@@Vvector@2@V?$basic_string@DU?$char_traits@D@std@@V?$allocator@D@2@@2@_N_J_KNVallocator@2@Uadl_serializer@nlohmann@@@3@@Z 0000000140065ac0 f i main.obj
 0001:000650a0       ??8nlohmann@@YA_NAEBV?$basic_json@Vmap@std@@Vvector@2@V?$basic_string@DU?$char_traits@D@std@@V?$allocator@D@2@@2@_N_J_KNVallocator@2@Uadl_serializer@nlohmann@@@0@0@Z 00000001400660a0 f i main.obj
 0001:00065450       ?assert_invariant@?$basic_json@Vmap@std@@Vvector@2@V?$basic_string@DU?$char_traits@D@std@@V?$allocator@D@2@@2@_N_J_KNVallocator@2@Uadl_serializer@nlohmann@@@nlohmann@@AEBAXXZ 0000000140066450 f i main.obj
 0001:000654e0       ?to_bytes@?$wstring_convert@V?$codecvt_utf8@_W$0BAPPPP@$0A@@std@@_WV?$allocator@_W@2@V?$allocator@D@2@@std@@QEAA?AV?$basic_string@DU?$char_traits@D@std@@V?$allocator@D@2@@2@PEB_W0@Z 00000001400664e0 f i main.obj
 0001:000658c0       ?_Tidy@?$vector@V?$basic_string@_WU?$char_traits@_W@std@@V?$allocator@_W@2@@std@@V?$allocator@V?$basic_string@_WU?$char_traits@_W@std@@V?$allocator@_W@2@@std@@@2@@std@@AEAAXXZ 00000001400668c0 f i main.obj
 0001:00065930       ??0?$SecBlock@EV?$AllocatorWithCleanup@E$0A@@CryptoPP@@@CryptoPP@@QEAA@AEBV01@@Z 0000000140066930 f i main.obj
 0001:000659e0       ?_Set_exception@?$_Associated_state@H@std@@QEAAXVexception_ptr@2@_N@Z 00000001400669e0 f i main.obj
 0001:00065ac0       ??4?$shared_ptr@U?$_Task_impl@E@details@Concurrency@@@std@@QEAAAEAV01@$$QEAV01@@Z 0000000140066ac0 f i main.obj
 0001:00065b40       ?_Buy_raw@?$vector@PEAXV?$allocator@PEAX@std@@@std@@AEAAX_K@Z 0000000140066b40 f i main.obj
 0001:00065bd0       ?assign@?$basic_string@_WU?$char_traits@_W@std@@V?$allocator@_W@2@@std@@QEAAAEAV12@QEB_W_K@Z 0000000140066bd0 f i main.obj
 0001:00065d00       ?append@?$basic_string@_WU?$char_traits@_W@std@@V?$allocator@_W@2@@std@@QEAAAEAV12@_K_W@Z 0000000140066d00 f i main.obj
 0001:00065e80       ?_Tidy_init@?$basic_string@DU?$char_traits@D@std@@V?$allocator@D@2@@std@@AEAAXXZ 0000000140066e80 f i main.obj
 0001:00065ea0       ?resize@?$basic_string@DU?$char_traits@D@std@@V?$allocator@D@2@@std@@QEAAX_KD@Z 0000000140066ea0 f i main.obj
 0001:00065f40       ?assign@?$basic_string@DU?$char_traits@D@std@@V?$allocator@D@2@@std@@QEAAAEAV12@_KD@Z 0000000140066f40 f i main.obj
 0001:000660b0       ?assign@?$basic_string@DU?$char_traits@D@std@@V?$allocator@D@2@@std@@QEAAAEAV12@QEBD_K@Z 00000001400670b0 f i main.obj
 0001:00066210       ?_Move_assign@?$basic_string@DU?$char_traits@D@std@@V?$allocator@D@2@@std@@AEAAXAEAV12@U_Equal_allocators@2@@Z 0000000140067210 f i main.obj
 0001:000662a0       ??0?$basic_string@DU?$char_traits@D@std@@V?$allocator@D@2@@std@@QEAA@AEBV01@_K1AEBV?$allocator@D@1@@Z 00000001400672a0 f i main.obj
 0001:00066300       ?allocate@?$allocator@D@std@@QEAAPEAD_K@Z 0000000140067300 f i main.obj
 0001:00066360       ?deallocate@?$allocator@D@std@@QEAAXQEAD_K@Z 0000000140067360 f i main.obj
 0001:000663a0       ??0parse_error@detail@nlohmann@@QEAA@AEBV012@@Z 00000001400673a0 f i main.obj
 0001:000663e0       ??0exception@detail@nlohmann@@QEAA@AEBV012@@Z 00000001400673e0 f i main.obj
 0001:00066460       ??1?$json_sax_dom_callback_parser@V?$basic_json@Vmap@std@@Vvector@2@V?$basic_string@DU?$char_traits@D@std@@V?$allocator@D@2@@2@_N_J_KNVallocator@2@Uadl_serializer@nlohmann@@@nlohmann@@@detail@nlohmann@@QEAA@XZ 0000000140067460 f i main.obj
 0001:000665a0       ?parse_error@?$json_sax_dom_parser@V?$basic_json@Vmap@std@@Vvector@2@V?$basic_string@DU?$char_traits@D@std@@V?$allocator@D@2@@2@_N_J_KNVallocator@2@Uadl_serializer@nlohmann@@@nlohmann@@@detail@nlohmann@@QEAA_N_KAEBV?$basic_string@DU?$char_traits@D@std@@V?$allocator@D@2@@std@@AEBVexception@23@@Z 00000001400675a0 f i main.obj
 0001:000666d0       ??1?$vector@PEAV?$basic_json@Vmap@std@@Vvector@2@V?$basic_string@DU?$char_traits@D@std@@V?$allocator@D@2@@2@_N_J_KNVallocator@2@Uadl_serializer@nlohmann@@@nlohmann@@V?$allocator@PEAV?$basic_json@Vmap@std@@Vvector@2@V?$basic_string@DU?$char_traits@D@std@@V?$allocator@D@2@@2@_N_J_KNVallocator@2@Uadl_serializer@nlohmann@@@nlohmann@@@std@@@std@@QEAA@XZ 00000001400676d0 f i main.obj
 0001:00066730       ?parse_error@?$json_sax_dom_callback_parser@V?$basic_json@Vmap@std@@Vvector@2@V?$basic_string@DU?$char_traits@D@std@@V?$allocator@D@2@@2@_N_J_KNVallocator@2@Uadl_serializer@nlohmann@@@nlohmann@@@detail@nlohmann@@QEAA_N_KAEBV?$basic_string@DU?$char_traits@D@std@@V?$allocator@D@2@@std@@AEBVexception@23@@Z 0000000140067730 f i main.obj
 0001:00066860       ??0?$json_sax_dom_callback_parser@V?$basic_json@Vmap@std@@Vvector@2@V?$basic_string@DU?$char_traits@D@std@@V?$allocator@D@2@@2@_N_J_KNVallocator@2@Uadl_serializer@nlohmann@@@nlohmann@@@detail@nlohmann@@QEAA@AEAV?$basic_json@Vmap@std@@Vvector@2@V?$basic_string@DU?$char_traits@D@std@@V?$allocator@D@2@@2@_N_J_KNVallocator@2@Uadl_serializer@nlohmann@@@2@V?$function@$$A6A_NHW4parse_event_t@?$parser@V?$basic_json@Vmap@std@@Vvector@2@V?$basic_string@DU?$char_traits@D@std@@V?$allocator@D@2@@2@_N_J_KNVallocator@2@Uadl_serializer@nlohmann@@@nlohmann@@@detail@nlohmann@@AEAV?$basic_json@Vmap@std@@Vvector@2@V?$basic_string@DU?$char_traits@D@std@@V?$allocator@D@2@@2@_N_J_KNVallocator@2@Uadl_serializer@nlohmann@@@4@@Z@std@@_N@Z 0000000140067860 f i main.obj
 0001:00066c90       ??0?$initializer_list@_K@std@@QEAA@PEB_K0@Z 0000000140067c90 f i main.obj
 0001:00066ca0       ?write_characters@?$output_string_adapter@DV?$basic_string@DU?$char_traits@D@std@@V?$allocator@D@2@@std@@@detail@nlohmann@@UEAAXPEBD_K@Z 0000000140067ca0 f i main.obj
 0001:00066cb0       ?write_character@?$output_string_adapter@DV?$basic_string@DU?$char_traits@D@std@@V?$allocator@D@2@@std@@@detail@nlohmann@@UEAAXD@Z 0000000140067cb0 f i main.obj
 0001:00066cf0       ?dump_escaped@?$serializer@V?$basic_json@Vmap@std@@Vvector@2@V?$basic_string@DU?$char_traits@D@std@@V?$allocator@D@2@@2@_N_J_KNVallocator@2@Uadl_serializer@nlohmann@@@nlohmann@@@detail@nlohmann@@AEAAXAEBV?$basic_string@DU?$char_traits@D@std@@V?$allocator@D@2@@std@@_N@Z 0000000140067cf0 f i main.obj
 0001:000671d0       ?push_back@?$vector@V?$basic_json@Vmap@std@@Vvector@2@V?$basic_string@DU?$char_traits@D@std@@V?$allocator@D@2@@2@_N_J_KNVallocator@2@Uadl_serializer@nlohmann@@@nlohmann@@V?$allocator@V?$basic_json@Vmap@std@@Vvector@2@V?$basic_string@DU?$char_traits@D@std@@V?$allocator@D@2@@2@_N_J_KNVallocator@2@Uadl_serializer@nlohmann@@@nlohmann@@@std@@@std@@QEAAX$$QEAV?$basic_json@Vmap@std@@Vvector@2@V?$basic_string@DU?$char_traits@D@std@@V?$allocator@D@2@@2@_N_J_KNVallocator@2@Uadl_serializer@nlohmann@@@nlohmann@@@Z 00000001400681d0 f i main.obj
 0001:00067250       ??0json_value@?$basic_json@Vmap@std@@Vvector@2@V?$basic_string@DU?$char_traits@D@std@@V?$allocator@D@2@@2@_N_J_KNVallocator@2@Uadl_serializer@nlohmann@@@nlohmann@@QEAA@W4value_t@detail@2@@Z 0000000140068250 f i main.obj
 0001:000673a0       ?exception_message@?$parser@V?$basic_json@Vmap@std@@Vvector@2@V?$basic_string@DU?$char_traits@D@std@@V?$allocator@D@2@@2@_N_J_KNVallocator@2@Uadl_serializer@nlohmann@@@nlohmann@@@detail@nlohmann@@AEAA?AV?$basic_string@DU?$char_traits@D@std@@V?$allocator@D@2@@std@@W4token_type@?$lexer@V?$basic_json@Vmap@std@@Vvector@2@V?$basic_string@DU?$char_traits@D@std@@V?$allocator@D@2@@2@_N_J_KNVallocator@2@Uadl_serializer@nlohmann@@@nlohmann@@@23@AEBV45@@Z 00000001400683a0 f i main.obj
 0001:00067c50       ?get_token@?$parser@V?$basic_json@Vmap@std@@Vvector@2@V?$basic_string@DU?$char_traits@D@std@@V?$allocator@D@2@@2@_N_J_KNVallocator@2@Uadl_serializer@nlohmann@@@nlohmann@@@detail@nlohmann@@AEAA?AW4token_type@?$lexer@V?$basic_json@Vmap@std@@Vvector@2@V?$basic_string@DU?$char_traits@D@std@@V?$allocator@D@2@@2@_N_J_KNVallocator@2@Uadl_serializer@nlohmann@@@nlohmann@@@23@XZ 0000000140068c50 f i main.obj
 0001:00067c70       ?get_token_string@?$lexer@V?$basic_json@Vmap@std@@Vvector@2@V?$basic_string@DU?$char_traits@D@std@@V?$allocator@D@2@@2@_N_J_KNVallocator@2@Uadl_serializer@nlohmann@@@nlohmann@@@detail@nlohmann@@QEBA?AV?$basic_string@DU?$char_traits@D@std@@V?$allocator@D@2@@std@@XZ 0000000140068c70 f i main.obj
 0001:00067df0       ?_Assign_grow@?$_Hash_vec@V?$allocator@V?$_List_unchecked_iterator@V?$_List_val@U?$_List_simple_types@U?$pair@$$CBHV?$basic_string@DU?$char_traits@D@std@@V?$allocator@D@2@@std@@@std@@@std@@@std@@@std@@@std@@@std@@QEAAX_KV?$_List_unchecked_iterator@V?$_List_val@U?$_List_simple_types@U?$pair@$$CBHV?$basic_string@DU?$char_traits@D@std@@V?$allocator@D@2@@std@@@std@@@std@@@std@@@2@@Z 0000000140068df0 f i main.obj
 0001:00067f20       ?_Xlength@?$vector@EV?$allocator@E@std@@@std@@CAXXZ 0000000140068f20 f i main.obj
 0001:00067f20       ?_Xlength@?$vector@V?$basic_string@_WU?$char_traits@_W@std@@V?$allocator@_W@2@@std@@V?$allocator@V?$basic_string@_WU?$char_traits@_W@std@@V?$allocator@_W@2@@std@@@2@@std@@CAXXZ 0000000140068f20 f i main.obj
 0001:00067f20       ?_Xlength@?$vector@PEAV?$basic_json@Vmap@std@@Vvector@2@V?$basic_string@DU?$char_traits@D@std@@V?$allocator@D@2@@2@_N_J_KNVallocator@2@Uadl_serializer@nlohmann@@@nlohmann@@V?$allocator@PEAV?$basic_json@Vmap@std@@Vvector@2@V?$basic_string@DU?$char_traits@D@std@@V?$allocator@D@2@@2@_N_J_KNVallocator@2@Uadl_serializer@nlohmann@@@nlohmann@@@std@@@std@@CAXXZ 0000000140068f20 f i main.obj
 0001:00067f20       ?_Xlength@?$vector@DV?$allocator@D@std@@@std@@CAXXZ 0000000140068f20 f i main.obj
 0001:00067f20       ?_Xlength@?$vector@IV?$allocator@I@std@@@std@@CAXXZ 0000000140068f20 f i main.obj
 0001:00067f20       ?_Xlength@?$vector@PEAXV?$allocator@PEAX@std@@@std@@CAXXZ 0000000140068f20 f i main.obj
 0001:00067f20       ?_Xlength@?$vector@V?$basic_json@Vmap@std@@Vvector@2@V?$basic_string@DU?$char_traits@D@std@@V?$allocator@D@2@@2@_N_J_KNVallocator@2@Uadl_serializer@nlohmann@@@nlohmann@@V?$allocator@V?$basic_json@Vmap@std@@Vvector@2@V?$basic_string@DU?$char_traits@D@std@@V?$allocator@D@2@@2@_N_J_KNVallocator@2@Uadl_serializer@nlohmann@@@nlohmann@@@std@@@std@@CAXXZ 0000000140068f20 f i main.obj
 0001:00067f40       ?allocate@?$AllocatorWithCleanup@I$00@CryptoPP@@QEAAPEAI_KPEBX@Z 0000000140068f40 f i main.obj
 0001:00067fe0       ?_Xlen@?$vector@_NV?$allocator@_N@std@@@std@@QEBAXXZ 0000000140068fe0 f i main.obj
 0001:00068000       ?deallocate@?$allocator@I@std@@QEAAXQEAI_K@Z 0000000140069000 f i main.obj
 0001:00068050       ?allocate@?$allocator@_W@std@@QEAAPEA_W_K@Z 0000000140069050 f i main.obj
 0001:000680c0       ??0out_of_range@detail@nlohmann@@QEAA@AEBV012@@Z 00000001400690c0 f i main.obj
 0001:000680f0       ??0invalid_iterator@detail@nlohmann@@QEAA@AEBV012@@Z 00000001400690f0 f i main.obj
 0001:00068120       ??0type_error@detail@nlohmann@@QEAA@AEBV012@@Z 0000000140069120 f i main.obj
 0001:00068150       ??0other_error@detail@nlohmann@@QEAA@AEBV012@@Z 0000000140069150 f i main.obj
 0001:00068180       ??E?$_Tree_unchecked_const_iterator@V?$_Tree_val@U?$_Tree_simple_types@U?$pair@$$CBV?$basic_string@DU?$char_traits@D@std@@V?$allocator@D@2@@std@@V?$basic_json@Vmap@std@@Vvector@2@V?$basic_string@DU?$char_traits@D@std@@V?$allocator@D@2@@2@_N_J_KNVallocator@2@Uadl_serializer@nlohmann@@@nlohmann@@@std@@@std@@@std@@U_Iterator_base0@2@@std@@QEAAAEAV01@XZ 0000000140069180 f i main.obj
 0001:000681f0       ?dump_float@?$serializer@V?$basic_json@Vmap@std@@Vvector@2@V?$basic_string@DU?$char_traits@D@std@@V?$allocator@D@2@@2@_N_J_KNVallocator@2@Uadl_serializer@nlohmann@@@nlohmann@@@detail@nlohmann@@AEAAXNU?$integral_constant@_N$00@std@@@Z 00000001400691f0 f i main.obj
 0001:00068420       ?_Tidy@?$vector@V?$basic_json@Vmap@std@@Vvector@2@V?$basic_string@DU?$char_traits@D@std@@V?$allocator@D@2@@2@_N_J_KNVallocator@2@Uadl_serializer@nlohmann@@@nlohmann@@V?$allocator@V?$basic_json@Vmap@std@@Vvector@2@V?$basic_string@DU?$char_traits@D@std@@V?$allocator@D@2@@2@_N_J_KNVallocator@2@Uadl_serializer@nlohmann@@@nlohmann@@@std@@@std@@AEAAXXZ 0000000140069420 f i main.obj
 0001:000684c0       ?_Destroy@?$vector@V?$basic_json@Vmap@std@@Vvector@2@V?$basic_string@DU?$char_traits@D@std@@V?$allocator@D@2@@2@_N_J_KNVallocator@2@Uadl_serializer@nlohmann@@@nlohmann@@V?$allocator@V?$basic_json@Vmap@std@@Vvector@2@V?$basic_string@DU?$char_traits@D@std@@V?$allocator@D@2@@2@_N_J_KNVallocator@2@Uadl_serializer@nlohmann@@@nlohmann@@@std@@@std@@AEAAXPEAV?$basic_json@Vmap@std@@Vvector@2@V?$basic_string@DU?$char_traits@D@std@@V?$allocator@D@2@@2@_N_J_KNVallocator@2@Uadl_serializer@nlohmann@@@nlohmann@@0@Z 00000001400694c0 f i main.obj
 0001:00068500       ?_Reallocate_exactly@?$vector@V?$basic_json@Vmap@std@@Vvector@2@V?$basic_string@DU?$char_traits@D@std@@V?$allocator@D@2@@2@_N_J_KNVallocator@2@Uadl_serializer@nlohmann@@@nlohmann@@V?$allocator@V?$basic_json@Vmap@std@@Vvector@2@V?$basic_string@DU?$char_traits@D@std@@V?$allocator@D@2@@2@_N_J_KNVallocator@2@Uadl_serializer@nlohmann@@@nlohmann@@@std@@@std@@AEAAX_K@Z 0000000140069500 f i main.obj
 0001:000685c0       ??$forward@AEBV?$_Fake_no_copy_callable_adapter@A6AX_N@Z_N@std@@@std@@YAAEBV?$_Fake_no_copy_callable_adapter@A6AX_N@Z_N@0@AEBV10@@Z 00000001400695c0 f i main.obj
 0001:000685c0       ??$move@AEAV?$tuple@P6AX_N@Z_N@std@@@std@@YA$$QEAV?$tuple@P6AX_N@Z_N@0@AEAV10@@Z 00000001400695c0 f i main.obj
 0001:000685c0       ?_Getal@?$_Tree@V?$_Tmap_traits@V?$basic_string@DU?$char_traits@D@std@@V?$allocator@D@2@@std@@V?$basic_json@Vmap@std@@Vvector@2@V?$basic_string@DU?$char_traits@D@std@@V?$allocator@D@2@@2@_N_J_KNVallocator@2@Uadl_serializer@nlohmann@@@nlohmann@@U?$less@X@2@V?$allocator@U?$pair@$$CBV?$basic_string@DU?$char_traits@D@std@@V?$allocator@D@2@@std@@V?$basic_json@Vmap@std@@Vvector@2@V?$basic_string@DU?$char_traits@D@std@@V?$allocator@D@2@@2@_N_J_KNVallocator@2@Uadl_serializer@nlohmann@@@nlohmann@@@std@@@2@$0A@@std@@@std@@IEAAAEAV?$allocator@U?$_Tree_node@U?$pair@$$CBV?$basic_string@DU?$char_traits@D@std@@V?$allocator@D@2@@std@@V?$basic_json@Vmap@std@@Vvector@2@V?$basic_string@DU?$char_traits@D@std@@V?$allocator@D@2@@2@_N_J_KNVallocator@2@Uadl_serializer@nlohmann@@@nlohmann@@@std@@PEAX@std@@@2@XZ 00000001400695c0 f i main.obj
 0001:000685d0       ?scan@?$lexer@V?$basic_json@Vmap@std@@Vvector@2@V?$basic_string@DU?$char_traits@D@std@@V?$allocator@D@2@@2@_N_J_KNVallocator@2@Uadl_serializer@nlohmann@@@nlohmann@@@detail@nlohmann@@QEAA?AW4token_type@123@XZ 00000001400695d0 f i main.obj
 0001:00068860       ?token_type_name@?$lexer@V?$basic_json@Vmap@std@@Vvector@2@V?$basic_string@DU?$char_traits@D@std@@V?$allocator@D@2@@2@_N_J_KNVallocator@2@Uadl_serializer@nlohmann@@@nlohmann@@@detail@nlohmann@@SAPEBDW4token_type@123@@Z 0000000140069860 f i main.obj
 0001:00068950       ?CheckSize@?$AllocatorBase@I@CryptoPP@@KAX_K@Z 0000000140069950 f i main.obj
 0001:000689d0       ?push_back@?$vector@_NV?$allocator@_N@std@@@std@@QEAAXAEB_N@Z 00000001400699d0 f i main.obj
 0001:00068b00       ?back@?$basic_string@DU?$char_traits@D@std@@V?$allocator@D@2@@std@@QEBAAEBDXZ 0000000140069b00 f i main.obj
 0001:00068b20       ?_Xran@?$_String_val@U?$_Simple_types@D@std@@@std@@SAXXZ 0000000140069b20 f i main.obj
 0001:00068b40       ?_Change_array@?$vector@V?$basic_json@Vmap@std@@Vvector@2@V?$basic_string@DU?$char_traits@D@std@@V?$allocator@D@2@@2@_N_J_KNVallocator@2@Uadl_serializer@nlohmann@@@nlohmann@@V?$allocator@V?$basic_json@Vmap@std@@Vvector@2@V?$basic_string@DU?$char_traits@D@std@@V?$allocator@D@2@@2@_N_J_KNVallocator@2@Uadl_serializer@nlohmann@@@nlohmann@@@std@@@std@@AEAAXQEAV?$basic_json@Vmap@std@@Vvector@2@V?$basic_string@DU?$char_traits@D@std@@V?$allocator@D@2@@2@_N_J_KNVallocator@2@Uadl_serializer@nlohmann@@@nlohmann@@_K1@Z 0000000140069b40 f i main.obj
 0001:00068c10       ?get@?$lexer@V?$basic_json@Vmap@std@@Vvector@2@V?$basic_string@DU?$char_traits@D@std@@V?$allocator@D@2@@2@_N_J_KNVallocator@2@Uadl_serializer@nlohmann@@@nlohmann@@@detail@nlohmann@@AEAAHXZ 0000000140069c10 f i main.obj
 0001:00068c80       ?scan_literal@?$lexer@V?$basic_json@Vmap@std@@Vvector@2@V?$basic_string@DU?$char_traits@D@std@@V?$allocator@D@2@@2@_N_J_KNVallocator@2@Uadl_serializer@nlohmann@@@nlohmann@@@detail@nlohmann@@AEAA?AW4token_type@123@PEBD_KW44123@@Z 0000000140069c80 f i main.obj
 0001:00068d70       ?scan_number@?$lexer@V?$basic_json@Vmap@std@@Vvector@2@V?$basic_string@DU?$char_traits@D@std@@V?$allocator@D@2@@2@_N_J_KNVallocator@2@Uadl_serializer@nlohmann@@@nlohmann@@@detail@nlohmann@@AEAA?AW4token_type@123@XZ 0000000140069d70 f i main.obj
 0001:00069570       ?scan_string@?$lexer@V?$basic_json@Vmap@std@@Vvector@2@V?$basic_string@DU?$char_traits@D@std@@V?$allocator@D@2@@2@_N_J_KNVallocator@2@Uadl_serializer@nlohmann@@@nlohmann@@@detail@nlohmann@@AEAA?AW4token_type@123@XZ 000000014006a570 f i main.obj
 0001:0006a240       ?allocate@?$allocator@V?$basic_json@Vmap@std@@Vvector@2@V?$basic_string@DU?$char_traits@D@std@@V?$allocator@D@2@@2@_N_J_KNVallocator@2@Uadl_serializer@nlohmann@@@nlohmann@@@std@@QEAAPEAV?$basic_json@Vmap@std@@Vvector@2@V?$basic_string@DU?$char_traits@D@std@@V?$allocator@D@2@@2@_N_J_KNVallocator@2@Uadl_serializer@nlohmann@@@nlohmann@@_K@Z 000000014006b240 f i main.obj
 0001:0006a2b0       ?deallocate@?$allocator@V?$basic_json@Vmap@std@@Vvector@2@V?$basic_string@DU?$char_traits@D@std@@V?$allocator@D@2@@2@_N_J_KNVallocator@2@Uadl_serializer@nlohmann@@@nlohmann@@@std@@QEAAXQEAV?$basic_json@Vmap@std@@Vvector@2@V?$basic_string@DU?$char_traits@D@std@@V?$allocator@D@2@@2@_N_J_KNVallocator@2@Uadl_serializer@nlohmann@@@nlohmann@@_K@Z 000000014006b2b0 f i main.obj
 0001:0006a300       ?add@?$lexer@V?$basic_json@Vmap@std@@Vvector@2@V?$basic_string@DU?$char_traits@D@std@@V?$allocator@D@2@@2@_N_J_KNVallocator@2@Uadl_serializer@nlohmann@@@nlohmann@@@detail@nlohmann@@AEAAXH@Z 000000014006b300 f i main.obj
 0001:0006a340       ?unget@?$lexer@V?$basic_json@Vmap@std@@Vvector@2@V?$basic_string@DU?$char_traits@D@std@@V?$allocator@D@2@@2@_N_J_KNVallocator@2@Uadl_serializer@nlohmann@@@nlohmann@@@detail@nlohmann@@AEAAXXZ 000000014006b340 f i main.obj
 0001:0006a3b0       ?next_byte_in_range@?$lexer@V?$basic_json@Vmap@std@@Vvector@2@V?$basic_string@DU?$char_traits@D@std@@V?$allocator@D@2@@2@_N_J_KNVallocator@2@Uadl_serializer@nlohmann@@@nlohmann@@@detail@nlohmann@@AEAA_NV?$initializer_list@H@std@@@Z 000000014006b3b0 f i main.obj
 0001:0006a530       ?get_codepoint@?$lexer@V?$basic_json@Vmap@std@@Vvector@2@V?$basic_string@DU?$char_traits@D@std@@V?$allocator@D@2@@2@_N_J_KNVallocator@2@Uadl_serializer@nlohmann@@@nlohmann@@@detail@nlohmann@@AEAAHXZ 000000014006b530 f i main.obj
 0001:0006a690       ??H?$_Vb_iterator@U?$_Wrap_alloc@V?$allocator@I@std@@@std@@@std@@QEBA?AV01@_J@Z 000000014006b690 f i main.obj
 0001:0006a710       ?_Insert_x@?$vector@_NV?$allocator@_N@std@@@std@@QEAA_KV?$_Vb_const_iterator@U?$_Wrap_alloc@V?$allocator@I@std@@@std@@@2@_K@Z 000000014006b710 f i main.obj
 0001:0006a950       ??$atomic_exchange@J@details@Concurrency@@YAJAEAU?$atomic@J@std@@J@Z 000000014006b950 f i main.obj
 0001:0006a960       ??$?HDU?$char_traits@D@std@@V?$allocator@D@1@@std@@YA?AV?$basic_string@DU?$char_traits@D@std@@V?$allocator@D@2@@0@QEBDAEBV10@@Z 000000014006b960 f i main.obj
 0001:0006aab0       ??$?HDU?$char_traits@D@std@@V?$allocator@D@1@@std@@YA?AV?$basic_string@DU?$char_traits@D@std@@V?$allocator@D@2@@0@QEBD$$QEAV10@@Z 000000014006bab0 f i main.obj
 0001:0006ab10       ??$?HDU?$char_traits@D@std@@V?$allocator@D@1@@std@@YA?AV?$basic_string@DU?$char_traits@D@std@@V?$allocator@D@2@@0@$$QEAV10@QEBD@Z 000000014006bb10 f i main.obj
 0001:0006ab70       ??$?HDU?$char_traits@D@std@@V?$allocator@D@1@@std@@YA?AV?$basic_string@DU?$char_traits@D@std@@V?$allocator@D@2@@0@$$QEAV10@AEBV10@@Z 000000014006bb70 f i main.obj
 0001:0006abd0       ??$?HDU?$char_traits@D@std@@V?$allocator@D@1@@std@@YA?AV?$basic_string@DU?$char_traits@D@std@@V?$allocator@D@2@@0@$$QEAV10@0@Z 000000014006bbd0 f i main.obj
 0001:0006ac00       ??1?$member_ptr@VAlgorithmParametersBase@CryptoPP@@@CryptoPP@@QEAA@XZ 000000014006bc00 f i main.obj
 0001:0006ac20       ??$MakeParameters@VConstByteArrayParameter@CryptoPP@@@CryptoPP@@YA?AVAlgorithmParameters@0@PEBDAEBVConstByteArrayParameter@0@_N@Z 000000014006bc20 f i main.obj
 0001:0006ad40       ??$?RH@AlgorithmParameters@CryptoPP@@QEAAAEAV01@PEBDAEBH@Z 000000014006bd40 f i main.obj
 0001:0006ae00       ??$hash256_block@PEAKPEAE@detail@picosha2@@YAXPEAKPEAE1@Z 000000014006be00 f i main.obj
 0001:0006b3d0       ??$hash256_hex_string@V?$_String_const_iterator@V?$_String_val@U?$_Simple_types@D@std@@@std@@@std@@@picosha2@@YAXV?$_String_const_iterator@V?$_String_val@U?$_Simple_types@D@std@@@std@@@std@@0AEAV?$basic_string@DU?$char_traits@D@std@@V?$allocator@D@2@@2@@Z 000000014006c3d0 f i main.obj
 0001:0006b5c0       ??$remove@V?$_String_iterator@V?$_String_val@U?$_Simple_types@D@std@@@std@@@std@@D@std@@YA?AV?$_String_iterator@V?$_String_val@U?$_Simple_types@D@std@@@std@@@0@V10@V10@AEBD@Z 000000014006c5c0 f i main.obj
 0001:0006b630       ??$?6U?$char_traits@D@std@@@std@@YAAEAV?$basic_ostream@DU?$char_traits@D@std@@@0@AEAV10@PEBD@Z 000000014006c630 f i main.obj
 0001:0006b800       ??$?6DU?$char_traits@D@std@@V?$allocator@D@1@@std@@YAAEAV?$basic_ostream@DU?$char_traits@D@std@@@0@AEAV10@AEBV?$basic_string@DU?$char_traits@D@std@@V?$allocator@D@2@@0@@Z 000000014006c800 f i main.obj
 0001:0006b820       ??$?AD@?$basic_json@Vmap@std@@Vvector@2@V?$basic_string@DU?$char_traits@D@std@@V?$allocator@D@2@@2@_N_J_KNVallocator@2@Uadl_serializer@nlohmann@@@nlohmann@@QEAAAEAV01@PEAD@Z 000000014006c820 f i main.obj
 0001:0006baf0       ??$?BV?$basic_string@DU?$char_traits@D@std@@V?$allocator@D@2@@std@@$0A@@?$basic_json@Vmap@std@@Vvector@2@V?$basic_string@DU?$char_traits@D@std@@V?$allocator@D@2@@2@_N_J_KNVallocator@2@Uadl_serializer@nlohmann@@@nlohmann@@QEBA?AV?$basic_string@DU?$char_traits@D@std@@V?$allocator@D@2@@std@@XZ 000000014006caf0 f i main.obj
 0001:0006bbc0       ??$?BM$0A@@?$basic_json@Vmap@std@@Vvector@2@V?$basic_string@DU?$char_traits@D@std@@V?$allocator@D@2@@2@_N_J_KNVallocator@2@Uadl_serializer@nlohmann@@@nlohmann@@QEBAMXZ 000000014006cbc0 f i main.obj
 0001:0006bd50       ??$count@AEAY0BC@$$CBD@?$basic_json@Vmap@std@@Vvector@2@V?$basic_string@DU?$char_traits@D@std@@V?$allocator@D@2@@2@_N_J_KNVallocator@2@Uadl_serializer@nlohmann@@@nlohmann@@QEBA_KAEAY0BC@$$CBD@Z 000000014006cd50 f i main.obj
 0001:0006bd90       ??$count@AEAY0BN@$$CBD@?$basic_json@Vmap@std@@Vvector@2@V?$basic_string@DU?$char_traits@D@std@@V?$allocator@D@2@@2@_N_J_KNVallocator@2@Uadl_serializer@nlohmann@@@nlohmann@@QEBA_KAEAY0BN@$$CBD@Z 000000014006cd90 f i main.obj
 0001:0006bf20       ??$?0AEA_N_N$0A@@?$basic_json@Vmap@std@@Vvector@2@V?$basic_string@DU?$char_traits@D@std@@V?$allocator@D@2@@2@_N_J_KNVallocator@2@Uadl_serializer@nlohmann@@@nlohmann@@QEAA@AEA_N@Z 000000014006cf20 f i main.obj
 0001:0006bf40       ??$?0AEAHH$0A@@?$basic_json@Vmap@std@@Vvector@2@V?$basic_string@DU?$char_traits@D@std@@V?$allocator@D@2@@2@_N_J_KNVallocator@2@Uadl_serializer@nlohmann@@@nlohmann@@QEAA@AEAH@Z 000000014006cf40 f i main.obj
 0001:0006bf60       ??$?0AEAY0MI@D$$BY0MI@D$0A@@?$basic_json@Vmap@std@@Vvector@2@V?$basic_string@DU?$char_traits@D@std@@V?$allocator@D@2@@2@_N_J_KNVallocator@2@Uadl_serializer@nlohmann@@@nlohmann@@QEAA@AEAY0MI@D@Z 000000014006cf60 f i main.obj
 0001:0006bfe0       ??$?0AEAMM$0A@@?$basic_json@Vmap@std@@Vvector@2@V?$basic_string@DU?$char_traits@D@std@@V?$allocator@D@2@@2@_N_J_KNVallocator@2@Uadl_serializer@nlohmann@@@nlohmann@@QEAA@AEAM@Z 000000014006cfe0 f i main.obj
 0001:0006c000       ??$?0AEAY0EAA@D$$BY0EAA@D$0A@@?$basic_json@Vmap@std@@Vvector@2@V?$basic_string@DU?$char_traits@D@std@@V?$allocator@D@2@@2@_N_J_KNVallocator@2@Uadl_serializer@nlohmann@@@nlohmann@@QEAA@AEAY0EAA@D@Z 000000014006d000 f i main.obj
 0001:0006c080       ??$?0AEAV?$basic_string@DU?$char_traits@D@std@@V?$allocator@D@2@@std@@V01@$0A@@?$basic_json@Vmap@std@@Vvector@2@V?$basic_string@DU?$char_traits@D@std@@V?$allocator@D@2@@2@_N_J_KNVallocator@2@Uadl_serializer@nlohmann@@@nlohmann@@QEAA@AEAV?$basic_string@DU?$char_traits@D@std@@V?$allocator@D@2@@std@@@Z 000000014006d080 f i main.obj
 0001:0006c1f0       ??$?0V?$basic_string@DU?$char_traits@D@std@@V?$allocator@D@2@@std@@$0A@@path@filesystem@std@@QEAA@AEBV?$basic_string@DU?$char_traits@D@std@@V?$allocator@D@2@@2@W4format@012@@Z 000000014006d1f0 f i main.obj
 0001:0006c320       ??$?0A6AHXZ$$V$0A@@thread@std@@QEAA@A6AHXZ@Z 000000014006d320 f i main.obj
 0001:0006c390       ??$copy@V?$_String_iterator@V?$_String_val@U?$_Simple_types@D@std@@@std@@@std@@PEAD@std@@YAPEADV?$_String_iterator@V?$_String_val@U?$_Simple_types@D@std@@@std@@@0@0PEAD@Z 000000014006d390 f i main.obj
 0001:0006c3c0       ??$use_facet@V?$codecvt@DDU_Mbstatet@@@std@@@std@@YAAEBV?$codecvt@DDU_Mbstatet@@@0@AEBVlocale@0@@Z 000000014006d3c0 f i main.obj
 0001:0006c490       ??$_Emplace_reallocate@V?$basic_string@_WU?$char_traits@_W@std@@V?$allocator@_W@2@@std@@@?$vector@V?$basic_string@_WU?$char_traits@_W@std@@V?$allocator@_W@2@@std@@V?$allocator@V?$basic_string@_WU?$char_traits@_W@std@@V?$allocator@_W@2@@std@@@2@@std@@QEAAPEAV?$basic_string@_WU?$char_traits@_W@std@@V?$allocator@_W@2@@1@QEAV21@$$QEAV21@@Z 000000014006d490 f i main.obj
 0001:0006c710       ??$_Try_emplace@AEBH$$V@?$_Hash@V?$_Umap_traits@HV?$basic_string@DU?$char_traits@D@std@@V?$allocator@D@2@@std@@V?$_Uhash_compare@HU?$hash@H@std@@U?$equal_to@H@2@@2@V?$allocator@U?$pair@$$CBHV?$basic_string@DU?$char_traits@D@std@@V?$allocator@D@2@@std@@@std@@@2@$0A@@std@@@std@@IEAA?AU?$pair@PEAU?$_List_node@U?$pair@$$CBHV?$basic_string@DU?$char_traits@D@std@@V?$allocator@D@2@@std@@@std@@PEAX@std@@_N@1@AEBH@Z 000000014006d710 f i main.obj
 0001:0006c990       ??$_Traits_find@U?$char_traits@D@std@@@std@@YA_KQEBD_K101@Z 000000014006d990 f i main.obj
 0001:0006ca50       ??$_Reallocate_grow_by@V<lambda_9013ee9e23efe4882b67eff5b0ecf103>@@$$V@?$basic_string@DU?$char_traits@D@std@@V?$allocator@D@2@@std@@AEAAAEAV01@_KV<lambda_9013ee9e23efe4882b67eff5b0ecf103>@@@Z 000000014006da50 f i main.obj
 0001:0006cba0       ??$_Reallocate_grow_by@V<lambda_319d5e083f45f90dcdce5dce53cbb275>@@D@?$basic_string@DU?$char_traits@D@std@@V?$allocator@D@2@@std@@AEAAAEAV01@_KV<lambda_319d5e083f45f90dcdce5dce53cbb275>@@D@Z 000000014006dba0 f i main.obj
 0001:0006cd10       ??$_Reallocate_grow_by@V<lambda_65e615be2a453ca0576c979606f46740>@@PEBD_K@?$basic_string@DU?$char_traits@D@std@@V?$allocator@D@2@@std@@AEAAAEAV01@_KV<lambda_65e615be2a453ca0576c979606f46740>@@PEBD_K@Z 000000014006dd10 f i main.obj
 0001:0006cea0       ??$dump_integer@_J$0A@@?$serializer@V?$basic_json@Vmap@std@@Vvector@2@V?$basic_string@DU?$char_traits@D@std@@V?$allocator@D@2@@2@_N_J_KNVallocator@2@Uadl_serializer@nlohmann@@@nlohmann@@@detail@nlohmann@@AEAAX_J@Z 000000014006dea0 f i main.obj
 0001:0006d090       ??$move@V?$_Vector_iterator@V?$_Vector_val@U?$_Simple_types@V?$basic_json@Vmap@std@@Vvector@2@V?$basic_string@DU?$char_traits@D@std@@V?$allocator@D@2@@2@_N_J_KNVallocator@2@Uadl_serializer@nlohmann@@@nlohmann@@@std@@@std@@@std@@V?$back_insert_iterator@V?$vector@V?$basic_json@Vmap@std@@Vvector@2@V?$basic_string@DU?$char_traits@D@std@@V?$allocator@D@2@@2@_N_J_KNVallocator@2@Uadl_serializer@nlohmann@@@nlohmann@@V?$allocator@V?$basic_json@Vmap@std@@Vvector@2@V?$basic_string@DU?$char_traits@D@std@@V?$allocator@D@2@@2@_N_J_KNVallocator@2@Uadl_serializer@nlohmann@@@nlohmann@@@std@@@std@@@2@@std@@YA?AV?$back_insert_iterator@V?$vector@V?$basic_json@Vmap@std@@Vvector@2@V?$basic_string@DU?$char_traits@D@std@@V?$allocator@D@2@@2@_N_J_KNVallocator@2@Uadl_serializer@nlohmann@@@nlohmann@@V?$allocator@V?$basic_json@Vmap@std@@Vvector@2@V?$basic_string@DU?$char_traits@D@std@@V?$allocator@D@2@@2@_N_J_KNVallocator@2@Uadl_serializer@nlohmann@@@nlohmann@@@std@@@std@@@0@V?$_Vector_iterator@V?$_Vector_val@U?$_Simple_types@V?$basic_json@Vmap@std@@Vvector@2@V?$basic_string@DU?$char_traits@D@std@@V?$allocator@D@2@@2@_N_J_KNVallocator@2@Uadl_serializer@nlohmann@@@nlohmann@@@std@@@std@@@0@0V10@@Z 000000014006e090 f i main.obj
 0001:0006d140       ??$sax_parse_internal@V?$json_sax_dom_callback_parser@V?$basic_json@Vmap@std@@Vvector@2@V?$basic_string@DU?$char_traits@D@std@@V?$allocator@D@2@@2@_N_J_KNVallocator@2@Uadl_serializer@nlohmann@@@nlohmann@@@detail@nlohmann@@@?$parser@V?$basic_json@Vmap@std@@Vvector@2@V?$basic_string@DU?$char_traits@D@std@@V?$allocator@D@2@@2@_N_J_KNVallocator@2@Uadl_serializer@nlohmann@@@nlohmann@@@detail@nlohmann@@AEAA_NPEAV?$json_sax_dom_callback_parser@V?$basic_json@Vmap@std@@Vvector@2@V?$basic_string@DU?$char_traits@D@std@@V?$allocator@D@2@@2@_N_J_KNVallocator@2@Uadl_serializer@nlohmann@@@nlohmann@@@12@@Z 000000014006e140 f i main.obj
 0001:0006e5a0       ??$sax_parse_internal@V?$json_sax_dom_parser@V?$basic_json@Vmap@std@@Vvector@2@V?$basic_string@DU?$char_traits@D@std@@V?$allocator@D@2@@2@_N_J_KNVallocator@2@Uadl_serializer@nlohmann@@@nlohmann@@@detail@nlohmann@@@?$parser@V?$basic_json@Vmap@std@@Vvector@2@V?$basic_string@DU?$char_traits@D@std@@V?$allocator@D@2@@2@_N_J_KNVallocator@2@Uadl_serializer@nlohmann@@@nlohmann@@@detail@nlohmann@@AEAA_NPEAV?$json_sax_dom_parser@V?$basic_json@Vmap@std@@Vvector@2@V?$basic_string@DU?$char_traits@D@std@@V?$allocator@D@2@@2@_N_J_KNVallocator@2@Uadl_serializer@nlohmann@@@nlohmann@@@12@@Z 000000014006f5a0 f i main.obj
 0001:0006fd00       ??$insert@PEBU?$pair@$$CBHV?$basic_string@DU?$char_traits@D@std@@V?$allocator@D@2@@std@@@std@@@?$_Hash@V?$_Umap_traits@HV?$basic_string@DU?$char_traits@D@std@@V?$allocator@D@2@@std@@V?$_Uhash_compare@HU?$hash@H@std@@U?$equal_to@H@2@@2@V?$allocator@U?$pair@$$CBHV?$basic_string@DU?$char_traits@D@std@@V?$allocator@D@2@@std@@@std@@@2@$0A@@std@@@std@@QEAAXPEBU?$pair@$$CBHV?$basic_string@DU?$char_traits@D@std@@V?$allocator@D@2@@std@@@1@0@Z 0000000140070d00 f i main.obj
 0001:0006ffa0       ??$_Free_non_head@V?$allocator@U?$_List_node@U?$pair@$$CBHV?$basic_string@DU?$char_traits@D@std@@V?$allocator@D@2@@std@@@std@@PEAX@std@@@std@@@?$_List_node@U?$pair@$$CBHV?$basic_string@DU?$char_traits@D@std@@V?$allocator@D@2@@std@@@std@@PEAX@std@@SAXAEAV?$allocator@U?$_List_node@U?$pair@$$CBHV?$basic_string@DU?$char_traits@D@std@@V?$allocator@D@2@@std@@@std@@PEAX@std@@@1@PEAU01@@Z 0000000140070fa0 f i main.obj
 0001:00070040       ??$SecureWipeArray@I@CryptoPP@@YAXPEAI_K@Z 0000000140071040 f i main.obj
 0001:00070060       ??$_Reallocate_grow_by@V<lambda_e1befb086ad3257e3f042a63030725f7>@@_KD@?$basic_string@DU?$char_traits@D@std@@V?$allocator@D@2@@std@@AEAAAEAV01@_KV<lambda_e1befb086ad3257e3f042a63030725f7>@@_KD@Z 0000000140071060 f i main.obj
 0001:000701f0       ??$?0AEBV?$allocator@D@std@@$$V@?$_Compressed_pair@V?$allocator@D@std@@V?$_String_val@U?$_Simple_types@D@std@@@2@$00@std@@QEAA@U_One_then_variadic_args_t@1@AEBV?$allocator@D@1@@Z 00000001400711f0 f i main.obj
 0001:000701f0       ??0?$_String_val@U?$_Simple_types@D@std@@@std@@QEAA@XZ 00000001400711f0 f i main.obj
 0001:00070200       ??$_Emplace_reallocate@V?$basic_json@Vmap@std@@Vvector@2@V?$basic_string@DU?$char_traits@D@std@@V?$allocator@D@2@@2@_N_J_KNVallocator@2@Uadl_serializer@nlohmann@@@nlohmann@@@?$vector@V?$basic_json@Vmap@std@@Vvector@2@V?$basic_string@DU?$char_traits@D@std@@V?$allocator@D@2@@2@_N_J_KNVallocator@2@Uadl_serializer@nlohmann@@@nlohmann@@V?$allocator@V?$basic_json@Vmap@std@@Vvector@2@V?$basic_string@DU?$char_traits@D@std@@V?$allocator@D@2@@2@_N_J_KNVallocator@2@Uadl_serializer@nlohmann@@@nlohmann@@@std@@@std@@QEAAPEAV?$basic_json@Vmap@std@@Vvector@2@V?$basic_string@DU?$char_traits@D@std@@V?$allocator@D@2@@2@_N_J_KNVallocator@2@Uadl_serializer@nlohmann@@@nlohmann@@QEAV23@$$QEAV23@@Z 0000000140071200 f i main.obj
 0001:00070320       ??$_Erase_tree@V?$allocator@U?$_Tree_node@U?$pair@$$CBV?$basic_string@DU?$char_traits@D@std@@V?$allocator@D@2@@std@@V?$basic_json@Vmap@std@@Vvector@2@V?$basic_string@DU?$char_traits@D@std@@V?$allocator@D@2@@2@_N_J_KNVallocator@2@Uadl_serializer@nlohmann@@@nlohmann@@@std@@PEAX@std@@@std@@@?$_Tree_val@U?$_Tree_simple_types@U?$pair@$$CBV?$basic_string@DU?$char_traits@D@std@@V?$allocator@D@2@@std@@V?$basic_json@Vmap@std@@Vvector@2@V?$basic_string@DU?$char_traits@D@std@@V?$allocator@D@2@@2@_N_J_KNVallocator@2@Uadl_serializer@nlohmann@@@nlohmann@@@std@@@std@@@std@@QEAAXAEAV?$allocator@U?$_Tree_node@U?$pair@$$CBV?$basic_string@DU?$char_traits@D@std@@V?$allocator@D@2@@std@@V?$basic_json@Vmap@std@@Vvector@2@V?$basic_string@DU?$char_traits@D@std@@V?$allocator@D@2@@2@_N_J_KNVallocator@2@Uadl_serializer@nlohmann@@@nlohmann@@@std@@PEAX@std@@@1@PEAU?$_Tree_node@U?$pair@$$CBV?$basic_string@DU?$char_traits@D@std@@V?$allocator@D@2@@std@@V?$basic_json@Vmap@std@@Vvector@2@V?$basic_string@DU?$char_traits@D@std@@V?$allocator@D@2@@2@_N_J_KNVallocator@2@Uadl_serializer@nlohmann@@@nlohmann@@@std@@PEAX@1@@Z 0000000140071320 f i main.obj
 0001:00070320       ??$_Erase_tree_and_orphan@V?$allocator@U?$_Tree_node@U?$pair@$$CBV?$basic_string@DU?$char_traits@D@std@@V?$allocator@D@2@@std@@V?$basic_json@Vmap@std@@Vvector@2@V?$basic_string@DU?$char_traits@D@std@@V?$allocator@D@2@@2@_N_J_KNVallocator@2@Uadl_serializer@nlohmann@@@nlohmann@@@std@@PEAX@std@@@std@@@?$_Tree_val@U?$_Tree_simple_types@U?$pair@$$CBV?$basic_string@DU?$char_traits@D@std@@V?$allocator@D@2@@std@@V?$basic_json@Vmap@std@@Vvector@2@V?$basic_string@DU?$char_traits@D@std@@V?$allocator@D@2@@2@_N_J_KNVallocator@2@Uadl_serializer@nlohmann@@@nlohmann@@@std@@@std@@@std@@QEAAXAEAV?$allocator@U?$_Tree_node@U?$pair@$$CBV?$basic_string@DU?$char_traits@D@std@@V?$allocator@D@2@@std@@V?$basic_json@Vmap@std@@Vvector@2@V?$basic_string@DU?$char_traits@D@std@@V?$allocator@D@2@@2@_N_J_KNVallocator@2@Uadl_serializer@nlohmann@@@nlohmann@@@std@@PEAX@std@@@1@PEAU?$_Tree_node@U?$pair@$$CBV?$basic_string@DU?$char_traits@D@std@@V?$allocator@D@2@@std@@V?$basic_json@Vmap@std@@Vvector@2@V?$basic_string@DU?$char_traits@D@std@@V?$allocator@D@2@@2@_N_J_KNVallocator@2@Uadl_serializer@nlohmann@@@nlohmann@@@std@@PEAX@1@@Z 0000000140071320 f i main.obj
 0001:000703a0       ??$_Destroy_range@V?$allocator@V?$basic_string@_WU?$char_traits@_W@std@@V?$allocator@_W@2@@std@@@std@@@std@@YAXPEAV?$basic_string@_WU?$char_traits@_W@std@@V?$allocator@_W@2@@0@QEAV10@AEAV?$allocator@V?$basic_string@_WU?$char_traits@_W@std@@V?$allocator@_W@2@@std@@@0@@Z 00000001400713a0 f i main.obj
 0001:00070430       ??$fill@PEAV?$_List_unchecked_iterator@V?$_List_val@U?$_List_simple_types@U?$pair@$$CBHV?$basic_string@DU?$char_traits@D@std@@V?$allocator@D@2@@std@@@std@@@std@@@std@@@std@@V12@@std@@YAXQEAV?$_List_unchecked_iterator@V?$_List_val@U?$_List_simple_types@U?$pair@$$CBHV?$basic_string@DU?$char_traits@D@std@@V?$allocator@D@2@@std@@@std@@@std@@@std@@@0@0AEBV10@@Z 0000000140071430 f i main.obj
 0001:000704c0       ??$_Uninitialized_move@PEAV?$basic_json@Vmap@std@@Vvector@2@V?$basic_string@DU?$char_traits@D@std@@V?$allocator@D@2@@2@_N_J_KNVallocator@2@Uadl_serializer@nlohmann@@@nlohmann@@V?$allocator@V?$basic_json@Vmap@std@@Vvector@2@V?$basic_string@DU?$char_traits@D@std@@V?$allocator@D@2@@2@_N_J_KNVallocator@2@Uadl_serializer@nlohmann@@@nlohmann@@@std@@@std@@YAPEAV?$basic_json@Vmap@std@@Vvector@2@V?$basic_string@DU?$char_traits@D@std@@V?$allocator@D@2@@2@_N_J_KNVallocator@2@Uadl_serializer@nlohmann@@@nlohmann@@QEAV12@0PEAV12@AEAV?$allocator@V?$basic_json@Vmap@std@@Vvector@2@V?$basic_string@DU?$char_traits@D@std@@V?$allocator@D@2@@2@_N_J_KNVallocator@2@Uadl_serializer@nlohmann@@@nlohmann@@@0@@Z 00000001400714c0 f i main.obj
 0001:00070540       ??$_Emplace_reallocate@AEBE@?$vector@EV?$allocator@E@std@@@std@@QEAAPEAEQEAEAEBE@Z 0000000140071540 f i main.obj
 0001:00070540       ??$_Emplace_reallocate@D@?$vector@DV?$allocator@D@std@@@std@@QEAAPEADQEAD$$QEAD@Z 0000000140071540 f i main.obj
 0001:000706c0       ??1?$_Uninitialized_backout_al@V?$allocator@V?$basic_json@Vmap@std@@Vvector@2@V?$basic_string@DU?$char_traits@D@std@@V?$allocator@D@2@@2@_N_J_KNVallocator@2@Uadl_serializer@nlohmann@@@nlohmann@@@std@@@std@@QEAA@XZ 00000001400716c0 f i main.obj
 0001:00070700       ??1?$unique_ptr@V?$basic_string@DU?$char_traits@D@std@@V?$allocator@D@2@@std@@V<lambda_dba2dfefec9bdf18d167cd7ba98562ad>@@@std@@QEAA@XZ 0000000140071700 f i main.obj
 0001:00070700       ??1?$unique_ptr@V?$basic_string@DU?$char_traits@D@std@@V?$allocator@D@2@@std@@V<lambda_1240e5503449a82a1f33a5854dcd6b0c>@@@std@@QEAA@XZ 0000000140071700 f i main.obj
 0001:00070700       ??1?$unique_ptr@V?$basic_string@DU?$char_traits@D@std@@V?$allocator@D@2@@std@@V<lambda_c71f4757edc6b17923dd7ba5598b69cc>@@@std@@QEAA@XZ 0000000140071700 f i main.obj
 0001:00070700       ??1?$unique_ptr@V?$basic_string@DU?$char_traits@D@std@@V?$allocator@D@2@@std@@V<lambda_cf98b93bdbc3b868a88fa8eb27c16a69>@@@std@@QEAA@XZ 0000000140071700 f i main.obj
 0001:00070700       ??1?$unique_ptr@V?$basic_string@DU?$char_traits@D@std@@V?$allocator@D@2@@std@@V<lambda_78aa99b70935112e8e1626e53a580f43>@@@std@@QEAA@XZ 0000000140071700 f i main.obj
 0001:00070720       ??1?$unique_ptr@V?$map@V?$basic_string@DU?$char_traits@D@std@@V?$allocator@D@2@@std@@V?$basic_json@Vmap@std@@Vvector@2@V?$basic_string@DU?$char_traits@D@std@@V?$allocator@D@2@@2@_N_J_KNVallocator@2@Uadl_serializer@nlohmann@@@nlohmann@@U?$less@X@2@V?$allocator@U?$pair@$$CBV?$basic_string@DU?$char_traits@D@std@@V?$allocator@D@2@@std@@V?$basic_json@Vmap@std@@Vvector@2@V?$basic_string@DU?$char_traits@D@std@@V?$allocator@D@2@@2@_N_J_KNVallocator@2@Uadl_serializer@nlohmann@@@nlohmann@@@std@@@2@@std@@V<lambda_4a216097a9994aa80feb8570ed72ef0c>@@@std@@QEAA@XZ 0000000140071720 f i main.obj
 0001:00070720       ??1?$unique_ptr@V?$map@V?$basic_string@DU?$char_traits@D@std@@V?$allocator@D@2@@std@@V?$basic_json@Vmap@std@@Vvector@2@V?$basic_string@DU?$char_traits@D@std@@V?$allocator@D@2@@2@_N_J_KNVallocator@2@Uadl_serializer@nlohmann@@@nlohmann@@U?$less@X@2@V?$allocator@U?$pair@$$CBV?$basic_string@DU?$char_traits@D@std@@V?$allocator@D@2@@std@@V?$basic_json@Vmap@std@@Vvector@2@V?$basic_string@DU?$char_traits@D@std@@V?$allocator@D@2@@2@_N_J_KNVallocator@2@Uadl_serializer@nlohmann@@@nlohmann@@@std@@@2@@std@@V<lambda_b781b66f9037521d1dd609a6f52b419d>@@@std@@QEAA@XZ 0000000140071720 f i main.obj
 0001:00070740       ?_Delete_this@?$_Ref_count_obj2@U?$_Task_impl@E@details@Concurrency@@@std@@EEAAXXZ 0000000140071740 f i main.obj
 0001:00070740       ?_Delete_this@?$_Ref_count_obj2@Vinput_buffer_adapter@detail@nlohmann@@@std@@EEAAXXZ 0000000140071740 f i main.obj
 0001:00070740       ?_Delete_this@?$_Ref_count_obj2@V?$output_string_adapter@DV?$basic_string@DU?$char_traits@D@std@@V?$allocator@D@2@@std@@@detail@nlohmann@@@std@@EEAAXXZ 0000000140071740 f i main.obj
 0001:00070740       ?_Delete_this@?$_Ref_count_obj2@U_ExceptionHolder@details@Concurrency@@@std@@EEAAXXZ 0000000140071740 f i main.obj
 0001:00070760       ?_Destroy@?$_Ref_count_obj2@U?$_Task_impl@E@details@Concurrency@@@std@@EEAAXXZ 0000000140071760 f i main.obj
 0001:00070770       ?_Destroy@?$_Ref_count_obj2@V?$output_string_adapter@DV?$basic_string@DU?$char_traits@D@std@@V?$allocator@D@2@@std@@@detail@nlohmann@@@std@@EEAAXXZ 0000000140071770 f i main.obj
 0001:00070780       ??1?$_List_node_emplace_op2@V?$allocator@U?$_List_node@U?$pair@$$CBHV?$basic_string@DU?$char_traits@D@std@@V?$allocator@D@2@@std@@@std@@PEAX@std@@@std@@@std@@QEAA@XZ 0000000140071780 f i main.obj
 0001:00070810       ??1?$unique_ptr@V?$tuple@P6AHXZ@std@@U?$default_delete@V?$tuple@P6AHXZ@std@@@2@@std@@QEAA@XZ 0000000140071810 f i main.obj
 0001:00070830       ??1sentry@?$basic_ostream@DU?$char_traits@D@std@@@std@@QEAA@XZ 0000000140071830 f i main.obj
 0001:00070870       ?_Destroy@?$_Ref_count_obj2@U_ExceptionHolder@details@Concurrency@@@std@@EEAAXXZ 0000000140071870 f i main.obj
 0001:00070880       ?key@?$json_sax_dom_parser@V?$basic_json@Vmap@std@@Vvector@2@V?$basic_string@DU?$char_traits@D@std@@V?$allocator@D@2@@2@_N_J_KNVallocator@2@Uadl_serializer@nlohmann@@@nlohmann@@@detail@nlohmann@@QEAA_NAEAV?$basic_string@DU?$char_traits@D@std@@V?$allocator@D@2@@std@@@Z 0000000140071880 f i main.obj
 0001:000708b0       ?end_array@?$json_sax_dom_callback_parser@V?$basic_json@Vmap@std@@Vvector@2@V?$basic_string@DU?$char_traits@D@std@@V?$allocator@D@2@@2@_N_J_KNVallocator@2@Uadl_serializer@nlohmann@@@nlohmann@@@detail@nlohmann@@QEAA_NXZ 00000001400718b0 f i main.obj
 0001:000709d0       ?end_object@?$json_sax_dom_callback_parser@V?$basic_json@Vmap@std@@Vvector@2@V?$basic_string@DU?$char_traits@D@std@@V?$allocator@D@2@@2@_N_J_KNVallocator@2@Uadl_serializer@nlohmann@@@nlohmann@@@detail@nlohmann@@QEAA_NXZ 00000001400719d0 f i main.obj
 0001:00070de0       ?key@?$json_sax_dom_callback_parser@V?$basic_json@Vmap@std@@Vvector@2@V?$basic_string@DU?$char_traits@D@std@@V?$allocator@D@2@@2@_N_J_KNVallocator@2@Uadl_serializer@nlohmann@@@nlohmann@@@detail@nlohmann@@QEAA_NAEAV?$basic_string@DU?$char_traits@D@std@@V?$allocator@D@2@@std@@@Z 0000000140071de0 f i main.obj
 0001:00070f50       ?type_name@?$basic_json@Vmap@std@@Vvector@2@V?$basic_string@DU?$char_traits@D@std@@V?$allocator@D@2@@2@_N_J_KNVallocator@2@Uadl_serializer@nlohmann@@@nlohmann@@QEBAPEBDXZ 0000000140071f50 f i main.obj
 0001:00070fd0       ?_Rehash_for_1@?$_Hash@V?$_Umap_traits@HV?$basic_string@DU?$char_traits@D@std@@V?$allocator@D@2@@std@@V?$_Uhash_compare@HU?$hash@H@std@@U?$equal_to@H@2@@2@V?$allocator@U?$pair@$$CBHV?$basic_string@DU?$char_traits@D@std@@V?$allocator@D@2@@std@@@std@@@2@$0A@@std@@@std@@IEAAXXZ 0000000140071fd0 f i main.obj
 0001:00071080       ?pop_back@?$vector@_NV?$allocator@_N@std@@@std@@QEAAXXZ 0000000140072080 f i main.obj
 0001:00071110       ?back@?$vector@_NV?$allocator@_N@std@@@std@@QEAA?AV?$_Vb_reference@U?$_Wrap_alloc@V?$allocator@I@std@@@std@@@2@XZ 0000000140072110 f i main.obj
 0001:00071190       ?insert@?$basic_string@_WU?$char_traits@_W@std@@V?$allocator@_W@2@@std@@QEAAAEAV12@_KQEB_W0@Z 0000000140072190 f i main.obj
 0001:00071360       ??0?$basic_string@_WU?$char_traits@_W@std@@V?$allocator@_W@2@@std@@QEAA@U_String_constructor_concat_tag@1@AEAV01@1@Z 0000000140072360 f i main.obj
 0001:00071520       ?insert@?$basic_string@DU?$char_traits@D@std@@V?$allocator@D@2@@std@@QEAAAEAV12@_KQEBD0@Z 0000000140072520 f i main.obj
 0001:00071630       ??0?$basic_string@DU?$char_traits@D@std@@V?$allocator@D@2@@std@@QEAA@U_String_constructor_concat_tag@1@AEAV01@1@Z 0000000140072630 f i main.obj
 0001:000717d0       ??0?$basic_string@DU?$char_traits@D@std@@V?$allocator@D@2@@std@@QEAA@U_String_constructor_concat_tag@1@AEBV01@QEBD_K23@Z 00000001400727d0 f i main.obj
 0001:000718f0       ??_G?$_Ref_count_obj2@U?$_Task_impl@E@details@Concurrency@@@std@@UEAAPEAXI@Z 00000001400728f0 f i main.obj
 0001:000718f0       ??_E?$_Ref_count_obj2@U?$_Task_impl@E@details@Concurrency@@@std@@UEAAPEAXI@Z 00000001400728f0 f i * CIL library *:* CIL module *
 0001:00071920       ??_G?$_Ref_count_obj2@V?$output_string_adapter@DV?$basic_string@DU?$char_traits@D@std@@V?$allocator@D@2@@std@@@detail@nlohmann@@@std@@UEAAPEAXI@Z 0000000140072920 f i main.obj
 0001:00071920       ??_E?$_Ref_count_obj2@V?$output_string_adapter@DV?$basic_string@DU?$char_traits@D@std@@V?$allocator@D@2@@std@@@detail@nlohmann@@@std@@UEAAPEAXI@Z 0000000140072920 f i * CIL library *:* CIL module *
 0001:00071950       ??_G?$_Ref_count_obj2@U_ExceptionHolder@details@Concurrency@@@std@@UEAAPEAXI@Z 0000000140072950 f i main.obj
 0001:00071950       ??_E?$_Ref_count_obj2@U_ExceptionHolder@details@Concurrency@@@std@@UEAAPEAXI@Z 0000000140072950 f i * CIL library *:* CIL module *
 0001:00071980       ??1?$_Alloc_construct_ptr@V?$allocator@U?$_List_node@U?$pair@$$CBHV?$basic_string@DU?$char_traits@D@std@@V?$allocator@D@2@@std@@@std@@PEAX@std@@@std@@@std@@QEAA@XZ 0000000140072980 f i main.obj
 0001:000719a0       ??1_Sentry_base@?$basic_ostream@DU?$char_traits@D@std@@@std@@QEAA@XZ 00000001400729a0 f i main.obj
 0001:000719d0       ??A?$map@V?$basic_string@DU?$char_traits@D@std@@V?$allocator@D@2@@std@@V?$basic_json@Vmap@std@@Vvector@2@V?$basic_string@DU?$char_traits@D@std@@V?$allocator@D@2@@2@_N_J_KNVallocator@2@Uadl_serializer@nlohmann@@@nlohmann@@U?$less@X@2@V?$allocator@U?$pair@$$CBV?$basic_string@DU?$char_traits@D@std@@V?$allocator@D@2@@std@@V?$basic_json@Vmap@std@@Vvector@2@V?$basic_string@DU?$char_traits@D@std@@V?$allocator@D@2@@2@_N_J_KNVallocator@2@Uadl_serializer@nlohmann@@@nlohmann@@@std@@@2@@std@@QEAAAEAV?$basic_json@Vmap@std@@Vvector@2@V?$basic_string@DU?$char_traits@D@std@@V?$allocator@D@2@@2@_N_J_KNVallocator@2@Uadl_serializer@nlohmann@@@nlohmann@@AEBV?$basic_string@DU?$char_traits@D@std@@V?$allocator@D@2@@1@@Z 00000001400729d0 f i main.obj
 0001:00071ac0       ?end@?$basic_json@Vmap@std@@Vvector@2@V?$basic_string@DU?$char_traits@D@std@@V?$allocator@D@2@@2@_N_J_KNVallocator@2@Uadl_serializer@nlohmann@@@nlohmann@@QEAA?AV?$iter_impl@V?$basic_json@Vmap@std@@Vvector@2@V?$basic_string@DU?$char_traits@D@std@@V?$allocator@D@2@@2@_N_J_KNVallocator@2@Uadl_serializer@nlohmann@@@nlohmann@@@detail@2@XZ 0000000140072ac0 f i main.obj
 0001:00071b40       ??0?$basic_json@Vmap@std@@Vvector@2@V?$basic_string@DU?$char_traits@D@std@@V?$allocator@D@2@@2@_N_J_KNVallocator@2@Uadl_serializer@nlohmann@@@nlohmann@@QEAA@AEBV01@@Z 0000000140072b40 f i main.obj
 0001:00071e10       ?_Forced_rehash@?$_Hash@V?$_Umap_traits@HV?$basic_string@DU?$char_traits@D@std@@V?$allocator@D@2@@std@@V?$_Uhash_compare@HU?$hash@H@std@@U?$equal_to@H@2@@2@V?$allocator@U?$pair@$$CBHV?$basic_string@DU?$char_traits@D@std@@V?$allocator@D@2@@std@@@std@@@2@$0A@@std@@@std@@IEAAX_K@Z 0000000140072e10 f i main.obj
 0001:00071fc0       ??G?$_Vb_iterator@U?$_Wrap_alloc@V?$allocator@I@std@@@std@@@std@@QEBA?AV01@_J@Z 0000000140072fc0 f i main.obj
 0001:00072030       ?erase@?$vector@_NV?$allocator@_N@std@@@std@@QEAA?AV?$_Vb_iterator@U?$_Wrap_alloc@V?$allocator@I@std@@@std@@@2@V?$_Vb_const_iterator@U?$_Wrap_alloc@V?$allocator@I@std@@@std@@@2@@Z 0000000140073030 f i main.obj
 0001:00072230       ??0?$iter_impl@V?$basic_json@Vmap@std@@Vvector@2@V?$basic_string@DU?$char_traits@D@std@@V?$allocator@D@2@@2@_N_J_KNVallocator@2@Uadl_serializer@nlohmann@@@nlohmann@@@detail@nlohmann@@QEAA@PEAV?$basic_json@Vmap@std@@Vvector@2@V?$basic_string@DU?$char_traits@D@std@@V?$allocator@D@2@@2@_N_J_KNVallocator@2@Uadl_serializer@nlohmann@@@2@@Z 0000000140073230 f i main.obj
 0001:000722d0       ??$get@V?$basic_string@DU?$char_traits@D@std@@V?$allocator@D@2@@std@@V12@$0A@@?$basic_json@Vmap@std@@Vvector@2@V?$basic_string@DU?$char_traits@D@std@@V?$allocator@D@2@@2@_N_J_KNVallocator@2@Uadl_serializer@nlohmann@@@nlohmann@@QEBA?AV?$basic_string@DU?$char_traits@D@std@@V?$allocator@D@2@@std@@XZ 00000001400732d0 f i main.obj
 0001:000723a0       ??$?RVConstByteArrayParameter@CryptoPP@@@AlgorithmParameters@CryptoPP@@QEAAAEAV01@PEBDAEBVConstByteArrayParameter@1@_N@Z 00000001400733a0 f i main.obj
 0001:00072480       ??$_Insert_string@DU?$char_traits@D@std@@_K@std@@YAAEAV?$basic_ostream@DU?$char_traits@D@std@@@0@AEAV10@QEBD_K@Z 0000000140073480 f i main.obj
 0001:00072640       ??$?0V?$_String_const_iterator@V?$_String_val@U?$_Simple_types@D@std@@@std@@@std@@$0A@@input_adapter@detail@nlohmann@@QEAA@V?$_String_const_iterator@V?$_String_val@U?$_Simple_types@D@std@@@std@@@std@@0@Z 0000000140073640 f i main.obj
 0001:000727d0       ??$_Invoke@V?$tuple@P6AHXZ@std@@$0A@@thread@std@@CAIPEAX@Z 00000001400737d0 f i main.obj
 0001:00072800       ??$hash256_hex_string@V?$_String_const_iterator@V?$_String_val@U?$_Simple_types@D@std@@@std@@@std@@@picosha2@@YA?AV?$basic_string@DU?$char_traits@D@std@@V?$allocator@D@2@@std@@V?$_String_const_iterator@V?$_String_val@U?$_Simple_types@D@std@@@std@@@2@0@Z 0000000140073800 f i main.obj
 0001:00072850       ??$_Construct@V?$istreambuf_iterator@DU?$char_traits@D@std@@@std@@@?$basic_string@DU?$char_traits@D@std@@V?$allocator@D@2@@std@@QEAAXV?$istreambuf_iterator@DU?$char_traits@D@std@@@1@V21@Uinput_iterator_tag@1@@Z 0000000140073850 f i main.obj
 0001:000729a0       ??$_Resize_reallocate@I@?$vector@IV?$allocator@I@std@@@std@@AEAAX_KAEBI@Z 00000001400739a0 f i main.obj
 0001:00072b10       ??$handle_value@W4value_t@detail@nlohmann@@@?$json_sax_dom_parser@V?$basic_json@Vmap@std@@Vvector@2@V?$basic_string@DU?$char_traits@D@std@@V?$allocator@D@2@@2@_N_J_KNVallocator@2@Uadl_serializer@nlohmann@@@nlohmann@@@detail@nlohmann@@AEAAPEAV?$basic_json@Vmap@std@@Vvector@2@V?$basic_string@DU?$char_traits@D@std@@V?$allocator@D@2@@2@_N_J_KNVallocator@2@Uadl_serializer@nlohmann@@@2@$$QEAW4value_t@12@@Z 0000000140073b10 f i main.obj
 0001:00072c90       ??$handle_value@AEA_N@?$json_sax_dom_parser@V?$basic_json@Vmap@std@@Vvector@2@V?$basic_string@DU?$char_traits@D@std@@V?$allocator@D@2@@2@_N_J_KNVallocator@2@Uadl_serializer@nlohmann@@@nlohmann@@@detail@nlohmann@@AEAAPEAV?$basic_json@Vmap@std@@Vvector@2@V?$basic_string@DU?$char_traits@D@std@@V?$allocator@D@2@@2@_N_J_KNVallocator@2@Uadl_serializer@nlohmann@@@2@AEA_N@Z 0000000140073c90 f i main.obj
 0001:00072df0       ??$handle_value@W4value_t@detail@nlohmann@@@?$json_sax_dom_callback_parser@V?$basic_json@Vmap@std@@Vvector@2@V?$basic_string@DU?$char_traits@D@std@@V?$allocator@D@2@@2@_N_J_KNVallocator@2@Uadl_serializer@nlohmann@@@nlohmann@@@detail@nlohmann@@AEAA?AU?$pair@_NPEAV?$basic_json@Vmap@std@@Vvector@2@V?$basic_string@DU?$char_traits@D@std@@V?$allocator@D@2@@2@_N_J_KNVallocator@2@Uadl_serializer@nlohmann@@@nlohmann@@@std@@$$QEAW4value_t@12@_N@Z 0000000140073df0 f i main.obj
 0001:00073330       ??$erase@V?$iter_impl@V?$basic_json@Vmap@std@@Vvector@2@V?$basic_string@DU?$char_traits@D@std@@V?$allocator@D@2@@2@_N_J_KNVallocator@2@Uadl_serializer@nlohmann@@@nlohmann@@@detail@nlohmann@@$0A@@?$basic_json@Vmap@std@@Vvector@2@V?$basic_string@DU?$char_traits@D@std@@V?$allocator@D@2@@2@_N_J_KNVallocator@2@Uadl_serializer@nlohmann@@@nlohmann@@QEAA?AV?$iter_impl@V?$basic_json@Vmap@std@@Vvector@2@V?$basic_string@DU?$char_traits@D@std@@V?$allocator@D@2@@2@_N_J_KNVallocator@2@Uadl_serializer@nlohmann@@@nlohmann@@@detail@1@V231@@Z 0000000140074330 f i main.obj
 0001:00073640       ??$handle_value@AEAV?$basic_string@DU?$char_traits@D@std@@V?$allocator@D@2@@std@@@?$json_sax_dom_callback_parser@V?$basic_json@Vmap@std@@Vvector@2@V?$basic_string@DU?$char_traits@D@std@@V?$allocator@D@2@@2@_N_J_KNVallocator@2@Uadl_serializer@nlohmann@@@nlohmann@@@detail@nlohmann@@AEAA?AU?$pair@_NPEAV?$basic_json@Vmap@std@@Vvector@2@V?$basic_string@DU?$char_traits@D@std@@V?$allocator@D@2@@2@_N_J_KNVallocator@2@Uadl_serializer@nlohmann@@@nlohmann@@@std@@AEAV?$basic_string@DU?$char_traits@D@std@@V?$allocator@D@2@@4@_N@Z 0000000140074640 f i main.obj
 0001:00073ae0       ??$handle_value@AEAN@?$json_sax_dom_callback_parser@V?$basic_json@Vmap@std@@Vvector@2@V?$basic_string@DU?$char_traits@D@std@@V?$allocator@D@2@@2@_N_J_KNVallocator@2@Uadl_serializer@nlohmann@@@nlohmann@@@detail@nlohmann@@AEAA?AU?$pair@_NPEAV?$basic_json@Vmap@std@@Vvector@2@V?$basic_string@DU?$char_traits@D@std@@V?$allocator@D@2@@2@_N_J_KNVallocator@2@Uadl_serializer@nlohmann@@@nlohmann@@@std@@AEAN_N@Z 0000000140074ae0 f i main.obj
 0001:00073fd0       ??$handle_value@AEA_K@?$json_sax_dom_callback_parser@V?$basic_json@Vmap@std@@Vvector@2@V?$basic_string@DU?$char_traits@D@std@@V?$allocator@D@2@@2@_N_J_KNVallocator@2@Uadl_serializer@nlohmann@@@nlohmann@@@detail@nlohmann@@AEAA?AU?$pair@_NPEAV?$basic_json@Vmap@std@@Vvector@2@V?$basic_string@DU?$char_traits@D@std@@V?$allocator@D@2@@2@_N_J_KNVallocator@2@Uadl_serializer@nlohmann@@@nlohmann@@@std@@AEA_K_N@Z 0000000140074fd0 f i main.obj
 0001:000744c0       ??$handle_value@AEA_J@?$json_sax_dom_callback_parser@V?$basic_json@Vmap@std@@Vvector@2@V?$basic_string@DU?$char_traits@D@std@@V?$allocator@D@2@@2@_N_J_KNVallocator@2@Uadl_serializer@nlohmann@@@nlohmann@@@detail@nlohmann@@AEAA?AU?$pair@_NPEAV?$basic_json@Vmap@std@@Vvector@2@V?$basic_string@DU?$char_traits@D@std@@V?$allocator@D@2@@2@_N_J_KNVallocator@2@Uadl_serializer@nlohmann@@@nlohmann@@@std@@AEA_J_N@Z 00000001400754c0 f i main.obj
 0001:000749b0       ??$handle_value@AEA_N@?$json_sax_dom_callback_parser@V?$basic_json@Vmap@std@@Vvector@2@V?$basic_string@DU?$char_traits@D@std@@V?$allocator@D@2@@2@_N_J_KNVallocator@2@Uadl_serializer@nlohmann@@@nlohmann@@@detail@nlohmann@@AEAA?AU?$pair@_NPEAV?$basic_json@Vmap@std@@Vvector@2@V?$basic_string@DU?$char_traits@D@std@@V?$allocator@D@2@@2@_N_J_KNVallocator@2@Uadl_serializer@nlohmann@@@nlohmann@@@std@@AEA_N_N@Z 00000001400759b0 f i main.obj
 0001:00074ea0       ??$handle_value@$$T@?$json_sax_dom_callback_parser@V?$basic_json@Vmap@std@@Vvector@2@V?$basic_string@DU?$char_traits@D@std@@V?$allocator@D@2@@2@_N_J_KNVallocator@2@Uadl_serializer@nlohmann@@@nlohmann@@@detail@nlohmann@@AEAA?AU?$pair@_NPEAV?$basic_json@Vmap@std@@Vvector@2@V?$basic_string@DU?$char_traits@D@std@@V?$allocator@D@2@@2@_N_J_KNVallocator@2@Uadl_serializer@nlohmann@@@nlohmann@@@std@@$$QEA$$T_N@Z 0000000140075ea0 f i main.obj
 0001:00075340       ??$_Reallocate_grow_by@V<lambda_f3a66ab6a0570788f31503db83886f49>@@_KPEBD_K@?$basic_string@DU?$char_traits@D@std@@V?$allocator@D@2@@std@@AEAAAEAV01@_KV<lambda_f3a66ab6a0570788f31503db83886f49>@@_KPEBD2@Z 0000000140076340 f i main.obj
 0001:000754f0       ??$_Emplace_reallocate@AEBQEAV?$basic_json@Vmap@std@@Vvector@2@V?$basic_string@DU?$char_traits@D@std@@V?$allocator@D@2@@2@_N_J_KNVallocator@2@Uadl_serializer@nlohmann@@@nlohmann@@@?$vector@PEAV?$basic_json@Vmap@std@@Vvector@2@V?$basic_string@DU?$char_traits@D@std@@V?$allocator@D@2@@2@_N_J_KNVallocator@2@Uadl_serializer@nlohmann@@@nlohmann@@V?$allocator@PEAV?$basic_json@Vmap@std@@Vvector@2@V?$basic_string@DU?$char_traits@D@std@@V?$allocator@D@2@@2@_N_J_KNVallocator@2@Uadl_serializer@nlohmann@@@nlohmann@@@std@@@std@@QEAAPEAPEAV?$basic_json@Vmap@std@@Vvector@2@V?$basic_string@DU?$char_traits@D@std@@V?$allocator@D@2@@2@_N_J_KNVallocator@2@Uadl_serializer@nlohmann@@@nlohmann@@QEAPEAV23@AEBQEAV23@@Z 00000001400764f0 f i main.obj
 0001:000754f0       ??$_Emplace_reallocate@PEAV?$basic_json@Vmap@std@@Vvector@2@V?$basic_string@DU?$char_traits@D@std@@V?$allocator@D@2@@2@_N_J_KNVallocator@2@Uadl_serializer@nlohmann@@@nlohmann@@@?$vector@PEAV?$basic_json@Vmap@std@@Vvector@2@V?$basic_string@DU?$char_traits@D@std@@V?$allocator@D@2@@2@_N_J_KNVallocator@2@Uadl_serializer@nlohmann@@@nlohmann@@V?$allocator@PEAV?$basic_json@Vmap@std@@Vvector@2@V?$basic_string@DU?$char_traits@D@std@@V?$allocator@D@2@@2@_N_J_KNVallocator@2@Uadl_serializer@nlohmann@@@nlohmann@@@std@@@std@@QEAAPEAPEAV?$basic_json@Vmap@std@@Vvector@2@V?$basic_string@DU?$char_traits@D@std@@V?$allocator@D@2@@2@_N_J_KNVallocator@2@Uadl_serializer@nlohmann@@@nlohmann@@QEAPEAV23@$$QEAPEAV23@@Z 00000001400764f0 f i main.obj
 0001:000755f0       ??1?$unique_ptr@V?$vector@V?$basic_json@Vmap@std@@Vvector@2@V?$basic_string@DU?$char_traits@D@std@@V?$allocator@D@2@@2@_N_J_KNVallocator@2@Uadl_serializer@nlohmann@@@nlohmann@@V?$allocator@V?$basic_json@Vmap@std@@Vvector@2@V?$basic_string@DU?$char_traits@D@std@@V?$allocator@D@2@@2@_N_J_KNVallocator@2@Uadl_serializer@nlohmann@@@nlohmann@@@std@@@std@@V<lambda_6c491cd8f4c682378542992818b9a23c>@@@std@@QEAA@XZ 00000001400765f0 f i main.obj
 0001:00075610       ?_Delete_this@?$_Func_impl_no_alloc@V<lambda_202dd44b79ed805f6289af950b2eac1c>@@X$$V@std@@EEAAX_N@Z 0000000140076610 f i main.obj
 0001:00075610       ?_Delete_this@?$_Func_impl_no_alloc@V<lambda_713ee8bbd6b08550d59c52695cab5ce3>@@X$$V@std@@EEAAX_N@Z 0000000140076610 f i main.obj
 0001:00075610       ?_Delete_this@?$_Func_impl_no_alloc@V<lambda_763529b0c7473cbc215a52d189ac9b18>@@X$$V@std@@EEAAX_N@Z 0000000140076610 f i main.obj
 0001:00075620       ?_Target_type@?$_Func_impl_no_alloc@V<lambda_763529b0c7473cbc215a52d189ac9b18>@@X$$V@std@@EEBAAEBVtype_info@@XZ 0000000140076620 f i main.obj
 0001:00075630       ?_Do_call@?$_Func_impl_no_alloc@V<lambda_763529b0c7473cbc215a52d189ac9b18>@@X$$V@std@@EEAAXXZ 0000000140076630 f i main.obj
 0001:00075640       ?_Copy@?$_Func_impl_no_alloc@V<lambda_763529b0c7473cbc215a52d189ac9b18>@@X$$V@std@@EEBAPEAV?$_Func_base@X$$V@2@PEAX@Z 0000000140076640 f i main.obj
 0001:00075640       ?_Move@?$_Func_impl_no_alloc@V<lambda_763529b0c7473cbc215a52d189ac9b18>@@X$$V@std@@EEAAPEAV?$_Func_base@X$$V@2@PEAX@Z 0000000140076640 f i main.obj
 0001:00075660       ??1?$_Tidy_deallocate_guard@V?$basic_string@DU?$char_traits@D@std@@V?$allocator@D@2@@std@@@std@@QEAA@XZ 0000000140076660 f i main.obj
 0001:00075670       ?_Get_value@?$_Task_async_state@X@std@@UEAAAEAH_N@Z 0000000140076670 f i main.obj
 0001:000757d0       ?_Wait@?$_Task_async_state@X@std@@UEAAXXZ 00000001400767d0 f i main.obj
 0001:000757f0       ?_Get_all_bits@?$_Rng_from_urng@IV?$mersenne_twister_engine@I$0CA@$0CHA@$0BIN@$0BP@$0JJAILANP@$0L@$0PPPPPPPP@$06$0JNCMFGIA@$0P@$0OPMGAAAA@$0BC@$0GMAHIJGF@@std@@@std@@QEAAIXZ 00000001400767f0 f i main.obj
 0001:000759f0       ??R?$_Rng_from_urng@IV?$mersenne_twister_engine@I$0CA@$0CHA@$0BIN@$0BP@$0JJAILANP@$0L@$0PPPPPPPP@$06$0JNCMFGIA@$0P@$0OPMGAAAA@$0BC@$0GMAHIJGF@@std@@@std@@QEAAII@Z 00000001400769f0 f i main.obj
 0001:00075c40       ?MoveInto@?$AlgorithmParametersTemplate@PEBH@CryptoPP@@UEBAXPEAX@Z 0000000140076c40 f i main.obj
 0001:00075c80       ?AssignValue@?$AlgorithmParametersTemplate@PEBH@CryptoPP@@UEBAXPEBDAEBVtype_info@@PEAX@Z 0000000140076c80 f i main.obj
 0001:00075d50       ?_Delete_this@?$_Func_impl_no_alloc@V<lambda_052e919cc0e5399df76dff3972c0cac1>@@E$$V@std@@EEAAX_N@Z 0000000140076d50 f i main.obj
 0001:00075db0       ?_Target_type@?$_Func_impl_no_alloc@V<lambda_052e919cc0e5399df76dff3972c0cac1>@@E$$V@std@@EEBAAEBVtype_info@@XZ 0000000140076db0 f i main.obj
 0001:00075dc0       ?_Do_call@?$_Func_impl_no_alloc@V<lambda_052e919cc0e5399df76dff3972c0cac1>@@E$$V@std@@EEAAEXZ 0000000140076dc0 f i main.obj
 0001:00075df0       ?_Copy@?$_Func_impl_no_alloc@V<lambda_052e919cc0e5399df76dff3972c0cac1>@@E$$V@std@@EEBAPEAV?$_Func_base@E$$V@2@PEAX@Z 0000000140076df0 f i main.obj
 0001:00075e60       ?_Target_type@?$_Func_impl_no_alloc@V<lambda_713ee8bbd6b08550d59c52695cab5ce3>@@X$$V@std@@EEBAAEBVtype_info@@XZ 0000000140076e60 f i main.obj
 0001:00075e70       ?_Do_call@?$_Func_impl_no_alloc@V<lambda_713ee8bbd6b08550d59c52695cab5ce3>@@X$$V@std@@EEAAXXZ 0000000140076e70 f i main.obj
 0001:00075e80       ?_Move@?$_Func_impl_no_alloc@V<lambda_713ee8bbd6b08550d59c52695cab5ce3>@@X$$V@std@@EEAAPEAV?$_Func_base@X$$V@2@PEAX@Z 0000000140076e80 f i main.obj
 0001:00075e80       ?_Copy@?$_Func_impl_no_alloc@V<lambda_713ee8bbd6b08550d59c52695cab5ce3>@@X$$V@std@@EEBAPEAV?$_Func_base@X$$V@2@PEAX@Z 0000000140076e80 f i main.obj
 0001:00075ea0       ?_Delete_this@?$_Func_impl_no_alloc@V<lambda_f25c37099038263181b5186a3fa41b37>@@X$$V@std@@EEAAX_N@Z 0000000140076ea0 f i main.obj
 0001:00075f20       ?_Target_type@?$_Func_impl_no_alloc@V<lambda_f25c37099038263181b5186a3fa41b37>@@X$$V@std@@EEBAAEBVtype_info@@XZ 0000000140076f20 f i main.obj
 0001:00075f30       ?_Do_call@?$_Func_impl_no_alloc@V<lambda_f25c37099038263181b5186a3fa41b37>@@X$$V@std@@EEAAXXZ 0000000140076f30 f i main.obj
 0001:00075f50       ?_Move@?$_Func_impl_no_alloc@V<lambda_f25c37099038263181b5186a3fa41b37>@@X$$V@std@@EEAAPEAV?$_Func_base@X$$V@2@PEAX@Z 0000000140076f50 f i main.obj
 0001:00075f90       ?_Copy@?$_Func_impl_no_alloc@V<lambda_f25c37099038263181b5186a3fa41b37>@@X$$V@std@@EEBAPEAV?$_Func_base@X$$V@2@PEAX@Z 0000000140076f90 f i main.obj
 0001:00075fd0       ?_Change_array@?$vector@PEAV?$basic_json@Vmap@std@@Vvector@2@V?$basic_string@DU?$char_traits@D@std@@V?$allocator@D@2@@2@_N_J_KNVallocator@2@Uadl_serializer@nlohmann@@@nlohmann@@V?$allocator@PEAV?$basic_json@Vmap@std@@Vvector@2@V?$basic_string@DU?$char_traits@D@std@@V?$allocator@D@2@@2@_N_J_KNVallocator@2@Uadl_serializer@nlohmann@@@nlohmann@@@std@@@std@@AEAAXQEAPEAV?$basic_json@Vmap@std@@Vvector@2@V?$basic_string@DU?$char_traits@D@std@@V?$allocator@D@2@@2@_N_J_KNVallocator@2@Uadl_serializer@nlohmann@@@nlohmann@@_K1@Z 0000000140076fd0 f i main.obj
 0001:00076060       ?allocate@?$allocator@PEAV?$basic_json@Vmap@std@@Vvector@2@V?$basic_string@DU?$char_traits@D@std@@V?$allocator@D@2@@2@_N_J_KNVallocator@2@Uadl_serializer@nlohmann@@@nlohmann@@@std@@QEAAPEAPEAV?$basic_json@Vmap@std@@Vvector@2@V?$basic_string@DU?$char_traits@D@std@@V?$allocator@D@2@@2@_N_J_KNVallocator@2@Uadl_serializer@nlohmann@@@nlohmann@@_K@Z 0000000140077060 f i main.obj
 0001:000760d0       ?_Insert_node@?$_Tree_val@U?$_Tree_simple_types@U?$pair@$$CBV?$basic_string@DU?$char_traits@D@std@@V?$allocator@D@2@@std@@V?$basic_json@Vmap@std@@Vvector@2@V?$basic_string@DU?$char_traits@D@std@@V?$allocator@D@2@@2@_N_J_KNVallocator@2@Uadl_serializer@nlohmann@@@nlohmann@@@std@@@std@@@std@@QEAAPEAU?$_Tree_node@U?$pair@$$CBV?$basic_string@DU?$char_traits@D@std@@V?$allocator@D@2@@std@@V?$basic_json@Vmap@std@@Vvector@2@V?$basic_string@DU?$char_traits@D@std@@V?$allocator@D@2@@2@_N_J_KNVallocator@2@Uadl_serializer@nlohmann@@@nlohmann@@@std@@PEAX@2@U?$_Tree_id@PEAU?$_Tree_node@U?$pair@$$CBV?$basic_string@DU?$char_traits@D@std@@V?$allocator@D@2@@std@@V?$basic_json@Vmap@std@@Vvector@2@V?$basic_string@DU?$char_traits@D@std@@V?$allocator@D@2@@2@_N_J_KNVallocator@2@Uadl_serializer@nlohmann@@@nlohmann@@@std@@PEAX@std@@@2@QEAU32@@Z 00000001400770d0 f i main.obj
 0001:00076350       ?_Equal@?$basic_string@DU?$char_traits@D@std@@V?$allocator@D@2@@std@@QEBA_NQEBD@Z 0000000140077350 f i main.obj
 0001:000763a0       ??1?$_Tree_temp_node_alloc@V?$allocator@U?$_Tree_node@U?$pair@$$CBV?$basic_string@DU?$char_traits@D@std@@V?$allocator@D@2@@std@@V?$basic_json@Vmap@std@@Vvector@2@V?$basic_string@DU?$char_traits@D@std@@V?$allocator@D@2@@2@_N_J_KNVallocator@2@Uadl_serializer@nlohmann@@@nlohmann@@@std@@PEAX@std@@@std@@@std@@QEAA@XZ 00000001400773a0 f i main.obj
 0001:000763a0       ??1?$_Alloc_construct_ptr@V?$allocator@U?$_Tree_node@U?$pair@$$CBV?$basic_string@DU?$char_traits@D@std@@V?$allocator@D@2@@std@@V?$basic_json@Vmap@std@@Vvector@2@V?$basic_string@DU?$char_traits@D@std@@V?$allocator@D@2@@2@_N_J_KNVallocator@2@Uadl_serializer@nlohmann@@@nlohmann@@@std@@PEAX@std@@@std@@@std@@QEAA@XZ 00000001400773a0 f i main.obj
 0001:000763c0       ??_G?$_Task_async_state@X@std@@UEAAPEAXI@Z 00000001400773c0 f i main.obj
 0001:000763c0       ??_E?$_Task_async_state@X@std@@UEAAPEAXI@Z 00000001400773c0 f i * CIL library *:* CIL module *
 0001:00076470       ??1?$_Packaged_state@$$A6AXXZ@std@@UEAA@XZ 0000000140077470 f i main.obj
 0001:000764f0       ?_Call_immediate@?$_Packaged_state@$$A6AXXZ@std@@QEAAXXZ 00000001400774f0 f i main.obj
 0001:000765a0       ?_Rrotate@?$_Tree_val@U?$_Tree_simple_types@U?$pair@$$CBV?$basic_string@DU?$char_traits@D@std@@V?$allocator@D@2@@std@@V?$basic_json@Vmap@std@@Vvector@2@V?$basic_string@DU?$char_traits@D@std@@V?$allocator@D@2@@2@_N_J_KNVallocator@2@Uadl_serializer@nlohmann@@@nlohmann@@@std@@@std@@@std@@QEAAXPEAU?$_Tree_node@U?$pair@$$CBV?$basic_string@DU?$char_traits@D@std@@V?$allocator@D@2@@std@@V?$basic_json@Vmap@std@@Vvector@2@V?$basic_string@DU?$char_traits@D@std@@V?$allocator@D@2@@2@_N_J_KNVallocator@2@Uadl_serializer@nlohmann@@@nlohmann@@@std@@PEAX@2@@Z 00000001400775a0 f i main.obj
 0001:00076600       ?_Lrotate@?$_Tree_val@U?$_Tree_simple_types@U?$pair@$$CBV?$basic_string@DU?$char_traits@D@std@@V?$allocator@D@2@@std@@V?$basic_json@Vmap@std@@Vvector@2@V?$basic_string@DU?$char_traits@D@std@@V?$allocator@D@2@@2@_N_J_KNVallocator@2@Uadl_serializer@nlohmann@@@nlohmann@@@std@@@std@@@std@@QEAAXPEAU?$_Tree_node@U?$pair@$$CBV?$basic_string@DU?$char_traits@D@std@@V?$allocator@D@2@@std@@V?$basic_json@Vmap@std@@Vvector@2@V?$basic_string@DU?$char_traits@D@std@@V?$allocator@D@2@@2@_N_J_KNVallocator@2@Uadl_serializer@nlohmann@@@nlohmann@@@std@@PEAX@2@@Z 0000000140077600 f i main.obj
 0001:00076660       ??1_Guard_type@?1???$_Global_new@V?$_Func_impl_no_alloc@V<lambda_052e919cc0e5399df76dff3972c0cac1>@@E$$V@std@@V<lambda_052e919cc0e5399df76dff3972c0cac1>@@@std@@YAPEAV?$_Func_impl_no_alloc@V<lambda_052e919cc0e5399df76dff3972c0cac1>@@E$$V@1@$$QEAV<lambda_052e919cc0e5399df76dff3972c0cac1>@@@Z@QEAA@XZ 0000000140077660 f i main.obj
 0001:00076660       ??1_Guard_type@?1???$_Global_new@V?$_Func_impl_no_alloc@V<lambda_052e919cc0e5399df76dff3972c0cac1>@@E$$V@std@@AEBV<lambda_052e919cc0e5399df76dff3972c0cac1>@@@std@@YAPEAV?$_Func_impl_no_alloc@V<lambda_052e919cc0e5399df76dff3972c0cac1>@@E$$V@1@AEBV<lambda_052e919cc0e5399df76dff3972c0cac1>@@@Z@QEAA@XZ 0000000140077660 f i main.obj
 0001:00076680       ??$hash256_impl@V?$_String_const_iterator@V?$_String_val@U?$_Simple_types@D@std@@@std@@@std@@PEAE@impl@picosha2@@YAXV?$_String_const_iterator@V?$_String_val@U?$_Simple_types@D@std@@@std@@@std@@0PEAE1HUrandom_access_iterator_tag@3@@Z 0000000140077680 f i main.obj
 0001:00076890       ??$_Eqrange@$$BY0BC@D@?$_Tree@V?$_Tmap_traits@V?$basic_string@DU?$char_traits@D@std@@V?$allocator@D@2@@std@@V?$basic_json@Vmap@std@@Vvector@2@V?$basic_string@DU?$char_traits@D@std@@V?$allocator@D@2@@2@_N_J_KNVallocator@2@Uadl_serializer@nlohmann@@@nlohmann@@U?$less@X@2@V?$allocator@U?$pair@$$CBV?$basic_string@DU?$char_traits@D@std@@V?$allocator@D@2@@std@@V?$basic_json@Vmap@std@@Vvector@2@V?$basic_string@DU?$char_traits@D@std@@V?$allocator@D@2@@2@_N_J_KNVallocator@2@Uadl_serializer@nlohmann@@@nlohmann@@@std@@@2@$0A@@std@@@std@@IEBA?AU?$pair@PEAU?$_Tree_node@U?$pair@$$CBV?$basic_string@DU?$char_traits@D@std@@V?$allocator@D@2@@std@@V?$basic_json@Vmap@std@@Vvector@2@V?$basic_string@DU?$char_traits@D@std@@V?$allocator@D@2@@2@_N_J_KNVallocator@2@Uadl_serializer@nlohmann@@@nlohmann@@@std@@PEAX@std@@PEAU12@@1@AEAY0BC@$$CBD@Z 0000000140077890 f i main.obj
 0001:00076a10       ??$distance@V?$_Tree_unchecked_const_iterator@V?$_Tree_val@U?$_Tree_simple_types@U?$pair@$$CBV?$basic_string@DU?$char_traits@D@std@@V?$allocator@D@2@@std@@V?$basic_json@Vmap@std@@Vvector@2@V?$basic_string@DU?$char_traits@D@std@@V?$allocator@D@2@@2@_N_J_KNVallocator@2@Uadl_serializer@nlohmann@@@nlohmann@@@std@@@std@@@std@@U_Iterator_base0@2@@std@@@std@@YA_JV?$_Tree_unchecked_const_iterator@V?$_Tree_val@U?$_Tree_simple_types@U?$pair@$$CBV?$basic_string@DU?$char_traits@D@std@@V?$allocator@D@2@@std@@V?$basic_json@Vmap@std@@Vvector@2@V?$basic_string@DU?$char_traits@D@std@@V?$allocator@D@2@@2@_N_J_KNVallocator@2@Uadl_serializer@nlohmann@@@nlohmann@@@std@@@std@@@std@@U_Iterator_base0@2@@0@0@Z 0000000140077a10 f i main.obj
 0001:00076a80       ??$?0V?$_Fake_no_copy_callable_adapter@A6AX_N@Z_N@std@@@?$_Task_async_state@X@std@@QEAA@$$QEAV?$_Fake_no_copy_callable_adapter@A6AX_N@Z_N@1@@Z 0000000140077a80 f i main.obj
 0001:00076c60       ??$compute_boundaries@N@dtoa_impl@detail@nlohmann@@YA?AUboundaries@012@N@Z 0000000140077c60 f i main.obj
 0001:00076e90       ??$_Emplace_reallocate@W4value_t@detail@nlohmann@@@?$vector@V?$basic_json@Vmap@std@@Vvector@2@V?$basic_string@DU?$char_traits@D@std@@V?$allocator@D@2@@2@_N_J_KNVallocator@2@Uadl_serializer@nlohmann@@@nlohmann@@V?$allocator@V?$basic_json@Vmap@std@@Vvector@2@V?$basic_string@DU?$char_traits@D@std@@V?$allocator@D@2@@2@_N_J_KNVallocator@2@Uadl_serializer@nlohmann@@@nlohmann@@@std@@@std@@QEAAPEAV?$basic_json@Vmap@std@@Vvector@2@V?$basic_string@DU?$char_traits@D@std@@V?$allocator@D@2@@2@_N_J_KNVallocator@2@Uadl_serializer@nlohmann@@@nlohmann@@QEAV23@$$QEAW4value_t@detail@3@@Z 0000000140077e90 f i main.obj
 0001:00076fb0       ??$_Emplace_reallocate@AEAV?$basic_string@DU?$char_traits@D@std@@V?$allocator@D@2@@std@@@?$vector@V?$basic_json@Vmap@std@@Vvector@2@V?$basic_string@DU?$char_traits@D@std@@V?$allocator@D@2@@2@_N_J_KNVallocator@2@Uadl_serializer@nlohmann@@@nlohmann@@V?$allocator@V?$basic_json@Vmap@std@@Vvector@2@V?$basic_string@DU?$char_traits@D@std@@V?$allocator@D@2@@2@_N_J_KNVallocator@2@Uadl_serializer@nlohmann@@@nlohmann@@@std@@@std@@QEAAPEAV?$basic_json@Vmap@std@@Vvector@2@V?$basic_string@DU?$char_traits@D@std@@V?$allocator@D@2@@2@_N_J_KNVallocator@2@Uadl_serializer@nlohmann@@@nlohmann@@QEAV23@AEAV?$basic_string@DU?$char_traits@D@std@@V?$allocator@D@2@@1@@Z 0000000140077fb0 f i main.obj
 0001:000770c0       ??$_Emplace_reallocate@AEAN@?$vector@V?$basic_json@Vmap@std@@Vvector@2@V?$basic_string@DU?$char_traits@D@std@@V?$allocator@D@2@@2@_N_J_KNVallocator@2@Uadl_serializer@nlohmann@@@nlohmann@@V?$allocator@V?$basic_json@Vmap@std@@Vvector@2@V?$basic_string@DU?$char_traits@D@std@@V?$allocator@D@2@@2@_N_J_KNVallocator@2@Uadl_serializer@nlohmann@@@nlohmann@@@std@@@std@@QEAAPEAV?$basic_json@Vmap@std@@Vvector@2@V?$basic_string@DU?$char_traits@D@std@@V?$allocator@D@2@@2@_N_J_KNVallocator@2@Uadl_serializer@nlohmann@@@nlohmann@@QEAV23@AEAN@Z 00000001400780c0 f i main.obj
 0001:000771d0       ??$_Emplace_reallocate@AEA_K@?$vector@V?$basic_json@Vmap@std@@Vvector@2@V?$basic_string@DU?$char_traits@D@std@@V?$allocator@D@2@@2@_N_J_KNVallocator@2@Uadl_serializer@nlohmann@@@nlohmann@@V?$allocator@V?$basic_json@Vmap@std@@Vvector@2@V?$basic_string@DU?$char_traits@D@std@@V?$allocator@D@2@@2@_N_J_KNVallocator@2@Uadl_serializer@nlohmann@@@nlohmann@@@std@@@std@@QEAAPEAV?$basic_json@Vmap@std@@Vvector@2@V?$basic_string@DU?$char_traits@D@std@@V?$allocator@D@2@@2@_N_J_KNVallocator@2@Uadl_serializer@nlohmann@@@nlohmann@@QEAV23@AEA_K@Z 00000001400781d0 f i main.obj
 0001:000772e0       ??$_Emplace_reallocate@AEA_J@?$vector@V?$basic_json@Vmap@std@@Vvector@2@V?$basic_string@DU?$char_traits@D@std@@V?$allocator@D@2@@2@_N_J_KNVallocator@2@Uadl_serializer@nlohmann@@@nlohmann@@V?$allocator@V?$basic_json@Vmap@std@@Vvector@2@V?$basic_string@DU?$char_traits@D@std@@V?$allocator@D@2@@2@_N_J_KNVallocator@2@Uadl_serializer@nlohmann@@@nlohmann@@@std@@@std@@QEAAPEAV?$basic_json@Vmap@std@@Vvector@2@V?$basic_string@DU?$char_traits@D@std@@V?$allocator@D@2@@2@_N_J_KNVallocator@2@Uadl_serializer@nlohmann@@@nlohmann@@QEAV23@AEA_J@Z 00000001400782e0 f i main.obj
 0001:000773f0       ??$_Emplace_reallocate@AEA_N@?$vector@V?$basic_json@Vmap@std@@Vvector@2@V?$basic_string@DU?$char_traits@D@std@@V?$allocator@D@2@@2@_N_J_KNVallocator@2@Uadl_serializer@nlohmann@@@nlohmann@@V?$allocator@V?$basic_json@Vmap@std@@Vvector@2@V?$basic_string@DU?$char_traits@D@std@@V?$allocator@D@2@@2@_N_J_KNVallocator@2@Uadl_serializer@nlohmann@@@nlohmann@@@std@@@std@@QEAAPEAV?$basic_json@Vmap@std@@Vvector@2@V?$basic_string@DU?$char_traits@D@std@@V?$allocator@D@2@@2@_N_J_KNVallocator@2@Uadl_serializer@nlohmann@@@nlohmann@@QEAV23@AEA_N@Z 00000001400783f0 f i main.obj
 0001:000774f0       ??$_Emplace_reallocate@$$T@?$vector@V?$basic_json@Vmap@std@@Vvector@2@V?$basic_string@DU?$char_traits@D@std@@V?$allocator@D@2@@2@_N_J_KNVallocator@2@Uadl_serializer@nlohmann@@@nlohmann@@V?$allocator@V?$basic_json@Vmap@std@@Vvector@2@V?$basic_string@DU?$char_traits@D@std@@V?$allocator@D@2@@2@_N_J_KNVallocator@2@Uadl_serializer@nlohmann@@@nlohmann@@@std@@@std@@QEAAPEAV?$basic_json@Vmap@std@@Vvector@2@V?$basic_string@DU?$char_traits@D@std@@V?$allocator@D@2@@2@_N_J_KNVallocator@2@Uadl_serializer@nlohmann@@@nlohmann@@QEAV23@$$QEA$$T@Z 00000001400784f0 f i main.obj
 0001:000775e0       ??$_Find_lower_bound@V?$basic_string@DU?$char_traits@D@std@@V?$allocator@D@2@@std@@@?$_Tree@V?$_Tmap_traits@V?$basic_string@DU?$char_traits@D@std@@V?$allocator@D@2@@std@@V?$basic_json@Vmap@std@@Vvector@2@V?$basic_string@DU?$char_traits@D@std@@V?$allocator@D@2@@2@_N_J_KNVallocator@2@Uadl_serializer@nlohmann@@@nlohmann@@U?$less@X@2@V?$allocator@U?$pair@$$CBV?$basic_string@DU?$char_traits@D@std@@V?$allocator@D@2@@std@@V?$basic_json@Vmap@std@@Vvector@2@V?$basic_string@DU?$char_traits@D@std@@V?$allocator@D@2@@2@_N_J_KNVallocator@2@Uadl_serializer@nlohmann@@@nlohmann@@@std@@@2@$0A@@std@@@std@@IEBA?AU?$_Tree_find_result@PEAU?$_Tree_node@U?$pair@$$CBV?$basic_string@DU?$char_traits@D@std@@V?$allocator@D@2@@std@@V?$basic_json@Vmap@std@@Vvector@2@V?$basic_string@DU?$char_traits@D@std@@V?$allocator@D@2@@2@_N_J_KNVallocator@2@Uadl_serializer@nlohmann@@@nlohmann@@@std@@PEAX@std@@@1@AEBV?$basic_string@DU?$char_traits@D@std@@V?$allocator@D@2@@1@@Z 00000001400785e0 f i main.obj
 0001:000776b0       ??1hash256_one_by_one@picosha2@@QEAA@XZ 00000001400786b0 f i main.obj
 0001:00077710       ??1?$pair@$$CBV?$basic_string@DU?$char_traits@D@std@@V?$allocator@D@2@@std@@V?$basic_json@Vmap@std@@Vvector@2@V?$basic_string@DU?$char_traits@D@std@@V?$allocator@D@2@@2@_N_J_KNVallocator@2@Uadl_serializer@nlohmann@@@nlohmann@@@std@@QEAA@XZ 0000000140078710 f i main.obj
 0001:00077790       ?_Destroy@?$_Ref_count_obj2@Vinput_buffer_adapter@detail@nlohmann@@@std@@EEAAXXZ 0000000140078790 f i main.obj
 0001:000777a0       ??_E?$_Ref_count_obj2@Vinput_buffer_adapter@detail@nlohmann@@@std@@UEAAPEAXI@Z 00000001400787a0 f i * CIL library *:* CIL module *
 0001:000777a0       ??_G?$_Ref_count_obj2@Vinput_buffer_adapter@detail@nlohmann@@@std@@UEAAPEAXI@Z 00000001400787a0 f i main.obj
 0001:000777d0       ??1?$_Tidy_guard@V?$vector@V?$basic_json@Vmap@std@@Vvector@2@V?$basic_string@DU?$char_traits@D@std@@V?$allocator@D@2@@2@_N_J_KNVallocator@2@Uadl_serializer@nlohmann@@@nlohmann@@V?$allocator@V?$basic_json@Vmap@std@@Vvector@2@V?$basic_string@DU?$char_traits@D@std@@V?$allocator@D@2@@2@_N_J_KNVallocator@2@Uadl_serializer@nlohmann@@@nlohmann@@@std@@@std@@@std@@QEAA@XZ 00000001400787d0 f i main.obj
 0001:000777e0       ?_Extract@?$_Tree_val@U?$_Tree_simple_types@U?$pair@$$CBV?$basic_string@DU?$char_traits@D@std@@V?$allocator@D@2@@std@@V?$basic_json@Vmap@std@@Vvector@2@V?$basic_string@DU?$char_traits@D@std@@V?$allocator@D@2@@2@_N_J_KNVallocator@2@Uadl_serializer@nlohmann@@@nlohmann@@@std@@@std@@@std@@QEAAPEAU?$_Tree_node@U?$pair@$$CBV?$basic_string@DU?$char_traits@D@std@@V?$allocator@D@2@@std@@V?$basic_json@Vmap@std@@Vvector@2@V?$basic_string@DU?$char_traits@D@std@@V?$allocator@D@2@@2@_N_J_KNVallocator@2@Uadl_serializer@nlohmann@@@nlohmann@@@std@@PEAX@2@V?$_Tree_unchecked_const_iterator@V?$_Tree_val@U?$_Tree_simple_types@U?$pair@$$CBV?$basic_string@DU?$char_traits@D@std@@V?$allocator@D@2@@std@@V?$basic_json@Vmap@std@@Vvector@2@V?$basic_string@DU?$char_traits@D@std@@V?$allocator@D@2@@2@_N_J_KNVallocator@2@Uadl_serializer@nlohmann@@@nlohmann@@@std@@@std@@@std@@U_Iterator_base0@2@@2@@Z 00000001400787e0 f i main.obj
 0001:00077b60       ??$create_task@V<lambda_202dd44b79ed805f6289af950b2eac1c>@@@Concurrency@@YA?AV?$task@X@0@V<lambda_202dd44b79ed805f6289af950b2eac1c>@@Vtask_options@0@@Z 0000000140078b60 f i main.obj
 0001:00077c30       ??$?RAEBV?$basic_string@DU?$char_traits@D@std@@V?$allocator@D@2@@std@@AEBV01@@?$less@X@std@@QEBA_NAEBV?$basic_string@DU?$char_traits@D@std@@V?$allocator@D@2@@1@0@Z 0000000140078c30 f i main.obj
 0001:00077ca0       ??_E?$_Packaged_state@$$A6AXXZ@std@@UEAAPEAXI@Z 0000000140078ca0 f i * CIL library *:* CIL module *
 0001:00077ca0       ??_G?$_Packaged_state@$$A6AXXZ@std@@UEAAPEAXI@Z 0000000140078ca0 f i main.obj
 0001:00077ce0       ??0?$tuple@P6AX_N@Z_N@std@@QEAA@$$QEAV01@@Z 0000000140078ce0 f i main.obj
 0001:00077d00       ??1?$_Tree_head_scoped_ptr@V?$allocator@U?$_Tree_node@U?$pair@$$CBV?$basic_string@DU?$char_traits@D@std@@V?$allocator@D@2@@std@@V?$basic_json@Vmap@std@@Vvector@2@V?$basic_string@DU?$char_traits@D@std@@V?$allocator@D@2@@2@_N_J_KNVallocator@2@Uadl_serializer@nlohmann@@@nlohmann@@@std@@PEAX@std@@@std@@V?$_Tree_val@U?$_Tree_simple_types@U?$pair@$$CBV?$basic_string@DU?$char_traits@D@std@@V?$allocator@D@2@@std@@V?$basic_json@Vmap@std@@Vvector@2@V?$basic_string@DU?$char_traits@D@std@@V?$allocator@D@2@@2@_N_J_KNVallocator@2@Uadl_serializer@nlohmann@@@nlohmann@@@std@@@std@@@2@@std@@QEAA@XZ 0000000140078d00 f i main.obj
 0001:00077d40       ??$from_json@V?$basic_json@Vmap@std@@Vvector@2@V?$basic_string@DU?$char_traits@D@std@@V?$allocator@D@2@@2@_N_J_KNVallocator@2@Uadl_serializer@nlohmann@@@nlohmann@@@detail@nlohmann@@YAXAEBV?$basic_json@Vmap@std@@Vvector@2@V?$basic_string@DU?$char_traits@D@std@@V?$allocator@D@2@@2@_N_J_KNVallocator@2@Uadl_serializer@nlohmann@@@1@AEA_N@Z 0000000140078d40 f i main.obj
 0001:00077dd0       ??$from_json@V?$basic_json@Vmap@std@@Vvector@2@V?$basic_string@DU?$char_traits@D@std@@V?$allocator@D@2@@2@_N_J_KNVallocator@2@Uadl_serializer@nlohmann@@@nlohmann@@H$0A@@detail@nlohmann@@YAXAEBV?$basic_json@Vmap@std@@Vvector@2@V?$basic_string@DU?$char_traits@D@std@@V?$allocator@D@2@@2@_N_J_KNVallocator@2@Uadl_serializer@nlohmann@@@1@AEAH@Z 0000000140078dd0 f i main.obj
 0001:00077ed0       ??$from_json@V?$basic_json@Vmap@std@@Vvector@2@V?$basic_string@DU?$char_traits@D@std@@V?$allocator@D@2@@2@_N_J_KNVallocator@2@Uadl_serializer@nlohmann@@@nlohmann@@M$0A@@detail@nlohmann@@YAXAEBV?$basic_json@Vmap@std@@Vvector@2@V?$basic_string@DU?$char_traits@D@std@@V?$allocator@D@2@@2@_N_J_KNVallocator@2@Uadl_serializer@nlohmann@@@1@AEAM@Z 0000000140078ed0 f i main.obj
 0001:00078010       ??$hash256_block@PEAKV?$_Vector_iterator@V?$_Vector_val@U?$_Simple_types@E@std@@@std@@@std@@@detail@picosha2@@YAXPEAKV?$_Vector_iterator@V?$_Vector_val@U?$_Simple_types@E@std@@@std@@@std@@1@Z 0000000140079010 f i main.obj
 0001:000785f0       ??$?0V<lambda_202dd44b79ed805f6289af950b2eac1c>@@@?$task@X@Concurrency@@QEAA@V<lambda_202dd44b79ed805f6289af950b2eac1c>@@AEBVtask_options@1@@Z 00000001400795f0 f i main.obj
 0001:00078870       ??$_Copy_nodes@U_Copy_tag@?$_Tree@V?$_Tmap_traits@V?$basic_string@DU?$char_traits@D@std@@V?$allocator@D@2@@std@@V?$basic_json@Vmap@std@@Vvector@2@V?$basic_string@DU?$char_traits@D@std@@V?$allocator@D@2@@2@_N_J_KNVallocator@2@Uadl_serializer@nlohmann@@@nlohmann@@U?$less@X@2@V?$allocator@U?$pair@$$CBV?$basic_string@DU?$char_traits@D@std@@V?$allocator@D@2@@std@@V?$basic_json@Vmap@std@@Vvector@2@V?$basic_string@DU?$char_traits@D@std@@V?$allocator@D@2@@2@_N_J_KNVallocator@2@Uadl_serializer@nlohmann@@@nlohmann@@@std@@@2@$0A@@std@@@std@@@?$_Tree@V?$_Tmap_traits@V?$basic_string@DU?$char_traits@D@std@@V?$allocator@D@2@@std@@V?$basic_json@Vmap@std@@Vvector@2@V?$basic_string@DU?$char_traits@D@std@@V?$allocator@D@2@@2@_N_J_KNVallocator@2@Uadl_serializer@nlohmann@@@nlohmann@@U?$less@X@2@V?$allocator@U?$pair@$$CBV?$basic_string@DU?$char_traits@D@std@@V?$allocator@D@2@@std@@V?$basic_json@Vmap@std@@Vvector@2@V?$basic_string@DU?$char_traits@D@std@@V?$allocator@D@2@@2@_N_J_KNVallocator@2@Uadl_serializer@nlohmann@@@nlohmann@@@std@@@2@$0A@@std@@@std@@IEAAPEAU?$_Tree_node@U?$pair@$$CBV?$basic_string@DU?$char_traits@D@std@@V?$allocator@D@2@@std@@V?$basic_json@Vmap@std@@Vvector@2@V?$basic_string@DU?$char_traits@D@std@@V?$allocator@D@2@@2@_N_J_KNVallocator@2@Uadl_serializer@nlohmann@@@nlohmann@@@std@@PEAX@1@PEAU21@0U_Copy_tag@01@@Z 0000000140079870 f i main.obj
 0001:00078960       ?_Delete_this@?$_Func_impl_no_alloc@V?$_Fake_no_copy_callable_adapter@A6AX_N@Z_N@std@@X$$V@std@@EEAAX_N@Z 0000000140079960 f i main.obj
 0001:00078970       ?_Target_type@?$_Func_impl_no_alloc@V?$_Fake_no_copy_callable_adapter@A6AX_N@Z_N@std@@X$$V@std@@EEBAAEBVtype_info@@XZ 0000000140079970 f i main.obj
 0001:00078980       ?_Do_call@?$_Func_impl_no_alloc@V?$_Fake_no_copy_callable_adapter@A6AX_N@Z_N@std@@X$$V@std@@EEAAXXZ 0000000140079980 f i main.obj
 0001:00078990       ?_Move@?$_Func_impl_no_alloc@V?$_Fake_no_copy_callable_adapter@A6AX_N@Z_N@std@@X$$V@std@@EEAAPEAV?$_Func_base@X$$V@2@PEAX@Z 0000000140079990 f i main.obj
 0001:000789b0       ?_Copy@?$_Func_impl_no_alloc@V?$_Fake_no_copy_callable_adapter@A6AX_N@Z_N@std@@X$$V@std@@EEBAPEAV?$_Func_base@X$$V@2@PEAX@Z 00000001400799b0 f i main.obj
 0001:000789d0       ??$?0AEBV?$_Fake_no_copy_callable_adapter@A6AX_N@Z_N@std@@$0A@@?$_Func_impl_no_alloc@V?$_Fake_no_copy_callable_adapter@A6AX_N@Z_N@std@@X$$V@std@@QEAA@AEBV?$_Fake_no_copy_callable_adapter@A6AX_N@Z_N@1@@Z 00000001400799d0 f i main.obj
 0001:00078a00       ?invoke@?$_PPLTaskHandle@EU?$_InitialTaskHandle@XV<lambda_202dd44b79ed805f6289af950b2eac1c>@@U_TypeSelectorNoAsync@details@Concurrency@@@?$task@E@Concurrency@@U_TaskProcHandle@details@3@@details@Concurrency@@UEBAXXZ 0000000140079a00 f i main.obj
 0001:00078ad0       ??1?$_PPLTaskHandle@EU?$_InitialTaskHandle@XV<lambda_202dd44b79ed805f6289af950b2eac1c>@@U_TypeSelectorNoAsync@details@Concurrency@@@?$task@E@Concurrency@@U_TaskProcHandle@details@3@@details@Concurrency@@UEAA@XZ 0000000140079ad0 f i main.obj
 0001:00078b50       ??0?$_Fake_no_copy_callable_adapter@A6AX_N@Z_N@std@@QEAA@AEBV01@@Z 0000000140079b50 f i main.obj
 0001:00078b80       ??_E?$_InitialTaskHandle@XV<lambda_202dd44b79ed805f6289af950b2eac1c>@@U_TypeSelectorNoAsync@details@Concurrency@@@?$task@E@Concurrency@@UEAAPEAXI@Z 0000000140079b80 f i * CIL library *:* CIL module *
 0001:00078b80       ??_G?$_InitialTaskHandle@XV<lambda_202dd44b79ed805f6289af950b2eac1c>@@U_TypeSelectorNoAsync@details@Concurrency@@@?$task@E@Concurrency@@UEAAPEAXI@Z 0000000140079b80 f i main.obj
 0001:00078bc0       ??_G?$_PPLTaskHandle@EU?$_InitialTaskHandle@XV<lambda_202dd44b79ed805f6289af950b2eac1c>@@U_TypeSelectorNoAsync@details@Concurrency@@@?$task@E@Concurrency@@U_TaskProcHandle@details@3@@details@Concurrency@@UEAAPEAXI@Z 0000000140079bc0 f i main.obj
 0001:00078bc0       ??_E?$_PPLTaskHandle@EU?$_InitialTaskHandle@XV<lambda_202dd44b79ed805f6289af950b2eac1c>@@U_TypeSelectorNoAsync@details@Concurrency@@@?$task@E@Concurrency@@U_TaskProcHandle@details@3@@details@Concurrency@@UEAAPEAXI@Z 0000000140079bc0 f i * CIL library *:* CIL module *
 0001:00078c00       ?_Init@?$_InitialTaskHandle@XV<lambda_202dd44b79ed805f6289af950b2eac1c>@@U_TypeSelectorNoAsync@details@Concurrency@@@?$task@E@Concurrency@@QEBAXU_TypeSelectorNoAsync@details@3@@Z 0000000140079c00 f i main.obj
 0001:00078df0       ?_Target_type@?$_Func_impl_no_alloc@V<lambda_202dd44b79ed805f6289af950b2eac1c>@@X$$V@std@@EEBAAEBVtype_info@@XZ 0000000140079df0 f i main.obj
 0001:00078e00       ?_Do_call@?$_Func_impl_no_alloc@V<lambda_202dd44b79ed805f6289af950b2eac1c>@@X$$V@std@@EEAAXXZ 0000000140079e00 f i main.obj
 0001:00078e10       ?_Copy@?$_Func_impl_no_alloc@V<lambda_202dd44b79ed805f6289af950b2eac1c>@@X$$V@std@@EEBAPEAV?$_Func_base@X$$V@2@PEAX@Z 0000000140079e10 f i main.obj
 0001:00078e10       ?_Move@?$_Func_impl_no_alloc@V<lambda_202dd44b79ed805f6289af950b2eac1c>@@X$$V@std@@EEAAPEAV?$_Func_base@X$$V@2@PEAX@Z 0000000140079e10 f i main.obj
 0001:00078e28       ??_EProxyFilter@CryptoPP@@W7EAAPEAXI@Z 0000000140079e28 f i main.obj
 0001:00078e28       ??_EBase64Encoder@CryptoPP@@W7EAAPEAXI@Z 0000000140079e28 f i main.obj
 0001:00078e34       ??_EBaseN_Decoder@CryptoPP@@W7EAAPEAXI@Z 0000000140079e34 f i main.obj
 0001:00078e34       ??_EBase64Decoder@CryptoPP@@W7EAAPEAXI@Z 0000000140079e34 f i main.obj
 0001:00078e40       ??_EFilterWithBufferedInput@CryptoPP@@W7EAAPEAXI@Z 0000000140079e40 f i main.obj
 0001:00078e4c       ??_E?$basic_stringstream@DU?$char_traits@D@std@@V?$allocator@D@2@@std@@$4PPPPPPPM@A@EAAPEAXI@Z 0000000140079e4c f i main.obj
 0001:00078e58       ??_EGrouper@CryptoPP@@W7EAAPEAXI@Z 0000000140079e58 f i main.obj
 0001:00078e64       ??_EStringSource@CryptoPP@@W7EAAPEAXI@Z 0000000140079e64 f i main.obj
 0001:00078e64       ??_E?$SourceTemplate@VStringStore@CryptoPP@@@CryptoPP@@W7EAAPEAXI@Z 0000000140079e64 f i main.obj
 0001:00078e70       ??_EBaseN_Encoder@CryptoPP@@W7EAAPEAXI@Z 0000000140079e70 f i main.obj
 0001:00078e7c       ??_E?$basic_ifstream@DU?$char_traits@D@std@@@std@@$4PPPPPPPM@A@EAAPEAXI@Z 0000000140079e7c f i main.obj
 0001:00078e88       ??_E?$CipherModeFinalTemplate_CipherHolder@V?$BlockCipherFinal@$00VDec@Rijndael@CryptoPP@@@CryptoPP@@VCBC_Decryption@2@@CryptoPP@@W7EAAPEAXI@Z 0000000140079e88 f i main.obj
 0001:00078e94       ??_E?$basic_ofstream@DU?$char_traits@D@std@@@std@@$4PPPPPPPM@A@EAAPEAXI@Z 0000000140079e94 f i main.obj
 0001:00078ea0       ??_EStringStore@CryptoPP@@W7EAAPEAXI@Z 0000000140079ea0 f i main.obj
 0001:00078eac       ??_E?$basic_ostringstream@DU?$char_traits@D@std@@V?$allocator@D@2@@std@@$4PPPPPPPM@A@EAAPEAXI@Z 0000000140079eac f i main.obj
 0001:00078eb8       ??_E?$basic_istringstream@DU?$char_traits@D@std@@V?$allocator@D@2@@std@@$4PPPPPPPM@A@EAAPEAXI@Z 0000000140079eb8 f i main.obj
 0001:00078ec4       ??_E?$StringSinkTemplate@V?$basic_string@DU?$char_traits@D@std@@V?$allocator@D@2@@std@@@CryptoPP@@W7EAAPEAXI@Z 0000000140079ec4 f i main.obj
 0001:00078ed0       ??_E?$BlockCipherFinal@$00VDec@Rijndael@CryptoPP@@@CryptoPP@@W7EAAPEAXI@Z 0000000140079ed0 f i main.obj
 0001:00078ed0       ??_E?$BlockCipherFinal@$0A@VEnc@Rijndael@CryptoPP@@@CryptoPP@@W7EAAPEAXI@Z 0000000140079ed0 f i cryptopp-static:randpool.cpp.obj
 0001:00078ee0       ??$IntToString@H@CryptoPP@@YA?AV?$basic_string@DU?$char_traits@D@std@@V?$allocator@D@2@@std@@HI@Z 0000000140079ee0 f i cryptopp-static:cryptlib.cpp.obj
 0001:00079240       ??$IntToString@K@CryptoPP@@YA?AV?$basic_string@DU?$char_traits@D@std@@V?$allocator@D@2@@std@@KI@Z 000000014007a240 f i cryptopp-static:osrng.cpp.obj
 0001:00079240       ??$IntToString@I@CryptoPP@@YA?AV?$basic_string@DU?$char_traits@D@std@@V?$allocator@D@2@@std@@II@Z 000000014007a240 f i cryptopp-static:cryptlib.cpp.obj
 0001:00079480       ??0Algorithm@CryptoPP@@QEAA@_N@Z 000000014007a480 f   cryptopp-static:cryptlib.cpp.obj
 0001:00079550       ??0InvalidCiphertext@CryptoPP@@QEAA@AEBV01@@Z 000000014007a550 f i cryptopp-static:cryptlib.cpp.obj
 0001:00079580       ??0InvalidCiphertext@CryptoPP@@QEAA@AEBV?$basic_string@DU?$char_traits@D@std@@V?$allocator@D@2@@std@@@Z 000000014007a580 f i cryptopp-static:cryptlib.cpp.obj
 0001:000795d0       ??0InvalidDataFormat@CryptoPP@@QEAA@AEBV01@@Z 000000014007a5d0 f i cryptopp-static:cryptlib.cpp.obj
 0001:00079640       ??0InvalidDataFormat@CryptoPP@@QEAA@AEBV?$basic_string@DU?$char_traits@D@std@@V?$allocator@D@2@@std@@@Z 000000014007a640 f i cryptopp-static:cryptlib.cpp.obj
 0001:00079690       ??0InvalidKeyLength@CryptoPP@@QEAA@AEBV01@@Z 000000014007a690 f i cryptopp-static:cryptlib.cpp.obj
 0001:000796c0       ??0InvalidKeyLength@CryptoPP@@QEAA@AEBV?$basic_string@DU?$char_traits@D@std@@V?$allocator@D@2@@std@@_K@Z 000000014007a6c0 f i cryptopp-static:cryptlib.cpp.obj
 0001:00079970       ??0NoChannelSupport@BufferedTransformation@CryptoPP@@QEAA@AEBU012@@Z 000000014007a970 f i cryptopp-static:cryptlib.cpp.obj
 0001:000799a0       ??0NoChannelSupport@BufferedTransformation@CryptoPP@@QEAA@AEBV?$basic_string@DU?$char_traits@D@std@@V?$allocator@D@2@@std@@@Z 000000014007a9a0 f i cryptopp-static:cryptlib.cpp.obj
 0001:00079ab0       ??0SelfTestFailure@CryptoPP@@QEAA@AEBV01@@Z 000000014007aab0 f i cryptopp-static:cryptlib.cpp.obj
 0001:00079b20       ??0SelfTestFailure@CryptoPP@@QEAA@AEBV?$basic_string@DU?$char_traits@D@std@@V?$allocator@D@2@@std@@@Z 000000014007ab20 f i cryptopp-static:cryptlib.cpp.obj
 0001:00079b70       ??1?$FixedSizeSecBlock@E$0BAA@V?$FixedSizeAllocatorWithCleanup@E$0BAA@V?$NullAllocator@E@CryptoPP@@$0A@@CryptoPP@@@CryptoPP@@QEAA@XZ 000000014007ab70 f i cryptopp-static:cryptlib.cpp.obj
 0001:00079bb0       ??1ArraySink@CryptoPP@@UEAA@XZ 000000014007abb0 f i cryptopp-static:cryptlib.cpp.obj
 0001:00079bc8       ??_EArraySink@CryptoPP@@W7EAAPEAXI@Z 000000014007abc8 f i cryptopp-static:cryptlib.cpp.obj
 0001:00079bd4       ??_EBitBucket@CryptoPP@@W7EAAPEAXI@Z 000000014007abd4 f i cryptopp-static:cryptlib.cpp.obj
 0001:00079be0       ??_GArraySink@CryptoPP@@UEAAPEAXI@Z 000000014007abe0 f i cryptopp-static:cryptlib.cpp.obj
 0001:00079be0       ??_EArraySink@CryptoPP@@UEAAPEAXI@Z 000000014007abe0 f i cryptopp-static:cryptlib.cpp.obj
 0001:00079c20       ?AdvancedProcessBlocks@BlockTransformation@CryptoPP@@UEBA_KPEBE0PEAE_KI@Z 000000014007ac20 f   cryptopp-static:cryptlib.cpp.obj
 0001:00079d70       ?AlgorithmName@BitBucket@CryptoPP@@UEBA?AV?$basic_string@DU?$char_traits@D@std@@V?$allocator@D@2@@std@@XZ 000000014007ad70 f i cryptopp-static:cryptlib.cpp.obj
 0001:00079dc0       ?AnyMessages@BufferedTransformation@CryptoPP@@UEBA_NXZ 000000014007adc0 f   cryptopp-static:cryptlib.cpp.obj
 0001:00079e10       ?AnyRetrievable@BufferedTransformation@CryptoPP@@UEBA_NXZ 000000014007ae10 f   cryptopp-static:cryptlib.cpp.obj
 0001:00079e60       ?Attach@BufferedTransformation@CryptoPP@@UEAAXPEAV12@@Z 000000014007ae60 f   cryptopp-static:cryptlib.cpp.obj
 0001:00079ee0       ?ByteReverse@CryptoPP@@YAII@Z 000000014007aee0 f i cryptopp-static:cryptlib.cpp.obj
 0001:00079ef0       ?ChannelCreatePutSpace@BufferedTransformation@CryptoPP@@UEAAPEAEAEBV?$basic_string@DU?$char_traits@D@std@@V?$allocator@D@2@@std@@AEA_K@Z 000000014007aef0 f   cryptopp-static:cryptlib.cpp.obj
 0001:00079f60       ?ChannelFlush@BufferedTransformation@CryptoPP@@UEAA_NAEBV?$basic_string@DU?$char_traits@D@std@@V?$allocator@D@2@@std@@_NH1@Z 000000014007af60 f   cryptopp-static:cryptlib.cpp.obj
 0001:00079fe0       ?ChannelMessageSeriesEnd@BufferedTransformation@CryptoPP@@UEAA_NAEBV?$basic_string@DU?$char_traits@D@std@@V?$allocator@D@2@@std@@H_N@Z 000000014007afe0 f   cryptopp-static:cryptlib.cpp.obj
 0001:0007a060       ?ChannelPut2@BufferedTransformation@CryptoPP@@UEAA_KAEBV?$basic_string@DU?$char_traits@D@std@@V?$allocator@D@2@@std@@PEBE_KH_N@Z 000000014007b060 f   cryptopp-static:cryptlib.cpp.obj
 0001:0007a0f0       ?ChannelPutModifiable2@BufferedTransformation@CryptoPP@@UEAA_KAEBV?$basic_string@DU?$char_traits@D@std@@V?$allocator@D@2@@std@@PEAE_KH_N@Z 000000014007b0f0 f   cryptopp-static:cryptlib.cpp.obj
 0001:0007a130       ?CopyMessagesTo@BufferedTransformation@CryptoPP@@QEBAIAEAV12@IAEBV?$basic_string@DU?$char_traits@D@std@@V?$allocator@D@2@@std@@@Z 000000014007b130 f   cryptopp-static:cryptlib.cpp.obj
 0001:0007a190       ?DiscardBytes@RandomNumberGenerator@CryptoPP@@UEAAX_K@Z 000000014007b190 f   cryptopp-static:cryptlib.cpp.obj
 0001:0007a1e0       ?Flush@BufferedTransformation@CryptoPP@@UEAA_N_NH0@Z 000000014007b1e0 f   cryptopp-static:cryptlib.cpp.obj
 0001:0007a1f0       ?GenerateBit@RandomNumberGenerator@CryptoPP@@UEAAIXZ 000000014007b1f0 f   cryptopp-static:cryptlib.cpp.obj
 0001:0007a210       ?GenerateBlock@RandomNumberGenerator@CryptoPP@@UEAAXPEAE_K@Z 000000014007b210 f   cryptopp-static:cryptlib.cpp.obj
 0001:0007a280       ?GenerateByte@RandomNumberGenerator@CryptoPP@@UEAAEXZ 000000014007b280 f   cryptopp-static:cryptlib.cpp.obj
 0001:0007a2a0       ?GenerateIntoBufferedTransformation@RandomNumberGenerator@CryptoPP@@UEAAXAEAVBufferedTransformation@2@AEBV?$basic_string@DU?$char_traits@D@std@@V?$allocator@D@2@@std@@_K@Z 000000014007b2a0 f   cryptopp-static:cryptlib.cpp.obj
 0001:0007a390       ?GenerateWord32@RandomNumberGenerator@CryptoPP@@UEAAIII@Z 000000014007b390 f   cryptopp-static:cryptlib.cpp.obj
 0001:0007a440       ?Get@BufferedTransformation@CryptoPP@@UEAA_KAEAE@Z 000000014007b440 f   cryptopp-static:cryptlib.cpp.obj
 0001:0007a4a0       ?Get@BufferedTransformation@CryptoPP@@UEAA_KPEAE_K@Z 000000014007b4a0 f   cryptopp-static:cryptlib.cpp.obj
 0001:0007a560       ?GetIVAndThrowIfInvalid@SimpleKeyingInterface@CryptoPP@@IEAAPEBEAEBVNameValuePairs@2@AEA_K@Z 000000014007b560 f   cryptopp-static:cryptlib.cpp.obj
 0001:0007a810       ?GetMaxWaitObjectCount@BufferedTransformation@CryptoPP@@UEBAIXZ 000000014007b810 f   cryptopp-static:cryptlib.cpp.obj
 0001:0007a840       ?GetNextIV@SimpleKeyingInterface@CryptoPP@@UEAAXAEAVRandomNumberGenerator@2@PEAE@Z 000000014007b840 f   cryptopp-static:cryptlib.cpp.obj
 0001:0007a880       ?GetNextMessage@BufferedTransformation@CryptoPP@@UEAA_NXZ 000000014007b880 f   cryptopp-static:cryptlib.cpp.obj
 0001:0007a8c0       ?GetWaitObjects@BufferedTransformation@CryptoPP@@UEAAXAEAVWaitObjectContainer@2@AEBVCallStack@2@@Z 000000014007b8c0 f   cryptopp-static:cryptlib.cpp.obj
 0001:0007a900       ?GetWord16@BufferedTransformation@CryptoPP@@QEAA_KAEAGW4ByteOrder@2@@Z 000000014007b900 f   cryptopp-static:cryptlib.cpp.obj
 0001:0007a990       ?IncorporateEntropy@RandomNumberGenerator@CryptoPP@@UEAAXPEBE_K@Z 000000014007b990 f i cryptopp-static:cryptlib.cpp.obj
 0001:0007a9e0       ?MaxRetrievable@BufferedTransformation@CryptoPP@@UEBA_KXZ 000000014007b9e0 f   cryptopp-static:cryptlib.cpp.obj
 0001:0007aa60       ?MessageSeriesEnd@BufferedTransformation@CryptoPP@@UEAA_NH_N@Z 000000014007ba60 f   cryptopp-static:cryptlib.cpp.obj
 0001:0007aa70       ?NativeByteOrderIs@CryptoPP@@YA_NW4ByteOrder@1@@Z 000000014007ba70 f i cryptopp-static:cryptlib.cpp.obj
 0001:0007aa80       ?NumberOfMessages@BufferedTransformation@CryptoPP@@UEBAIXZ 000000014007ba80 f   cryptopp-static:cryptlib.cpp.obj
 0001:0007ab20       ?Peek@BufferedTransformation@CryptoPP@@UEBA_KAEAE@Z 000000014007bb20 f   cryptopp-static:cryptlib.cpp.obj
 0001:0007ab80       ?Peek@BufferedTransformation@CryptoPP@@UEBA_KPEAE_K@Z 000000014007bb80 f   cryptopp-static:cryptlib.cpp.obj
 0001:0007ac50       ?ProcessLastBlock@StreamTransformation@CryptoPP@@UEAA_KPEAE_KPEBE1@Z 000000014007bc50 f   cryptopp-static:cryptlib.cpp.obj
 0001:0007ad20       ?SetKey@SimpleKeyingInterface@CryptoPP@@UEAAXPEBE_KAEBVNameValuePairs@2@@Z 000000014007bd20 f   cryptopp-static:cryptlib.cpp.obj
 0001:0007adc0       ?SetKeyWithIV@SimpleKeyingInterface@CryptoPP@@QEAAXPEBE_K01@Z 000000014007bdc0 f   cryptopp-static:cryptlib.cpp.obj
 0001:0007ae90       ?SetRetrievalChannel@BufferedTransformation@CryptoPP@@UEAAXAEBV?$basic_string@DU?$char_traits@D@std@@V?$allocator@D@2@@std@@@Z 000000014007be90 f   cryptopp-static:cryptlib.cpp.obj
 0001:0007aee0       ?Skip@BufferedTransformation@CryptoPP@@UEAA_K_K@Z 000000014007bee0 f   cryptopp-static:cryptlib.cpp.obj
 0001:0007af60       ?SkipAll@BufferedTransformation@CryptoPP@@UEAAXXZ 000000014007bf60 f   cryptopp-static:cryptlib.cpp.obj
 0001:0007afd0       ?SkipMessages@BufferedTransformation@CryptoPP@@UEAAII@Z 000000014007bfd0 f   cryptopp-static:cryptlib.cpp.obj
 0001:0007b050       ?TheBitBucket@CryptoPP@@YAAEAVBufferedTransformation@1@XZ 000000014007c050 f   cryptopp-static:cryptlib.cpp.obj
 0001:0007b0c0       ?ThrowIfInvalidIVLength@SimpleKeyingInterface@CryptoPP@@IEAA_KH@Z 000000014007c0c0 f   cryptopp-static:cryptlib.cpp.obj
 0001:0007b2d0       ?ThrowIfInvalidTruncatedSize@HashTransformation@CryptoPP@@IEBAX_K@Z 000000014007c2d0 f   cryptopp-static:cryptlib.cpp.obj
 0001:0007b3e0       ?TotalBytesRetrievable@BufferedTransformation@CryptoPP@@UEBA_KXZ 000000014007c3e0 f   cryptopp-static:cryptlib.cpp.obj
 0001:0007b430       ?TransferAllTo2@BufferedTransformation@CryptoPP@@QEAA_KAEAV12@AEBV?$basic_string@DU?$char_traits@D@std@@V?$allocator@D@2@@std@@_N@Z 000000014007c430 f   cryptopp-static:cryptlib.cpp.obj
 0001:0007b600       ?TransferMessagesTo2@BufferedTransformation@CryptoPP@@QEAA_KAEAV12@AEAIAEBV?$basic_string@DU?$char_traits@D@std@@V?$allocator@D@2@@std@@_N@Z 000000014007c600 f   cryptopp-static:cryptlib.cpp.obj
 0001:0007b740       ?TruncatedVerify@HashTransformation@CryptoPP@@UEAA_NPEBE_K@Z 000000014007c740 f   cryptopp-static:cryptlib.cpp.obj
 0001:0007b8b0       ??_GCombinedNameValuePairs@CryptoPP@@UEAAPEAXI@Z 000000014007c8b0 f i cryptopp-static:base64.cpp.obj
 0001:0007b8b0       ??_ECombinedNameValuePairs@CryptoPP@@UEAAPEAXI@Z 000000014007c8b0 f i cryptopp-static:base64.cpp.obj
 0001:0007b8e0       ?AssignValue@?$AlgorithmParametersTemplate@E@CryptoPP@@UEBAXPEBDAEBVtype_info@@PEAX@Z 000000014007c8e0 f i cryptopp-static:base64.cpp.obj
 0001:0007b960       ?AssignValue@?$AlgorithmParametersTemplate@PEBE@CryptoPP@@UEBAXPEBDAEBVtype_info@@PEAX@Z 000000014007c960 f i cryptopp-static:base64.cpp.obj
 0001:0007b9e0       ?GetDecodingLookupArray@Base64Decoder@CryptoPP@@CAPEBHXZ 000000014007c9e0 f   cryptopp-static:base64.cpp.obj
 0001:0007b9f0       ?IsolatedInitialize@Base64Decoder@CryptoPP@@UEAAXAEBVNameValuePairs@2@@Z 000000014007c9f0 f   cryptopp-static:base64.cpp.obj
 0001:0007bbe0       ?IsolatedInitialize@Base64Encoder@CryptoPP@@UEAAXAEBVNameValuePairs@2@@Z 000000014007cbe0 f   cryptopp-static:base64.cpp.obj
 0001:0007c010       ?MoveInto@?$AlgorithmParametersTemplate@E@CryptoPP@@UEBAXPEAX@Z 000000014007d010 f i cryptopp-static:base64.cpp.obj
 0001:0007c050       ?MoveInto@?$AlgorithmParametersTemplate@PEBE@CryptoPP@@UEBAXPEAX@Z 000000014007d050 f i cryptopp-static:base64.cpp.obj
 0001:0007c090       ?ProcessData@CBC_Decryption@CryptoPP@@UEAAXPEAEPEBE_K@Z 000000014007d090 f   cryptopp-static:modes.cpp.obj
 0001:0007c170       ?ResizeBuffers@CBC_Decryption@CryptoPP@@MEAAXXZ 000000014007d170 f   cryptopp-static:modes.cpp.obj
 0001:0007c230       ?ResizeBuffers@CipherModeBase@CryptoPP@@MEAAXXZ 000000014007d230 f   cryptopp-static:modes.cpp.obj
 0001:0007c2b0       ?UncheckedSetKey@BlockOrientedCipherModeBase@CryptoPP@@UEAAXPEBEIAEBVNameValuePairs@2@@Z 000000014007d2b0 f   cryptopp-static:modes.cpp.obj
 0001:0007c320       ??$MakeParameters@W4BlockPaddingScheme@BlockPaddingSchemeDef@CryptoPP@@@CryptoPP@@YA?AVAlgorithmParameters@0@PEBDAEBW4BlockPaddingScheme@BlockPaddingSchemeDef@0@_N@Z 000000014007d320 f i cryptopp-static:filters.cpp.obj
 0001:0007c420       ??$RoundDownToMultipleOf@_K_K@CryptoPP@@YA_KAEB_K0@Z 000000014007d420 f i cryptopp-static:filters.cpp.obj
 0001:0007c460       ??0BlockingInputOnly@BufferedTransformation@CryptoPP@@QEAA@AEBU012@@Z 000000014007d460 f i cryptopp-static:filters.cpp.obj
 0001:0007c490       ??0BlockingInputOnly@BufferedTransformation@CryptoPP@@QEAA@AEBV?$basic_string@DU?$char_traits@D@std@@V?$allocator@D@2@@std@@@Z 000000014007d490 f i cryptopp-static:filters.cpp.obj
 0001:0007c5a0       ??0Filter@CryptoPP@@QEAA@PEAVBufferedTransformation@1@@Z 000000014007d5a0 f   cryptopp-static:filters.cpp.obj
 0001:0007c5e0       ??0FilterWithBufferedInput@CryptoPP@@QEAA@PEAVBufferedTransformation@1@@Z 000000014007d5e0 f   cryptopp-static:filters.cpp.obj
 0001:0007c660       ??0ProxyFilter@CryptoPP@@QEAA@PEAVBufferedTransformation@1@_K10@Z 000000014007d660 f   cryptopp-static:filters.cpp.obj
 0001:0007c800       ??0StreamTransformationFilter@CryptoPP@@QEAA@AEAVStreamTransformation@1@PEAVBufferedTransformation@1@W4BlockPaddingScheme@BlockPaddingSchemeDef@1@@Z 000000014007d800 f   cryptopp-static:filters.cpp.obj
 0001:0007c9b0       ??1FilterPutSpaceHelper@CryptoPP@@UEAA@XZ 000000014007d9b0 f i cryptopp-static:filters.cpp.obj
 0001:0007ca00       ??1StreamTransformationFilter@CryptoPP@@UEAA@XZ 000000014007da00 f i cryptopp-static:filters.cpp.obj
 0001:0007ca74       ??_EOutputProxy@CryptoPP@@W7EAAPEAXI@Z 000000014007da74 f i cryptopp-static:filters.cpp.obj
 0001:0007ca80       ??_EStreamTransformationFilter@CryptoPP@@W7EAAPEAXI@Z 000000014007da80 f i cryptopp-static:filters.cpp.obj
 0001:0007ca8c       ??_EStreamTransformationFilter@CryptoPP@@WJA@EAAPEAXI@Z 000000014007da8c f i cryptopp-static:filters.cpp.obj
 0001:0007caa0       ??_EFilterPutSpaceHelper@CryptoPP@@UEAAPEAXI@Z 000000014007daa0 f i cryptopp-static:filters.cpp.obj
 0001:0007caa0       ??_GFilterPutSpaceHelper@CryptoPP@@UEAAPEAXI@Z 000000014007daa0 f i cryptopp-static:filters.cpp.obj
 0001:0007cb10       ??_GOutputProxy@CryptoPP@@UEAAPEAXI@Z 000000014007db10 f i cryptopp-static:filters.cpp.obj
 0001:0007cb10       ??_EOutputProxy@CryptoPP@@UEAAPEAXI@Z 000000014007db10 f i cryptopp-static:filters.cpp.obj
 0001:0007cb50       ??_EStreamTransformationFilter@CryptoPP@@UEAAPEAXI@Z 000000014007db50 f i cryptopp-static:filters.cpp.obj
 0001:0007cb50       ??_GStreamTransformationFilter@CryptoPP@@UEAAPEAXI@Z 000000014007db50 f i cryptopp-static:filters.cpp.obj
 0001:0007cb90       ?AlgorithmName@StreamTransformationFilter@CryptoPP@@UEBA?AV?$basic_string@DU?$char_traits@D@std@@V?$allocator@D@2@@std@@XZ 000000014007db90 f i cryptopp-static:filters.cpp.obj
 0001:0007cbb0       ?AssignValue@?$AlgorithmParametersTemplate@W4BlockPaddingScheme@BlockPaddingSchemeDef@CryptoPP@@@CryptoPP@@UEBAXPEBDAEBVtype_info@@PEAX@Z 000000014007dbb0 f i cryptopp-static:filters.cpp.obj
 0001:0007cc30       ?AttachedTransformation@Filter@CryptoPP@@UEAAPEAVBufferedTransformation@2@XZ 000000014007dc30 f   cryptopp-static:filters.cpp.obj
 0001:0007cc30       ?AttachedTransformation@Filter@CryptoPP@@UEBAPEBVBufferedTransformation@2@XZ 000000014007dc30 f   cryptopp-static:filters.cpp.obj
 0001:0007cc80       ?ChannelCreatePutSpace@OutputProxy@CryptoPP@@UEAAPEAEAEBV?$basic_string@DU?$char_traits@D@std@@V?$allocator@D@2@@std@@AEA_K@Z 000000014007dc80 f i cryptopp-static:filters.cpp.obj
 0001:0007ccc0       ?ChannelFlush@OutputProxy@CryptoPP@@UEAA_NAEBV?$basic_string@DU?$char_traits@D@std@@V?$allocator@D@2@@std@@_NH1@Z 000000014007dcc0 f i cryptopp-static:filters.cpp.obj
 0001:0007cd30       ?ChannelMessageSeriesEnd@OutputProxy@CryptoPP@@UEAA_NAEBV?$basic_string@DU?$char_traits@D@std@@V?$allocator@D@2@@std@@H_N@Z 000000014007dd30 f i cryptopp-static:filters.cpp.obj
 0001:0007cda0       ?ChannelPut2@OutputProxy@CryptoPP@@UEAA_KAEBV?$basic_string@DU?$char_traits@D@std@@V?$allocator@D@2@@std@@PEBE_KH_N@Z 000000014007dda0 f i cryptopp-static:filters.cpp.obj
 0001:0007ce20       ?ChannelPutModifiable2@OutputProxy@CryptoPP@@UEAA_KAEBV?$basic_string@DU?$char_traits@D@std@@V?$allocator@D@2@@std@@PEAE_KH_N@Z 000000014007de20 f i cryptopp-static:filters.cpp.obj
 0001:0007cea0       ?CopyRangeTo2@Filter@CryptoPP@@UEBA_KAEAVBufferedTransformation@2@AEA_K_KAEBV?$basic_string@DU?$char_traits@D@std@@V?$allocator@D@2@@std@@_N@Z 000000014007dea0 f   cryptopp-static:filters.cpp.obj
 0001:0007cef0       ?CopyRangeTo2@StringStore@CryptoPP@@UEBA_KAEAVBufferedTransformation@2@AEA_K_KAEBV?$basic_string@DU?$char_traits@D@std@@V?$allocator@D@2@@std@@_N@Z 000000014007def0 f   cryptopp-static:filters.cpp.obj
 0001:0007cf70       ?CreatePutSpace@ArraySink@CryptoPP@@UEAAPEAEAEA_K@Z 000000014007df70 f   cryptopp-static:filters.cpp.obj
 0001:0007cfa0       ?CreatePutSpace@OutputProxy@CryptoPP@@UEAAPEAEAEA_K@Z 000000014007dfa0 f i cryptopp-static:filters.cpp.obj
 0001:0007cfd0       ?Detach@Filter@CryptoPP@@UEAAXPEAVBufferedTransformation@2@@Z 000000014007dfd0 f   cryptopp-static:filters.cpp.obj
 0001:0007d010       ?FirstPut@StreamTransformationFilter@CryptoPP@@MEAAXPEBE@Z 000000014007e010 f   cryptopp-static:filters.cpp.obj
 0001:0007d080       ?Flush@Filter@CryptoPP@@UEAA_N_NH0@Z 000000014007e080 f   cryptopp-static:filters.cpp.obj
 0001:0007d120       ?Flush@OutputProxy@CryptoPP@@UEAA_N_NH0@Z 000000014007e120 f i cryptopp-static:filters.cpp.obj
 0001:0007d190       ?ForceNextPut@FilterWithBufferedInput@CryptoPP@@QEAAXXZ 000000014007e190 f   cryptopp-static:filters.cpp.obj
 0001:0007d2c0       ?GetContigousBlocks@BlockQueue@FilterWithBufferedInput@CryptoPP@@QEAAPEAEAEA_K@Z 000000014007e2c0 f   cryptopp-static:filters.cpp.obj
 0001:0007d330       ?GetNextMessage@Store@CryptoPP@@UEAA_NXZ 000000014007e330 f   cryptopp-static:filters.cpp.obj
 0001:0007d360       ?GetRequiredIntParameter@NameValuePairs@CryptoPP@@QEBAXPEBD0AEAH@Z 000000014007e360 f i cryptopp-static:filters.cpp.obj
 0001:0007d430       ?HelpCreatePutSpace@FilterPutSpaceHelper@CryptoPP@@QEAAPEAEAEAVBufferedTransformation@2@AEBV?$basic_string@DU?$char_traits@D@std@@V?$allocator@D@2@@std@@_K2@Z 000000014007e430 f i cryptopp-static:filters.cpp.obj
 0001:0007d490       ?HelpCreatePutSpace@FilterPutSpaceHelper@CryptoPP@@QEAAPEAEAEAVBufferedTransformation@2@AEBV?$basic_string@DU?$char_traits@D@std@@V?$allocator@D@2@@std@@_K@Z 000000014007e490 f i cryptopp-static:filters.cpp.obj
 0001:0007d4f0       ?Initialize@Filter@CryptoPP@@UEAAXAEBVNameValuePairs@2@H@Z 000000014007e4f0 f   cryptopp-static:filters.cpp.obj
 0001:0007d550       ?Initialize@OutputProxy@CryptoPP@@UEAAXAEBVNameValuePairs@2@H@Z 000000014007e550 f i cryptopp-static:filters.cpp.obj
 0001:0007d590       ?InitializeDerivedAndReturnNewSizes@StreamTransformationFilter@CryptoPP@@MEAAXAEBVNameValuePairs@2@AEA_K11@Z 000000014007e590 f   cryptopp-static:filters.cpp.obj
 0001:0007d790       ?IsolatedFlush@FilterWithBufferedInput@CryptoPP@@UEAA_N_N0@Z 000000014007e790 f   cryptopp-static:filters.cpp.obj
 0001:0007d820       ?IsolatedFlush@ProxyFilter@CryptoPP@@UEAA_N_N0@Z 000000014007e820 f   cryptopp-static:filters.cpp.obj
 0001:0007d840       ?IsolatedInitialize@ArraySink@CryptoPP@@UEAAXAEBVNameValuePairs@2@@Z 000000014007e840 f   cryptopp-static:filters.cpp.obj
 0001:0007d8f0       ?IsolatedInitialize@FilterWithBufferedInput@CryptoPP@@UEAAXAEBVNameValuePairs@2@@Z 000000014007e8f0 f   cryptopp-static:filters.cpp.obj
 0001:0007d9b0       ?LastPut@StreamTransformationFilter@CryptoPP@@MEAAXPEBE_K@Z 000000014007e9b0 f   cryptopp-static:filters.cpp.obj
 0001:0007df50       ?MessageSeriesEnd@Filter@CryptoPP@@UEAA_NH_N@Z 000000014007ef50 f   cryptopp-static:filters.cpp.obj
 0001:0007e010       ?MessageSeriesEnd@OutputProxy@CryptoPP@@UEAA_NH_N@Z 000000014007f010 f i cryptopp-static:filters.cpp.obj
 0001:0007e060       ?MoveInto@?$AlgorithmParametersTemplate@W4BlockPaddingScheme@BlockPaddingSchemeDef@CryptoPP@@@CryptoPP@@UEBAXPEAX@Z 000000014007f060 f i cryptopp-static:filters.cpp.obj
 0001:0007e0a0       ?NewDefaultAttachment@Filter@CryptoPP@@MEBAPEAVBufferedTransformation@2@XZ 000000014007f0a0 f   cryptopp-static:filters.cpp.obj
 0001:0007e0e0       ?NextPutModifiable@ProxyFilter@CryptoPP@@UEAAXPEAE_K@Z 000000014007f0e0 f   cryptopp-static:filters.cpp.obj
 0001:0007e110       ?NextPutModifiable@StreamTransformationFilter@CryptoPP@@MEAAXPEAE_K@Z 000000014007f110 f   cryptopp-static:filters.cpp.obj
 0001:0007e170       ?NextPutMultiple@FilterWithBufferedInput@CryptoPP@@MEAAXPEBE_K@Z 000000014007f170 f   cryptopp-static:filters.cpp.obj
 0001:0007e1c0       ?NextPutMultiple@ProxyFilter@CryptoPP@@UEAAXPEBE_K@Z 000000014007f1c0 f   cryptopp-static:filters.cpp.obj
 0001:0007e1f0       ?NextPutMultiple@StreamTransformationFilter@CryptoPP@@MEAAXPEBE_K@Z 000000014007f1f0 f   cryptopp-static:filters.cpp.obj
 0001:0007e3a0       ?Output@Filter@CryptoPP@@IEAA_KHPEBE_KH_NAEBV?$basic_string@DU?$char_traits@D@std@@V?$allocator@D@2@@std@@@Z 000000014007f3a0 f   cryptopp-static:filters.cpp.obj
 0001:0007e430       ?Put2@ArraySink@CryptoPP@@UEAA_KPEBE_KH_N@Z 000000014007f430 f   cryptopp-static:filters.cpp.obj
 0001:0007e4a0       ?Put2@OutputProxy@CryptoPP@@UEAA_KPEBE_KH_N@Z 000000014007f4a0 f i cryptopp-static:filters.cpp.obj
 0001:0007e510       ?Put@BlockQueue@FilterWithBufferedInput@CryptoPP@@QEAAXPEBE_K@Z 000000014007f510 f   cryptopp-static:filters.cpp.obj
 0001:0007e5b0       ?PutMaybeModifiable@FilterWithBufferedInput@CryptoPP@@IEAA_KPEAE_KH_N2@Z 000000014007f5b0 f   cryptopp-static:filters.cpp.obj
 0001:0007eb60       ?PutModifiable2@OutputProxy@CryptoPP@@UEAA_KPEAE_KH_N@Z 000000014007fb60 f i cryptopp-static:filters.cpp.obj
 0001:0007ebd0       ?ResetQueue@BlockQueue@FilterWithBufferedInput@CryptoPP@@QEAAX_K0@Z 000000014007fbd0 f   cryptopp-static:filters.cpp.obj
 0001:0007ec70       ?StoreInitialize@StringStore@CryptoPP@@EEAAXAEBVNameValuePairs@2@@Z 000000014007fc70 f   cryptopp-static:filters.cpp.obj
 0001:0007ed90       ?TransferTo2@Filter@CryptoPP@@UEAA_KAEAVBufferedTransformation@2@AEA_KAEBV?$basic_string@DU?$char_traits@D@std@@V?$allocator@D@2@@std@@_N@Z 000000014007fd90 f   cryptopp-static:filters.cpp.obj
 0001:0007ede0       ?TransferTo2@StringStore@CryptoPP@@UEAA_KAEAVBufferedTransformation@2@AEA_KAEBV?$basic_string@DU?$char_traits@D@std@@V?$allocator@D@2@@std@@_N@Z 000000014007fde0 f   cryptopp-static:filters.cpp.obj
 0001:0007ee30       ??0AlgorithmParameters@CryptoPP@@QEAA@AEBV01@@Z 000000014007fe30 f   cryptopp-static:algparam.cpp.obj
 0001:0007ee90       ??0AlgorithmParameters@CryptoPP@@QEAA@XZ 000000014007fe90 f   cryptopp-static:algparam.cpp.obj
 0001:0007eeb0       ??_GAlgorithmParameters@CryptoPP@@UEAAPEAXI@Z 000000014007feb0 f i cryptopp-static:algparam.cpp.obj
 0001:0007eeb0       ??_EAlgorithmParameters@CryptoPP@@UEAAPEAXI@Z 000000014007feb0 f i cryptopp-static:algparam.cpp.obj
 0001:0007ef00       ?GetVoidValue@AlgorithmParameters@CryptoPP@@UEBA_NPEBDAEBVtype_info@@PEAX@Z 000000014007ff00 f   cryptopp-static:algparam.cpp.obj
 0001:0007ef10       ?GetVoidValue@AlgorithmParametersBase@CryptoPP@@QEBA_NPEBDAEBVtype_info@@PEAX@Z 000000014007ff10 f   cryptopp-static:algparam.cpp.obj
 0001:0007f040       ?GetVoidValue@CombinedNameValuePairs@CryptoPP@@UEBA_NPEBDAEBVtype_info@@PEAX@Z 0000000140080040 f   cryptopp-static:algparam.cpp.obj
 0001:0007f0f0       ??0MicrosoftCryptoProvider@CryptoPP@@QEAA@XZ 00000001400800f0 f   cryptopp-static:osrng.cpp.obj
 0001:0007f1f0       ??0OS_RNG_Err@CryptoPP@@QEAA@AEBV01@@Z 00000001400801f0 f i cryptopp-static:osrng.cpp.obj
 0001:0007f260       ??0OS_RNG_Err@CryptoPP@@QEAA@AEBV?$basic_string@DU?$char_traits@D@std@@V?$allocator@D@2@@std@@@Z 0000000140080260 f   cryptopp-static:osrng.cpp.obj
 0001:0007f5d0       ??1NonblockingRng@CryptoPP@@UEAA@XZ 00000001400805d0 f   cryptopp-static:osrng.cpp.obj
 0001:0007f5f0       ??_ENonblockingRng@CryptoPP@@UEAAPEAXI@Z 00000001400805f0 f i cryptopp-static:osrng.cpp.obj
 0001:0007f5f0       ??_GNonblockingRng@CryptoPP@@UEAAPEAXI@Z 00000001400805f0 f i cryptopp-static:osrng.cpp.obj
 0001:0007f640       ?GenerateBlock@NonblockingRng@CryptoPP@@UEAAXPEAE_K@Z 0000000140080640 f   cryptopp-static:osrng.cpp.obj
 0001:0007f6e0       ?Ref@?$Singleton@VMicrosoftCryptoProvider@CryptoPP@@U?$NewObject@VMicrosoftCryptoProvider@CryptoPP@@@2@$0A@@CryptoPP@@QEBAAEBVMicrosoftCryptoProvider@2@XZ 00000001400806e0 f i cryptopp-static:osrng.cpp.obj
 0001:0007f7d0       ?Reseed@AutoSeededRandomPool@CryptoPP@@QEAAX_NI@Z 00000001400807d0 f   cryptopp-static:osrng.cpp.obj
 0001:0007f904       ??$?RI@?$GetBlock@IU?$EnumToType@W4ByteOrder@CryptoPP@@$0A@@CryptoPP@@$0A@@CryptoPP@@QEAAAEAV01@AEAI@Z 0000000140080904 f i cryptopp-static:rijndael.cpp.obj
 0001:0007f978       ??$?RI@?$PutBlock@IU?$EnumToType@W4ByteOrder@CryptoPP@@$0A@@CryptoPP@@$0A@@CryptoPP@@QEAAAEAV01@I@Z 0000000140080978 f i cryptopp-static:rijndael.cpp.obj
 0001:0007fa3c       ??$ByteReverse@I@CryptoPP@@YAXPEAIPEBI_K@Z 0000000140080a3c f i cryptopp-static:rijndael.cpp.obj
 0001:0007fab0       ??$GetUserKey@I@CryptoPP@@YAXW4ByteOrder@0@PEAI_KPEBE2@Z 0000000140080ab0 f i cryptopp-static:rijndael.cpp.obj
 0001:0007fb7c       ??$RoundUpToMultipleOf@_K_K@CryptoPP@@YA_KAEB_K0@Z 0000000140080b7c f i cryptopp-static:rijndael.cpp.obj
 0001:0007fc58       ??$StandardReallocate@IV?$AllocatorWithCleanup@I$00@CryptoPP@@@CryptoPP@@YAPEAIAEAV?$AllocatorWithCleanup@I$00@0@PEAI_K2_N@Z 0000000140080c58 f i cryptopp-static:rijndael.cpp.obj
 0001:0007fe94       ?AdvancedProcessBlocks@Dec@Rijndael@CryptoPP@@UEBA_KPEBE0PEAE_KI@Z 0000000140080e94 f   cryptopp-static:rijndael.cpp.obj
 0001:0007ff44       ?AdvancedProcessBlocks@Enc@Rijndael@CryptoPP@@UEBA_KPEBE0PEAE_KI@Z 0000000140080f44 f   cryptopp-static:rijndael.cpp.obj
 0001:000803f4       ?AlgorithmProvider@Base@Rijndael@CryptoPP@@UEBA?AV?$basic_string@DU?$char_traits@D@std@@V?$allocator@D@2@@std@@XZ 00000001400813f4 f   cryptopp-static:rijndael.cpp.obj
 0001:00080574       ?FillDecTable@Base@Rijndael@CryptoPP@@KAXXZ 0000000140081574 f   cryptopp-static:rijndael.cpp.obj
 0001:000807a0       ?FillEncTable@Base@Rijndael@CryptoPP@@KAXXZ 00000001400817a0 f   cryptopp-static:rijndael.cpp.obj
 0001:000808a0       ?GetCacheLineSize@CryptoPP@@YAHXZ 00000001400818a0 f i cryptopp-static:rijndael.cpp.obj
 0001:000808c0       ?HasAESNI@CryptoPP@@YA_NXZ 00000001400818c0 f i cryptopp-static:rijndael.cpp.obj
 0001:000808e0       ?HasSSE41@CryptoPP@@YA_NXZ 00000001400818e0 f i cryptopp-static:rijndael.cpp.obj
 0001:00080900       ?New@?$SecBlock@IV?$AllocatorWithCleanup@I$00@CryptoPP@@@CryptoPP@@QEAAX_K@Z 0000000140081900 f i cryptopp-static:rijndael.cpp.obj
 0001:0008097c       ?OptimalDataAlignment@Base@Rijndael@CryptoPP@@UEBAIXZ 000000014008197c f   cryptopp-static:rijndael.cpp.obj
 0001:000809ac       ?ProcessAndXorBlock@Dec@Rijndael@CryptoPP@@UEBAXPEBE0PEAE@Z 00000001400819ac f   cryptopp-static:rijndael.cpp.obj
 0001:00081a3c       ?ProcessAndXorBlock@Enc@Rijndael@CryptoPP@@UEBAXPEBE0PEAE@Z 0000000140082a3c f   cryptopp-static:rijndael.cpp.obj
 0001:000829bc       ?UncheckedSetKey@Base@Rijndael@CryptoPP@@UEAAXPEBEIAEBVNameValuePairs@3@@Z 00000001400839bc f   cryptopp-static:rijndael.cpp.obj
 0001:00084000       ?memset_z@CryptoPP@@YAPEAXPEAXH_K@Z 0000000140085000 f i cryptopp-static:rijndael.cpp.obj
 0001:000840d0       ??0bad_alloc@std@@QEAA@XZ  00000001400850d0 f i cryptopp-static:misc.cpp.obj
 0001:00084100       ?AlignedAllocate@CryptoPP@@YAPEAX_K@Z 0000000140085100 f   cryptopp-static:misc.cpp.obj
 0001:00084180       ?AlignedDeallocate@CryptoPP@@YAXPEAX@Z 0000000140085180 f   cryptopp-static:misc.cpp.obj
 0001:00084190       ?UnalignedAllocate@CryptoPP@@YAPEAX_K@Z 0000000140085190 f   cryptopp-static:misc.cpp.obj
 0001:00084200       ?VerifyBufsEqual@CryptoPP@@YA_NPEBE0_K@Z 0000000140085200 f   cryptopp-static:misc.cpp.obj
 0001:00084510       ?xorbuf@CryptoPP@@YAXPEAEPEBE1_K@Z 0000000140085510 f   cryptopp-static:misc.cpp.obj
 0001:000848c0       ?IsolatedInitialize@BaseN_Decoder@CryptoPP@@UEAAXAEBVNameValuePairs@2@@Z 00000001400858c0 f   cryptopp-static:basecode.cpp.obj
 0001:00084a50       ?IsolatedInitialize@BaseN_Encoder@CryptoPP@@UEAAXAEBVNameValuePairs@2@@Z 0000000140085a50 f   cryptopp-static:basecode.cpp.obj
 0001:00084c20       ?IsolatedInitialize@Grouper@CryptoPP@@UEAAXAEBVNameValuePairs@2@@Z 0000000140085c20 f   cryptopp-static:basecode.cpp.obj
 0001:00084e20       ?Put2@BaseN_Decoder@CryptoPP@@UEAA_KPEBE_KH_N@Z 0000000140085e20 f   cryptopp-static:basecode.cpp.obj
 0001:00085000       ?Put2@BaseN_Encoder@CryptoPP@@UEAA_KPEBE_KH_N@Z 0000000140086000 f   cryptopp-static:basecode.cpp.obj
 0001:00085260       ?Put2@Grouper@CryptoPP@@UEAA_KPEBE_KH_N@Z 0000000140086260 f   cryptopp-static:basecode.cpp.obj
 0001:00085450       ??$IntToString@_K@CryptoPP@@YA?AV?$basic_string@DU?$char_traits@D@std@@V?$allocator@D@2@@std@@_KI@Z 0000000140086450 f   cryptopp-static:integer.cpp.obj
 0001:00085690       ??0?$FixedSizeSecBlock@I$0BA@V?$FixedSizeAllocatorWithCleanup@I$0BA@V?$NullAllocator@I@CryptoPP@@$0A@@CryptoPP@@@CryptoPP@@QEAA@AEBV01@@Z 0000000140086690 f i cryptopp-static:integer.cpp.obj
 0001:00085740       ??0BERDecodeErr@CryptoPP@@QEAA@AEBV01@@Z 0000000140086740 f i cryptopp-static:integer.cpp.obj
 0001:00085770       ??0BERDecodeErr@CryptoPP@@QEAA@XZ 0000000140086770 f i cryptopp-static:integer.cpp.obj
 0001:00085850       ??0Integer@CryptoPP@@AEAA@_K0@Z 0000000140086850 f   cryptopp-static:integer.cpp.obj
 0001:000858f0       ??0Integer@CryptoPP@@QEAA@AEBV01@@Z 00000001400868f0 f   cryptopp-static:integer.cpp.obj
 0001:000859f0       ??0Integer@CryptoPP@@QEAA@XZ 00000001400869f0 f   cryptopp-static:integer.cpp.obj
 0001:00085a70       ??1Integer@CryptoPP@@UEAA@XZ 0000000140086a70 f i cryptopp-static:integer.cpp.obj
 0001:00085ac0       ??_GInteger@CryptoPP@@UEAAPEAXI@Z 0000000140086ac0 f i cryptopp-static:integer.cpp.obj
 0001:00085ac0       ??_EInteger@CryptoPP@@UEAAPEAXI@Z 0000000140086ac0 f i cryptopp-static:integer.cpp.obj
 0001:00085b40       ?AnyRetrievable@ByteQueue@CryptoPP@@UEBA_NXZ 0000000140086b40 f i cryptopp-static:integer.cpp.obj
 0001:00085b60       ?AssignIntToInteger@CryptoPP@@YA_NAEBVtype_info@@PEAXPEBX@Z 0000000140086b60 f   cryptopp-static:integer.cpp.obj
 0001:00085cb0       ?BERDecode@Integer@CryptoPP@@UEAAXAEAVBufferedTransformation@2@@Z 0000000140086cb0 f   cryptopp-static:integer.cpp.obj
 0001:00085d40       ?BERDecodeError@CryptoPP@@YAXXZ 0000000140086d40 f i cryptopp-static:integer.cpp.obj
 0001:00085d70       ?BEREncode@ASN1Object@CryptoPP@@UEBAXAEAVBufferedTransformation@2@@Z 0000000140086d70 f i cryptopp-static:integer.cpp.obj
 0001:00085d80       ?Baseline_Multiply16@CryptoPP@@YAXPEA_KPEB_K1@Z 0000000140086d80 f   cryptopp-static:integer.cpp.obj
 0001:00088540       ?Baseline_Multiply2@CryptoPP@@YAXPEA_KPEB_K1@Z 0000000140089540 f   cryptopp-static:integer.cpp.obj
 0001:000885c0       ?Baseline_Multiply4@CryptoPP@@YAXPEA_KPEB_K1@Z 00000001400895c0 f   cryptopp-static:integer.cpp.obj
 0001:00088800       ?Baseline_Multiply8@CryptoPP@@YAXPEA_KPEB_K1@Z 0000000140089800 f   cryptopp-static:integer.cpp.obj
 0001:00089180       ?Baseline_MultiplyBottom16@CryptoPP@@YAXPEA_KPEB_K1@Z 000000014008a180 f   cryptopp-static:integer.cpp.obj
 0001:0008a500       ?Baseline_MultiplyBottom2@CryptoPP@@YAXPEA_KPEB_K1@Z 000000014008b500 f   cryptopp-static:integer.cpp.obj
 0001:0008a530       ?Baseline_MultiplyBottom4@CryptoPP@@YAXPEA_KPEB_K1@Z 000000014008b530 f   cryptopp-static:integer.cpp.obj
 0001:0008a620       ?Baseline_MultiplyBottom8@CryptoPP@@YAXPEA_KPEB_K1@Z 000000014008b620 f   cryptopp-static:integer.cpp.obj
 0001:0008aa70       ?Baseline_MultiplyTop16@CryptoPP@@YAXPEA_KPEB_K1_K@Z 000000014008ba70 f   cryptopp-static:integer.cpp.obj
 0001:0008c170       ?Baseline_MultiplyTop2@CryptoPP@@YAXPEA_KPEB_K1_K@Z 000000014008d170 f   cryptopp-static:integer.cpp.obj
 0001:0008c200       ?Baseline_MultiplyTop4@CryptoPP@@YAXPEA_KPEB_K1_K@Z 000000014008d200 f   cryptopp-static:integer.cpp.obj
 0001:0008c3f0       ?Baseline_MultiplyTop8@CryptoPP@@YAXPEA_KPEB_K1_K@Z 000000014008d3f0 f   cryptopp-static:integer.cpp.obj
 0001:0008ca10       ?Baseline_Square16@CryptoPP@@YAXPEA_KPEB_K@Z 000000014008da10 f   cryptopp-static:integer.cpp.obj
 0001:0008dee0       ?Baseline_Square2@CryptoPP@@YAXPEA_KPEB_K@Z 000000014008eee0 f   cryptopp-static:integer.cpp.obj
 0001:0008df50       ?Baseline_Square4@CryptoPP@@YAXPEA_KPEB_K@Z 000000014008ef50 f   cryptopp-static:integer.cpp.obj
 0001:0008e0f0       ?Baseline_Square8@CryptoPP@@YAXPEA_KPEB_K@Z 000000014008f0f0 f   cryptopp-static:integer.cpp.obj
 0001:0008e650       ?BlockSize@?$IteratedHash@IU?$EnumToType@W4ByteOrder@CryptoPP@@$00@CryptoPP@@$0EA@VHashTransformation@2@@CryptoPP@@UEBAIXZ 000000014008f650 f i cryptopp-static:integer.cpp.obj
 0001:0008e660       ?ByteCount@Integer@CryptoPP@@QEBAIXZ 000000014008f660 f   cryptopp-static:integer.cpp.obj
 0001:0008e6e0       ?CalculateDigest@HashTransformation@CryptoPP@@UEAAXPEAEPEBE_K@Z 000000014008f6e0 f i cryptopp-static:integer.cpp.obj
 0001:0008e720       ?CalculateTruncatedDigest@HashTransformation@CryptoPP@@UEAAXPEAE_KPEBE1@Z 000000014008f720 f i cryptopp-static:integer.cpp.obj
 0001:0008e770       ?CheckSize@?$AllocatorBase@_K@CryptoPP@@KAX_K@Z 000000014008f770 f i cryptopp-static:integer.cpp.obj
 0001:0008e7f0       ?CleanGrow@?$SecBlock@_KV?$AllocatorWithCleanup@_K$00@CryptoPP@@@CryptoPP@@QEAAX_K@Z 000000014008f7f0 f i cryptopp-static:integer.cpp.obj
 0001:0008e8d0       ?DEREncode@Integer@CryptoPP@@UEBAXAEAVBufferedTransformation@2@@Z 000000014008f8d0 f   cryptopp-static:integer.cpp.obj
 0001:0008e950       ?DataBuf@?$IteratedHash@IU?$EnumToType@W4ByteOrder@CryptoPP@@$00@CryptoPP@@$0EA@VHashTransformation@2@@CryptoPP@@MEAAPEAIXZ 000000014008f950 f i cryptopp-static:integer.cpp.obj
 0001:0008e960       ?Decode@Integer@CryptoPP@@QEAAXAEAVBufferedTransformation@2@_KW4Signedness@12@@Z 000000014008f960 f   cryptopp-static:integer.cpp.obj
 0001:0008ebc0       ?Encode@Integer@CryptoPP@@QEBAXAEAVBufferedTransformation@2@_KW4Signedness@12@@Z 000000014008fbc0 f   cryptopp-static:integer.cpp.obj
 0001:0008ede0       ?Final@HashTransformation@CryptoPP@@UEAAXPEAE@Z 000000014008fde0 f i cryptopp-static:integer.cpp.obj
 0001:0008ee20       ?MaxRetrievable@ByteQueue@CryptoPP@@UEBA_KXZ 000000014008fe20 f i cryptopp-static:integer.cpp.obj
 0001:0008ee30       ?MinEncodedSize@Integer@CryptoPP@@QEBA_KW4Signedness@12@@Z 000000014008fe30 f   cryptopp-static:integer.cpp.obj
 0001:0008f020       ?New@?$SecBlock@_KV?$AllocatorWithCleanup@_K$00@CryptoPP@@@CryptoPP@@QEAAX_K@Z 0000000140090020 f i cryptopp-static:integer.cpp.obj
 0001:0008f0a0       ?OptimalBlockSize@?$IteratedHashBase@IVHashTransformation@CryptoPP@@@CryptoPP@@UEBAIXZ 00000001400900a0 f i cryptopp-static:integer.cpp.obj
 0001:0008f0b0       ?Plus@Integer@CryptoPP@@QEBA?AV12@AEBV12@@Z 00000001400900b0 f   cryptopp-static:integer.cpp.obj
 0001:0008f170       ?PositiveAdd@CryptoPP@@YAXAEAVInteger@1@AEBV21@1@Z 0000000140090170 f   cryptopp-static:integer.cpp.obj
 0001:0008f350       ?PositiveCompare@Integer@CryptoPP@@AEBAHAEBV12@@Z 0000000140090350 f   cryptopp-static:integer.cpp.obj
 0001:0008f400       ?PositiveSubtract@CryptoPP@@YAXAEAVInteger@1@AEBV21@1@Z 0000000140090400 f   cryptopp-static:integer.cpp.obj
 0001:0008f650       ?Power2@Integer@CryptoPP@@SA?AV12@_K@Z 0000000140090650 f   cryptopp-static:integer.cpp.obj
 0001:0008f930       ?Verify@HashTransformation@CryptoPP@@UEAA_NPEBE@Z 0000000140090930 f i cryptopp-static:integer.cpp.obj
 0001:0008f970       ?VerifyDigest@HashTransformation@CryptoPP@@UEAA_NPEBE0_K@Z 0000000140090970 f i cryptopp-static:integer.cpp.obj
 0001:0008f9b0       ?VerifyTruncatedDigest@HashTransformation@CryptoPP@@UEAA_NPEBE_K01@Z 00000001400909b0 f i cryptopp-static:integer.cpp.obj
 0001:0008fa00       ?allocate@?$AllocatorWithCleanup@_K$00@CryptoPP@@QEAAPEA_K_KPEBX@Z 0000000140090a00 f i cryptopp-static:integer.cpp.obj
 0001:0008faa0       ??0?$FixedSizeAlignedSecBlock@I$0BA@$00@CryptoPP@@QEAA@AEBV01@@Z 0000000140090aa0 f i cryptopp-static:randpool.cpp.obj
 0001:0008fb50       ??0RandomPool@CryptoPP@@QEAA@XZ 0000000140090b50 f   cryptopp-static:randpool.cpp.obj
 0001:0008fc70       ??1?$ClonableImpl@VSHA256@CryptoPP@@V?$AlgorithmImpl@V?$IteratedHash@IU?$EnumToType@W4ByteOrder@CryptoPP@@$00@CryptoPP@@$0EA@VHashTransformation@2@@CryptoPP@@VSHA256@2@@2@@CryptoPP@@UEAA@XZ 0000000140090c70 f i cryptopp-static:randpool.cpp.obj
 0001:0008fca0       ??1?$FixedSizeAlignedSecBlock@I$0BA@$00@CryptoPP@@QEAA@XZ 0000000140090ca0 f i cryptopp-static:randpool.cpp.obj
 0001:0008fcd0       ??1SHA256@CryptoPP@@UEAA@XZ 0000000140090cd0 f i cryptopp-static:randpool.cpp.obj
 0001:0008fd30       ??_GRandomPool@CryptoPP@@UEAAPEAXI@Z 0000000140090d30 f i cryptopp-static:randpool.cpp.obj
 0001:0008fd30       ??_ERandomPool@CryptoPP@@UEAAPEAXI@Z 0000000140090d30 f i cryptopp-static:randpool.cpp.obj
 0001:0008fdd0       ??_GSHA256@CryptoPP@@UEAAPEAXI@Z 0000000140090dd0 f i cryptopp-static:randpool.cpp.obj
 0001:0008fdd0       ??_ESHA256@CryptoPP@@UEAAPEAXI@Z 0000000140090dd0 f i cryptopp-static:randpool.cpp.obj
 0001:0008fe50       ?AlgorithmName@?$AlgorithmImpl@V?$IteratedHash@IU?$EnumToType@W4ByteOrder@CryptoPP@@$00@CryptoPP@@$0EA@VHashTransformation@2@@CryptoPP@@VSHA256@2@@CryptoPP@@UEBA?AV?$basic_string@DU?$char_traits@D@std@@V?$allocator@D@2@@std@@XZ 0000000140090e50 f i cryptopp-static:randpool.cpp.obj
 0001:0008fea0       ?Clone@?$ClonableImpl@V?$BlockCipherFinal@$0A@VEnc@Rijndael@CryptoPP@@@CryptoPP@@VEnc@Rijndael@2@@CryptoPP@@UEBAPEAVClonable@2@XZ 0000000140090ea0 f i cryptopp-static:randpool.cpp.obj
 0001:0008ffb0       ?Clone@?$ClonableImpl@VSHA256@CryptoPP@@V?$AlgorithmImpl@V?$IteratedHash@IU?$EnumToType@W4ByteOrder@CryptoPP@@$00@CryptoPP@@$0EA@VHashTransformation@2@@CryptoPP@@VSHA256@2@@2@@CryptoPP@@UEBAPEAVClonable@2@XZ 0000000140090fb0 f i cryptopp-static:randpool.cpp.obj
 0001:00090020       ?GenerateIntoBufferedTransformation@RandomPool@CryptoPP@@UEAAXAEAVBufferedTransformation@2@AEBV?$basic_string@DU?$char_traits@D@std@@V?$allocator@D@2@@std@@_K@Z 0000000140091020 f   cryptopp-static:randpool.cpp.obj
 0001:00090150       ?HashEndianCorrectedBlock@?$IteratedHashWithStaticTransform@IU?$EnumToType@W4ByteOrder@CryptoPP@@$00@CryptoPP@@$0EA@$0CA@VSHA256@2@$0CA@$00@CryptoPP@@MEAAXPEBI@Z 0000000140091150 f i cryptopp-static:randpool.cpp.obj
 0001:00090160       ?IncorporateEntropy@RandomPool@CryptoPP@@UEAAXPEBE_K@Z 0000000140091160 f   cryptopp-static:randpool.cpp.obj
 0001:000902a0       ?Init@?$IteratedHashWithStaticTransform@IU?$EnumToType@W4ByteOrder@CryptoPP@@$00@CryptoPP@@$0EA@$0CA@VSHA256@2@$0CA@$00@CryptoPP@@MEAAXXZ 00000001400912a0 f i cryptopp-static:randpool.cpp.obj
 0001:000902b0       ?StateBuf@?$IteratedHashWithStaticTransform@IU?$EnumToType@W4ByteOrder@CryptoPP@@$00@CryptoPP@@$0EA@$0CA@VSHA256@2@$0CA@$00@CryptoPP@@MEAAPEAIXZ 00000001400912b0 f i cryptopp-static:randpool.cpp.obj
 0001:000902c0       ??0ByteQueue@CryptoPP@@QEAA@_K@Z 00000001400912c0 f   cryptopp-static:queue.cpp.obj
 0001:000903a0       ??1ByteQueue@CryptoPP@@UEAA@XZ 00000001400913a0 f   cryptopp-static:queue.cpp.obj
 0001:000903c4       ??_EByteQueue@CryptoPP@@W7EAAPEAXI@Z 00000001400913c4 f i cryptopp-static:queue.cpp.obj
 0001:000903d0       ??_EWalker@ByteQueue@CryptoPP@@W7EAAPEAXI@Z 00000001400913d0 f i cryptopp-static:queue.cpp.obj
 0001:000903e0       ??_EByteQueue@CryptoPP@@UEAAPEAXI@Z 00000001400913e0 f i cryptopp-static:queue.cpp.obj
 0001:000903e0       ??_GByteQueue@CryptoPP@@UEAAPEAXI@Z 00000001400913e0 f i cryptopp-static:queue.cpp.obj
 0001:00090430       ??_EWalker@ByteQueue@CryptoPP@@UEAAPEAXI@Z 0000000140091430 f i cryptopp-static:queue.cpp.obj
 0001:00090430       ??_GWalker@ByteQueue@CryptoPP@@UEAAPEAXI@Z 0000000140091430 f i cryptopp-static:queue.cpp.obj
 0001:00090460       ?CleanupUsedNodes@ByteQueue@CryptoPP@@AEAAXXZ 0000000140091460 f   cryptopp-static:queue.cpp.obj
 0001:00090520       ?Clear@ByteQueue@CryptoPP@@QEAAXXZ 0000000140091520 f   cryptopp-static:queue.cpp.obj
 0001:000905d0       ?CopyRangeTo2@ByteQueue@CryptoPP@@UEBA_KAEAVBufferedTransformation@2@AEA_K_KAEBV?$basic_string@DU?$char_traits@D@std@@V?$allocator@D@2@@std@@_N@Z 00000001400915d0 f   cryptopp-static:queue.cpp.obj
 0001:00090790       ?CopyRangeTo2@Walker@ByteQueue@CryptoPP@@UEBA_KAEAVBufferedTransformation@3@AEA_K_KAEBV?$basic_string@DU?$char_traits@D@std@@V?$allocator@D@2@@std@@_N@Z 0000000140091790 f   cryptopp-static:queue.cpp.obj
 0001:00090880       ?CreatePutSpace@ByteQueue@CryptoPP@@UEAAPEAEAEA_K@Z 0000000140091880 f   cryptopp-static:queue.cpp.obj
 0001:00090970       ?CurrentSize@ByteQueue@CryptoPP@@QEBA_KXZ 0000000140091970 f   cryptopp-static:queue.cpp.obj
 0001:000909a0       ?Destroy@ByteQueue@CryptoPP@@AEAAXXZ 00000001400919a0 f   cryptopp-static:queue.cpp.obj
 0001:00090a30       ?Get@ByteQueue@CryptoPP@@UEAA_KAEAE@Z 0000000140091a30 f   cryptopp-static:queue.cpp.obj
 0001:00090aa0       ?Get@ByteQueue@CryptoPP@@UEAA_KPEAE_K@Z 0000000140091aa0 f   cryptopp-static:queue.cpp.obj
 0001:00090aa0       ?Get@Walker@ByteQueue@CryptoPP@@UEAA_KPEAE_K@Z 0000000140091aa0 f   cryptopp-static:queue.cpp.obj
 0001:00090b50       ?Get@Walker@ByteQueue@CryptoPP@@UEAA_KAEAE@Z 0000000140091b50 f   cryptopp-static:queue.cpp.obj
 0001:00090c00       ?IsEmpty@ByteQueue@CryptoPP@@QEBA_NXZ 0000000140091c00 f   cryptopp-static:queue.cpp.obj
 0001:00090c30       ?IsolatedInitialize@ByteQueue@CryptoPP@@UEAAXAEBVNameValuePairs@2@@Z 0000000140091c30 f   cryptopp-static:queue.cpp.obj
 0001:00090c80       ?IsolatedInitialize@Walker@ByteQueue@CryptoPP@@UEAAXAEBVNameValuePairs@3@@Z 0000000140091c80 f   cryptopp-static:queue.cpp.obj
 0001:00090cb0       ?MaxRetrievable@Walker@ByteQueue@CryptoPP@@UEBA_KXZ 0000000140091cb0 f i cryptopp-static:queue.cpp.obj
 0001:00090ce0       ?Peek@ByteQueue@CryptoPP@@UEBA_KAEAE@Z 0000000140091ce0 f   cryptopp-static:queue.cpp.obj
 0001:00090d20       ?Peek@ByteQueue@CryptoPP@@UEBA_KPEAE_K@Z 0000000140091d20 f   cryptopp-static:queue.cpp.obj
 0001:00090d20       ?Peek@Walker@ByteQueue@CryptoPP@@UEBA_KPEAE_K@Z 0000000140091d20 f   cryptopp-static:queue.cpp.obj
 0001:00090dd0       ?Peek@Walker@ByteQueue@CryptoPP@@UEBA_KAEAE@Z 0000000140091dd0 f   cryptopp-static:queue.cpp.obj
 0001:00090e80       ?Put2@ByteQueue@CryptoPP@@UEAA_KPEBE_KH_N@Z 0000000140091e80 f   cryptopp-static:queue.cpp.obj
 0001:00090fe0       ?TransferTo2@ByteQueue@CryptoPP@@UEAA_KAEAVBufferedTransformation@2@AEA_KAEBV?$basic_string@DU?$char_traits@D@std@@V?$allocator@D@2@@std@@_N@Z 0000000140091fe0 f   cryptopp-static:queue.cpp.obj
 0001:00091270       ?TransferTo2@Walker@ByteQueue@CryptoPP@@UEAA_KAEAVBufferedTransformation@3@AEA_KAEBV?$basic_string@DU?$char_traits@D@std@@V?$allocator@D@2@@std@@_N@Z 0000000140092270 f   cryptopp-static:queue.cpp.obj
 0001:000913b0       ?GetPowerUpSelfTestStatus@CryptoPP@@YA?AW4PowerUpSelfTestStatus@1@XZ 00000001400923b0 f   cryptopp-static:fips140.cpp.obj
 0001:000913c0       ??0MessageQueue@CryptoPP@@QEAA@I@Z 00000001400923c0 f   cryptopp-static:mqueue.cpp.obj
 0001:000915c0       ??1?$_Container_proxy_ptr12@V?$allocator@U_Container_proxy@std@@@std@@@std@@QEAA@XZ 00000001400925c0 f i cryptopp-static:mqueue.cpp.obj
 0001:000915e0       ??1?$_Tidy_guard@V?$deque@IV?$allocator@I@std@@@std@@@std@@QEAA@XZ 00000001400925e0 f i cryptopp-static:mqueue.cpp.obj
 0001:000915e0       ??1?$_Tidy_guard@V?$deque@_KV?$allocator@_K@std@@@std@@@std@@QEAA@XZ 00000001400925e0 f i cryptopp-static:mqueue.cpp.obj
 0001:000915f0       ??1?$deque@_KV?$allocator@_K@std@@@std@@QEAA@XZ 00000001400925f0 f i cryptopp-static:mqueue.cpp.obj
 0001:00091620       ??1MessageQueue@CryptoPP@@UEAA@XZ 0000000140092620 f i cryptopp-static:mqueue.cpp.obj
 0001:00091688       ??_EMessageQueue@CryptoPP@@W7EAAPEAXI@Z 0000000140092688 f i cryptopp-static:mqueue.cpp.obj
 0001:000916a0       ??_EMessageQueue@CryptoPP@@UEAAPEAXI@Z 00000001400926a0 f i cryptopp-static:mqueue.cpp.obj
 0001:000916a0       ??_GMessageQueue@CryptoPP@@UEAAPEAXI@Z 00000001400926a0 f i cryptopp-static:mqueue.cpp.obj
 0001:000916e0       ?AnyRetrievable@MessageQueue@CryptoPP@@UEBA_NXZ 00000001400926e0 f i cryptopp-static:mqueue.cpp.obj
 0001:00091710       ?CopyRangeTo2@MessageQueue@CryptoPP@@UEBA_KAEAVBufferedTransformation@2@AEA_K_KAEBV?$basic_string@DU?$char_traits@D@std@@V?$allocator@D@2@@std@@_N@Z 0000000140092710 f   cryptopp-static:mqueue.cpp.obj
 0001:000917a0       ?GetNextMessage@MessageQueue@CryptoPP@@UEAA_NXZ 00000001400927a0 f   cryptopp-static:mqueue.cpp.obj
 0001:00091860       ?IsolatedInitialize@MessageQueue@CryptoPP@@UEAAXAEBVNameValuePairs@2@@Z 0000000140092860 f i cryptopp-static:mqueue.cpp.obj
 0001:00091b00       ?IsolatedMessageSeriesEnd@MessageQueue@CryptoPP@@UEAA_N_N@Z 0000000140092b00 f i cryptopp-static:mqueue.cpp.obj
 0001:00091bc0       ?MaxRetrievable@MessageQueue@CryptoPP@@UEBA_KXZ 0000000140092bc0 f i cryptopp-static:mqueue.cpp.obj
 0001:00091bf0       ?NumberOfMessageSeries@MessageQueue@CryptoPP@@UEBAIXZ 0000000140092bf0 f i cryptopp-static:mqueue.cpp.obj
 0001:00091c00       ?NumberOfMessages@MessageQueue@CryptoPP@@UEBAIXZ 0000000140092c00 f i cryptopp-static:mqueue.cpp.obj
 0001:00091c10       ?NumberOfMessagesInThisSeries@MessageQueue@CryptoPP@@UEBAIXZ 0000000140092c10 f i cryptopp-static:mqueue.cpp.obj
 0001:00091c40       ?Put2@MessageQueue@CryptoPP@@UEAA_KPEBE_KH_N@Z 0000000140092c40 f i cryptopp-static:mqueue.cpp.obj
 0001:00091db0       ?TotalBytesRetrievable@MessageQueue@CryptoPP@@UEBA_KXZ 0000000140092db0 f i cryptopp-static:mqueue.cpp.obj
 0001:00091dc0       ?TransferTo2@MessageQueue@CryptoPP@@UEAA_KAEAVBufferedTransformation@2@AEA_KAEBV?$basic_string@DU?$char_traits@D@std@@V?$allocator@D@2@@std@@_N@Z 0000000140092dc0 f   cryptopp-static:mqueue.cpp.obj
 0001:00091e60       ?_Growmap@?$deque@IV?$allocator@I@std@@@std@@AEAAX_K@Z 0000000140092e60 f i cryptopp-static:mqueue.cpp.obj
 0001:00092040       ?_Growmap@?$deque@_KV?$allocator@_K@std@@@std@@AEAAX_K@Z 0000000140093040 f i cryptopp-static:mqueue.cpp.obj
 0001:00092220       ?_Tidy@?$deque@_KV?$allocator@_K@std@@@std@@AEAAXXZ 0000000140093220 f i cryptopp-static:mqueue.cpp.obj
 0001:00092220       ?_Tidy@?$deque@IV?$allocator@I@std@@@std@@AEAAXXZ 0000000140093220 f i cryptopp-static:mqueue.cpp.obj
 0001:000922e0       ?_Xlen@?$deque@IV?$allocator@I@std@@@std@@AEBAXXZ 00000001400932e0 f i cryptopp-static:mqueue.cpp.obj
 0001:000922e0       ?_Xlen@?$deque@_KV?$allocator@_K@std@@@std@@AEBAXXZ 00000001400932e0 f i cryptopp-static:mqueue.cpp.obj
 0001:00092300       ?DetectX86Features@CryptoPP@@YAXXZ 0000000140093300 f   cryptopp-static:cpu.cpp.obj
 0001:00092630       ??$AdvancedProcessBlocks128_4x1_SSE@P6AXAEAT__m128i@@PEBII@ZP6AX00001I@ZI@CryptoPP@@YA_KP6AXAEAT__m128i@@PEBII@ZP6AX00001I@Z1_KPEBE5PEAE4I@Z 0000000140093630 f i cryptopp-static:rijndael_simd.cpp.obj
 0001:00092c30       ?Rijndael_Dec_AdvancedProcessBlocks_AESNI@CryptoPP@@YA_KPEBI_KPEBE2PEAE1I@Z 0000000140093c30 f   cryptopp-static:rijndael_simd.cpp.obj
 0001:00092c90       ?Rijndael_Enc_AdvancedProcessBlocks_AESNI@CryptoPP@@YA_KPEBI_KPEBE2PEAE1I@Z 0000000140093c90 f   cryptopp-static:rijndael_simd.cpp.obj
 0001:00092cf0       ?Rijndael_UncheckedSetKeyRev_AESNI@CryptoPP@@YAXPEAII@Z 0000000140093cf0 f   cryptopp-static:rijndael_simd.cpp.obj
 0001:00092d60       ?Rijndael_UncheckedSetKey_SSE4_AESNI@CryptoPP@@YAXPEBE_KPEAI@Z 0000000140093d60 f   cryptopp-static:rijndael_simd.cpp.obj
 0001:00092ed0       Baseline_Add               0000000140093ed0 f   cryptopp-static:x64dll.asm.obj
 0001:00092f20       Baseline_Sub               0000000140093f20 f   cryptopp-static:x64dll.asm.obj
 0001:00092f70       Rijndael_Enc_AdvancedProcessBlocks_SSE2 0000000140093f70 f   cryptopp-static:x64dll.asm.obj
 0001:000935c8       GCM_AuthenticateBlocks_2K_SSE2 00000001400945c8 f   cryptopp-static:x64dll.asm.obj
 0001:00093848       GCM_AuthenticateBlocks_64K_SSE2 0000000140094848 f   cryptopp-static:x64dll.asm.obj
 0001:00093990       SHA256_HashMultipleBlocks_SSE2 0000000140094990 f   cryptopp-static:x64dll.asm.obj
 0001:00094838       ExtendedControlRegister    0000000140095838 f   cryptopp-static:x64dll.asm.obj
 0001:00094850       ??1EC2NPoint@CryptoPP@@UEAA@XZ 0000000140095850 f i cryptopp-static:dll.cpp.obj
 0001:000948d0       ??1ECPPoint@CryptoPP@@UEAA@XZ 00000001400958d0 f i cryptopp-static:dll.cpp.obj
 0001:00094970       ??1PolynomialMod2@CryptoPP@@QEAA@XZ 0000000140095970 f i cryptopp-static:dll.cpp.obj
 0001:000949b0       ??_EEC2NPoint@CryptoPP@@UEAAPEAXI@Z 00000001400959b0 f i cryptopp-static:dll.cpp.obj
 0001:000949b0       ??_GEC2NPoint@CryptoPP@@UEAAPEAXI@Z 00000001400959b0 f i cryptopp-static:dll.cpp.obj
 0001:000949f0       ??_EECPPoint@CryptoPP@@UEAAPEAXI@Z 00000001400959f0 f i cryptopp-static:dll.cpp.obj
 0001:000949f0       ??_GECPPoint@CryptoPP@@UEAAPEAXI@Z 00000001400959f0 f i cryptopp-static:dll.cpp.obj
 0001:00094a30       ?HashBlock@?$IteratedHashBase@IVHashTransformation@CryptoPP@@@CryptoPP@@IEAAXPEBI@Z 0000000140095a30 f i cryptopp-static:dll.cpp.obj
 0001:00094a70       ?allocate@?$AllocatorWithCleanup@_K$0A@@CryptoPP@@QEAAPEA_K_KPEBX@Z 0000000140095a70 f i cryptopp-static:dll.cpp.obj
 0001:00094aa0       ??0BERGeneralDecoder@CryptoPP@@QEAA@AEAVBufferedTransformation@1@E@Z 0000000140095aa0 f   cryptopp-static:asn.cpp.obj
 0001:00094b10       ??0DERGeneralEncoder@CryptoPP@@QEAA@AEAVBufferedTransformation@1@E@Z 0000000140095b10 f   cryptopp-static:asn.cpp.obj
 0001:00094b70       ??1BERGeneralDecoder@CryptoPP@@UEAA@XZ 0000000140095b70 f   cryptopp-static:asn.cpp.obj
 0001:00094be0       ??1DERGeneralEncoder@CryptoPP@@UEAA@XZ 0000000140095be0 f   cryptopp-static:asn.cpp.obj
 0001:00094c24       ??_EBERGeneralDecoder@CryptoPP@@W7EAAPEAXI@Z 0000000140095c24 f i cryptopp-static:asn.cpp.obj
 0001:00094c30       ??_EDERGeneralEncoder@CryptoPP@@W7EAAPEAXI@Z 0000000140095c30 f i cryptopp-static:asn.cpp.obj
 0001:00094c40       ??_EBERGeneralDecoder@CryptoPP@@UEAAPEAXI@Z 0000000140095c40 f i cryptopp-static:asn.cpp.obj
 0001:00094c40       ??_GBERGeneralDecoder@CryptoPP@@UEAAPEAXI@Z 0000000140095c40 f i cryptopp-static:asn.cpp.obj
 0001:00094c80       ??_GDERGeneralEncoder@CryptoPP@@UEAAPEAXI@Z 0000000140095c80 f i cryptopp-static:asn.cpp.obj
 0001:00094c80       ??_EDERGeneralEncoder@CryptoPP@@UEAAPEAXI@Z 0000000140095c80 f i cryptopp-static:asn.cpp.obj
 0001:00094cc0       ?BERLengthDecode@CryptoPP@@YA_NAEAVBufferedTransformation@1@AEA_KAEA_N@Z 0000000140095cc0 f   cryptopp-static:asn.cpp.obj
 0001:00094d80       ?CopyRangeTo2@BERGeneralDecoder@CryptoPP@@UEBA_KAEAVBufferedTransformation@2@AEA_K_KAEBV?$basic_string@DU?$char_traits@D@std@@V?$allocator@D@2@@std@@_N@Z 0000000140095d80 f   cryptopp-static:asn.cpp.obj
 0001:00094db0       ?DERLengthEncode@CryptoPP@@YA_KAEAVBufferedTransformation@1@_K@Z 0000000140095db0 f   cryptopp-static:asn.cpp.obj
 0001:00094ef0       ?Init@BERGeneralDecoder@CryptoPP@@AEAAXE@Z 0000000140095ef0 f   cryptopp-static:asn.cpp.obj
 0001:00094f60       ?MessageEnd@BERGeneralDecoder@CryptoPP@@QEAAXXZ 0000000140095f60 f   cryptopp-static:asn.cpp.obj
 0001:00094fb0       ?MessageEnd@DERGeneralEncoder@CryptoPP@@QEAAXXZ 0000000140095fb0 f   cryptopp-static:asn.cpp.obj
 0001:00095030       ?TransferTo2@BERGeneralDecoder@CryptoPP@@UEAA_KAEAVBufferedTransformation@2@AEA_KAEBV?$basic_string@DU?$char_traits@D@std@@V?$allocator@D@2@@std@@_N@Z 0000000140096030 f   cryptopp-static:asn.cpp.obj
 0001:000950a0       ??0HashInputTooLong@CryptoPP@@QEAA@AEBV01@@Z 00000001400960a0 f i cryptopp-static:iterhash.cpp.obj
 0001:000950d0       ??0HashInputTooLong@CryptoPP@@QEAA@AEBV?$basic_string@DU?$char_traits@D@std@@V?$allocator@D@2@@std@@@Z 00000001400960d0 f i cryptopp-static:iterhash.cpp.obj
 0001:000951e0       ?CreateUpdateSpace@?$IteratedHashBase@IVHashTransformation@CryptoPP@@@CryptoPP@@UEAAPEAEAEA_K@Z 00000001400961e0 f i cryptopp-static:iterhash.cpp.obj
 0001:00095240       ?Restart@?$IteratedHashBase@IVHashTransformation@CryptoPP@@@CryptoPP@@UEAAXXZ 0000000140096240 f i cryptopp-static:iterhash.cpp.obj
 0001:00095250       ?TruncatedFinal@?$IteratedHashBase@IVHashTransformation@CryptoPP@@@CryptoPP@@UEAAXPEAE_K@Z 0000000140096250 f i cryptopp-static:iterhash.cpp.obj
 0001:00095430       ?Update@?$IteratedHashBase@IVHashTransformation@CryptoPP@@@CryptoPP@@UEAAXPEBE_K@Z 0000000140096430 f i cryptopp-static:iterhash.cpp.obj
 0001:000955f0       ?AlgorithmProvider@SHA256@CryptoPP@@UEBA?AV?$basic_string@DU?$char_traits@D@std@@V?$allocator@D@2@@std@@XZ 00000001400965f0 f   cryptopp-static:sha.cpp.obj
 0001:00095610       ?HashMultipleBlocks@SHA256@CryptoPP@@MEAA_KPEBI_K@Z 0000000140096610 f   cryptopp-static:sha.cpp.obj
 0001:00095690       ?InitState@SHA256@CryptoPP@@SAXPEAI@Z 0000000140096690 f   cryptopp-static:sha.cpp.obj
 0001:000956b0       ?SHA256_AlgorithmProvider@CryptoPP@@YA?AV?$basic_string@DU?$char_traits@D@std@@V?$allocator@D@2@@std@@XZ 00000001400966b0 f   cryptopp-static:sha.cpp.obj
 0001:000963e0       ?Transform@SHA256@CryptoPP@@SAXPEAIPEBI@Z 00000001400973e0 f   cryptopp-static:sha.cpp.obj
 0001:00096440       ?GetCurrentTimerValue@Timer@CryptoPP@@UEAA_KXZ 0000000140097440 f   cryptopp-static:hrtimer.cpp.obj
 0001:000964e0       ?TicksPerSecond@Timer@CryptoPP@@UEAA_KXZ 00000001400974e0 f   cryptopp-static:hrtimer.cpp.obj
 0001:000965e0       ??0PolynomialMod2@CryptoPP@@QEAA@XZ 00000001400975e0 f   cryptopp-static:gf2n.cpp.obj
 0001:00096620       ?SHA256_HashMultipleBlocks_SHANI@CryptoPP@@YAXPEAIPEBI_KW4ByteOrder@1@@Z 0000000140097620 f   cryptopp-static:sha_simd.cpp.obj
 0001:00096ca4       mainCRTStartup             0000000140097ca4 f   MSVCRT:exe_main.obj
 0001:00096cd0       __security_check_cookie    0000000140097cd0 f   MSVCRT:amdsecgs.obj
 0001:00096cf4       __raise_securityfailure    0000000140097cf4 f   MSVCRT:gs_report.obj
 0001:00096d28       __report_gsfailure         0000000140097d28 f   MSVCRT:gs_report.obj
 0001:00096dfc       __report_rangecheckfailure 0000000140097dfc f   MSVCRT:gs_report.obj
 0001:00096e10       __report_securityfailure   0000000140097e10 f   MSVCRT:gs_report.obj
 0001:00097088       _Init_thread_abort         0000000140098088 f   MSVCRT:thread_safe_statics.obj
 0001:000970b8       _Init_thread_footer        00000001400980b8 f   MSVCRT:thread_safe_statics.obj
 0001:00097118       _Init_thread_header        0000000140098118 f   MSVCRT:thread_safe_statics.obj
 0001:00097180       _Init_thread_notify        0000000140098180 f   MSVCRT:thread_safe_statics.obj
 0001:000971c4       _Init_thread_wait          00000001400981c4 f   MSVCRT:thread_safe_statics.obj
 0001:00097228       ??_M@YAXPEAX_K1P6AX0@Z@Z   0000000140098228 f   MSVCRT:ehvecdtr.obj
 0001:00097294       ?__ArrayUnwind@@YAXPEAX_K1P6AX0@Z@Z 0000000140098294 f   MSVCRT:ehvecdtr.obj
 0001:000972f8       __scrt_acquire_startup_lock 00000001400982f8 f   MSVCRT:utility.obj
 0001:00097334       __scrt_initialize_crt      0000000140098334 f   MSVCRT:utility.obj
 0001:00097380       __scrt_initialize_onexit_tables 0000000140098380 f   MSVCRT:utility.obj
 0001:0009740c       __scrt_is_nonwritable_in_current_image 000000014009840c f   MSVCRT:utility.obj
 0001:000974a4       __scrt_release_startup_lock 00000001400984a4 f   MSVCRT:utility.obj
 0001:000974c8       __scrt_uninitialize_crt    00000001400984c8 f   MSVCRT:utility.obj
 0001:000974f4       _onexit                    00000001400984f4 f   MSVCRT:utility.obj
 0001:00097530       atexit                     0000000140098530 f   MSVCRT:utility.obj
 0001:00097548       ??3@YAXPEAX_K@Z            0000000140098548 f   MSVCRT:delete_scalar_size.obj
 0001:00097548       ??_V@YAXPEAX@Z             0000000140098548 f   MSVCRT:delete_array.obj
 0001:00097550       ??_L@YAXPEAX_K1P6AX0@Z2@Z  0000000140098550 f   MSVCRT:ehvecctr.obj
 0001:000975c0       ??3@YAXPEAX@Z              00000001400985c0 f   MSVCRT:delete_scalar.obj
 0001:000975c8       ?__scrt_initialize_type_info@@YAXXZ 00000001400985c8 f   MSVCRT:tncleanup.obj
 0001:000975d8       ??2@YAPEAX_K@Z             00000001400985d8 f   MSVCRT:new_scalar.obj
 0001:00097614       ??_U@YAPEAX_K@Z            0000000140098614 f   MSVCRT:new_array.obj
 0001:0009761c       ??_Gtype_info@@UEAAPEAXI@Z 000000014009861c f i MSVCRT:std_type_info_static.obj
 0001:0009761c       ??_Etype_info@@UEAAPEAXI@Z 000000014009861c f i MSVCRT:std_type_info_static.obj
 0001:00097648       __GSHandlerCheck_EH4       0000000140098648 f   MSVCRT:gshandlereh4.obj
 0001:000976c8       __GSHandlerCheck           00000001400986c8 f   MSVCRT:gshandler.obj
 0001:000976e8       __GSHandlerCheckCommon     00000001400986e8 f   MSVCRT:gshandler.obj
 0001:00097744       __isa_available_init       0000000140098744 f   MSVCRT:cpu_disp.obj
 0001:000978e8       __security_init_cookie     00000001400988e8 f   MSVCRT:gs_support.obj
 0001:00097994       _get_startup_file_mode     0000000140098994 f   MSVCRT:file_mode.obj
 0001:0009799c       __scrt_initialize_default_local_stdio_options 000000014009899c f   MSVCRT:default_local_stdio_options.obj
 0001:000979b8       __scrt_is_user_matherr_present 00000001400989b8 f   MSVCRT:matherr_detection.obj
 0001:000979c4       __scrt_get_dyn_tls_init_callback 00000001400989c4 f   MSVCRT:dyn_tls_init.obj
 0001:000979cc       __scrt_get_dyn_tls_dtor_callback 00000001400989cc f   MSVCRT:dyn_tls_dtor.obj
 0001:000979d4       __crt_debugger_hook        00000001400989d4 f   MSVCRT:utility_desktop.obj
 0001:000979dc       __scrt_fastfail            00000001400989dc f   MSVCRT:utility_desktop.obj
 0001:00097b28       __scrt_initialize_mta      0000000140098b28 f   MSVCRT:utility_desktop.obj
 0001:00097b30       __scrt_is_managed_app      0000000140098b30 f   MSVCRT:utility_desktop.obj
 0001:00097b84       __scrt_set_unhandled_exception_filter 0000000140098b84 f   MSVCRT:utility_desktop.obj
 0001:00097b94       __scrt_unhandled_exception_filter 0000000140098b94 f   MSVCRT:utility_desktop.obj
 0001:00097bf0       _RTC_Initialize            0000000140098bf0 f   MSVCRT:initsect.obj
 0001:00097c2c       _RTC_Terminate             0000000140098c2c f   MSVCRT:initsect.obj
 0001:00097c68       __scrt_is_ucrt_dll_in_use  0000000140098c68 f   MSVCRT:ucrt_detection.obj
 0001:00097c74       ?__scrt_throw_std_bad_alloc@@YAXXZ 0000000140098c74 f   MSVCRT:throw_bad_alloc.obj
 0001:00097ca0       __std_system_error_allocate_message 0000000140098ca0 f   msvcprt:syserror_import_lib.obj
 0001:00097d00       __std_system_error_deallocate_message 0000000140098d00 f   msvcprt:syserror_import_lib.obj
 0001:00097d80       __std_fs_code_page         0000000140098d80 f   msvcprt:filesystem.obj
 0001:00097da8       __std_fs_convert_narrow_to_wide 0000000140098da8 f   msvcprt:filesystem.obj
 0001:00097df0       __std_fs_convert_wide_to_narrow 0000000140098df0 f   msvcprt:filesystem.obj
 0001:00097f14       __std_fs_get_stats         0000000140098f14 f   msvcprt:filesystem.obj
 0001:00098300       __std_fs_open_handle       0000000140099300 f   msvcprt:filesystem.obj
 0001:00098357       ??1_Lockit@std@@QEAA@XZ    0000000140099357 f   msvcprt:MSVCP140.dll
 0001:00098360       ?_Facet_Register@std@@YAXPEAV_Facet_base@1@@Z 0000000140099360 f   msvcprt:locale0_implib.obj
 0001:00098398       ?_Xlength_error@std@@YAXPEBD@Z 0000000140099398 f   msvcprt:MSVCP140.dll
 0001:0009839e       ??1?$basic_streambuf@DU?$char_traits@D@std@@@std@@UEAA@XZ 000000014009939e f   msvcprt:MSVCP140.dll
 0001:000983a4       ?_Lock@?$basic_streambuf@DU?$char_traits@D@std@@@std@@UEAAXXZ 00000001400993a4 f   msvcprt:MSVCP140.dll
 0001:000983aa       ?_Unlock@?$basic_streambuf@DU?$char_traits@D@std@@@std@@UEAAXXZ 00000001400993aa f   msvcprt:MSVCP140.dll
 0001:000983b0       ?showmanyc@?$basic_streambuf@DU?$char_traits@D@std@@@std@@MEAA_JXZ 00000001400993b0 f   msvcprt:MSVCP140.dll
 0001:000983b6       ?uflow@?$basic_streambuf@DU?$char_traits@D@std@@@std@@MEAAHXZ 00000001400993b6 f   msvcprt:MSVCP140.dll
 0001:000983bc       ?xsgetn@?$basic_streambuf@DU?$char_traits@D@std@@@std@@MEAA_JPEAD_J@Z 00000001400993bc f   msvcprt:MSVCP140.dll
 0001:000983c2       ?xsputn@?$basic_streambuf@DU?$char_traits@D@std@@@std@@MEAA_JPEBD_J@Z 00000001400993c2 f   msvcprt:MSVCP140.dll
 0001:000983c8       ?setbuf@?$basic_streambuf@DU?$char_traits@D@std@@@std@@MEAAPEAV12@PEAD_J@Z 00000001400993c8 f   msvcprt:MSVCP140.dll
 0001:000983ce       ?sync@?$basic_streambuf@DU?$char_traits@D@std@@@std@@MEAAHXZ 00000001400993ce f   msvcprt:MSVCP140.dll
 0001:000983d4       ?imbue@?$basic_streambuf@DU?$char_traits@D@std@@@std@@MEAAXAEBVlocale@2@@Z 00000001400993d4 f   msvcprt:MSVCP140.dll
 0001:000983da       ?_Decref@facet@locale@std@@UEAAPEAV_Facet_base@3@XZ 00000001400993da f   msvcprt:MSVCP140.dll
 0001:000983e0       ?_Incref@facet@locale@std@@UEAAXXZ 00000001400993e0 f   msvcprt:MSVCP140.dll
 0001:000983e6       ?set_new_handler@std@@YAP6AXXZP6AXXZ@Z 00000001400993e6 f   msvcprt:MSVCP140.dll
 0001:000983ec       ??0CAtlBaseModule@ATL@@QEAA@XZ 00000001400993ec f   atls:atlbase.obj
 0001:00098494       ??1CAtlBaseModule@ATL@@QEAA@XZ 0000000140099494 f   atls:atlbase.obj
 0001:000984d0       ?_com_issue_error@@YAXJ@Z  00000001400994d0 f   comsuppw:comsupp.obj
 0001:000984e0       ?ConvertStringToBSTR@_com_util@@YAPEA_WPEBD@Z 00000001400994e0 f   comsuppw:comutil.obj
 0001:00098680       ??0_com_error@@QEAA@AEBV0@@Z 0000000140099680 f i comsuppw:comraise.obj
 0001:000986d0       ??0_com_error@@QEAA@JPEAUIErrorInfo@@_N@Z 00000001400996d0 f i comsuppw:comraise.obj
 0001:00098720       ??1_com_error@@UEAA@XZ     0000000140099720 f i comsuppw:comraise.obj
 0001:00098770       ??_E_com_error@@UEAAPEAXI@Z 0000000140099770 f i comsuppw:comraise.obj
 0001:00098770       ??_G_com_error@@UEAAPEAXI@Z 0000000140099770 f i comsuppw:comraise.obj
 0001:000987d0       ?_com_raise_error@@YAXJPEAUIErrorInfo@@@Z 00000001400997d0 f   comsuppw:comraise.obj
 0001:000987f8       __CxxFrameHandler4         00000001400997f8 f   vcruntime:VCRUNTIME140_1.dll
 0001:000987fe       __std_terminate            00000001400997fe f   vcruntime:VCRUNTIME140.dll
 0001:00098804       __std_exception_copy       0000000140099804 f   vcruntime:VCRUNTIME140.dll
 0001:0009880a       __std_type_info_compare    000000014009980a f   vcruntime:VCRUNTIME140.dll
 0001:00098810       _purecall                  0000000140099810 f   vcruntime:VCRUNTIME140.dll
 0001:00098816       _CxxThrowException         0000000140099816 f   vcruntime:VCRUNTIME140.dll
 0001:0009881c       memcpy                     000000014009981c f   vcruntime:VCRUNTIME140.dll
 0001:00098822       memmove                    0000000140099822 f   vcruntime:VCRUNTIME140.dll
 0001:00098828       memset                     0000000140099828 f   vcruntime:VCRUNTIME140.dll
 0001:0009882e       __RTDynamicCast            000000014009982e f   vcruntime:VCRUNTIME140.dll
 0001:00098834       memcmp                     0000000140099834 f   vcruntime:VCRUNTIME140.dll
 0001:0009883a       __C_specific_handler       000000014009983a f   vcruntime:VCRUNTIME140.dll
 0001:00098840       __current_exception        0000000140099840 f   vcruntime:VCRUNTIME140.dll
 0001:00098846       __current_exception_context 0000000140099846 f   vcruntime:VCRUNTIME140.dll
 0001:0009884c       free                       000000014009984c f   ucrt:api-ms-win-crt-heap-l1-1-0.dll
 0001:00098852       malloc                     0000000140099852 f   ucrt:api-ms-win-crt-heap-l1-1-0.dll
 0001:00098858       terminate                  0000000140099858 f   ucrt:api-ms-win-crt-runtime-l1-1-0.dll
 0001:0009885e       strcmp                     000000014009985e f   ucrt:api-ms-win-crt-string-l1-1-0.dll
 0001:00098864       pow                        0000000140099864 f   ucrt:api-ms-win-crt-math-l1-1-0.dll
 0001:0009886a       _seh_filter_exe            000000014009986a f   ucrt:api-ms-win-crt-runtime-l1-1-0.dll
 0001:00098870       _set_app_type              0000000140099870 f   ucrt:api-ms-win-crt-runtime-l1-1-0.dll
 0001:00098876       __setusermatherr           0000000140099876 f   ucrt:api-ms-win-crt-math-l1-1-0.dll
 0001:0009887c       _configure_narrow_argv     000000014009987c f   ucrt:api-ms-win-crt-runtime-l1-1-0.dll
 0001:00098882       _initialize_narrow_environment 0000000140099882 f   ucrt:api-ms-win-crt-runtime-l1-1-0.dll
 0001:00098888       _get_initial_narrow_environment 0000000140099888 f   ucrt:api-ms-win-crt-runtime-l1-1-0.dll
 0001:0009888e       _initterm                  000000014009988e f   ucrt:api-ms-win-crt-runtime-l1-1-0.dll
 0001:00098894       _initterm_e                0000000140099894 f   ucrt:api-ms-win-crt-runtime-l1-1-0.dll
 0001:0009889a       exit                       000000014009989a f   ucrt:api-ms-win-crt-runtime-l1-1-0.dll
 0001:000988a0       _exit                      00000001400998a0 f   ucrt:api-ms-win-crt-runtime-l1-1-0.dll
 0001:000988a6       _set_fmode                 00000001400998a6 f   ucrt:api-ms-win-crt-stdio-l1-1-0.dll
 0001:000988ac       __p___argc                 00000001400998ac f   ucrt:api-ms-win-crt-runtime-l1-1-0.dll
 0001:000988b2       __p___argv                 00000001400998b2 f   ucrt:api-ms-win-crt-runtime-l1-1-0.dll
 0001:000988b8       _cexit                     00000001400998b8 f   ucrt:api-ms-win-crt-runtime-l1-1-0.dll
 0001:000988be       _c_exit                    00000001400998be f   ucrt:api-ms-win-crt-runtime-l1-1-0.dll
 0001:000988c4       _register_thread_local_exe_atexit_callback 00000001400998c4 f   ucrt:api-ms-win-crt-runtime-l1-1-0.dll
 0001:000988ca       _configthreadlocale        00000001400998ca f   ucrt:api-ms-win-crt-locale-l1-1-0.dll
 0001:000988d0       _set_new_mode              00000001400998d0 f   ucrt:api-ms-win-crt-heap-l1-1-0.dll
 0001:000988d6       __p__commode               00000001400998d6 f   ucrt:api-ms-win-crt-stdio-l1-1-0.dll
 0001:000988dc       _initialize_onexit_table   00000001400998dc f   ucrt:api-ms-win-crt-runtime-l1-1-0.dll
 0001:000988e2       _register_onexit_function  00000001400998e2 f   ucrt:api-ms-win-crt-runtime-l1-1-0.dll
 0001:000988e8       _crt_atexit                00000001400998e8 f   ucrt:api-ms-win-crt-runtime-l1-1-0.dll
 0001:000988ee       _callnewh                  00000001400998ee f   ucrt:api-ms-win-crt-heap-l1-1-0.dll
 0001:000988f4       IsProcessorFeaturePresent  00000001400998f4 f   kernel32:KERNEL32.dll
 0001:000988fc       __GSHandlerCheck_SEH       00000001400998fc f   MSVCRT:gshandlerseh.obj
 0001:000989a0       _alloca_probe              00000001400999a0 f   MSVCRT:chkstk.obj
 0001:000989a0       __chkstk                   00000001400999a0 f   MSVCRT:chkstk.obj
 0001:000989f1       memchr                     00000001400999f1 f   vcruntime:VCRUNTIME140.dll
 0001:000989f7       _dclass                    00000001400999f7 f   ucrt:api-ms-win-crt-math-l1-1-0.dll
 0001:000989fd       atan2f                     00000001400999fd f   ucrt:api-ms-win-crt-math-l1-1-0.dll
 0001:00098a03       ceilf                      0000000140099a03 f   ucrt:api-ms-win-crt-math-l1-1-0.dll
 0001:00098a09       cosf                       0000000140099a09 f   ucrt:api-ms-win-crt-math-l1-1-0.dll
 0001:00098a0f       floorf                     0000000140099a0f f   ucrt:api-ms-win-crt-math-l1-1-0.dll
 0001:00098a15       fmodf                      0000000140099a15 f   ucrt:api-ms-win-crt-math-l1-1-0.dll
 0001:00098a1b       powf                       0000000140099a1b f   ucrt:api-ms-win-crt-math-l1-1-0.dll
 0001:00098a21       sinf                       0000000140099a21 f   ucrt:api-ms-win-crt-math-l1-1-0.dll
 0001:00098a27       sqrtf                      0000000140099a27 f   ucrt:api-ms-win-crt-math-l1-1-0.dll
 0001:00098a40       _guard_dispatch_icall_nop  0000000140099a40 f   MSVCRT:guard_dispatch.obj
 0001:00098a60       _guard_xfg_dispatch_icall_nop 0000000140099a60 f   MSVCRT:guard_xfg_dispatch.obj
 0001:0009b890       ??__F_S_scheduler@?1??_GetStaticAmbientSchedulerStorage@details@Concurrency@@YAPEAV?$shared_ptr@Uscheduler_interface@Concurrency@@@std@@XZ@YAXXZ 000000014009c890 f i main.obj
 0002:00000000       __imp_GetTokenInformation  000000014009e000     advapi32:ADVAPI32.dll
 0002:00000008       __imp_CryptReleaseContext  000000014009e008     advapi32:ADVAPI32.dll
 0002:00000010       __imp_CryptAcquireContextA 000000014009e010     advapi32:ADVAPI32.dll
 0002:00000018       __imp_CryptGenRandom       000000014009e018     advapi32:ADVAPI32.dll
 0002:00000020       __imp_OpenProcessToken     000000014009e020     advapi32:ADVAPI32.dll
 0002:00000028       \177ADVAPI32_NULL_THUNK_DATA 000000014009e028     advapi32:ADVAPI32.dll
 0002:00000030       __imp_ImmReleaseContext    000000014009e030     imm32:IMM32.dll
 0002:00000038       __imp_ImmGetContext        000000014009e038     imm32:IMM32.dll
 0002:00000040       __imp_ImmSetCompositionWindow 000000014009e040     imm32:IMM32.dll
 0002:00000048       \177IMM32_NULL_THUNK_DATA  000000014009e048     imm32:IMM32.dll
 0002:00000050       __imp_RtlLookupFunctionEntry 000000014009e050     kernel32:KERNEL32.dll
 0002:00000058       __imp_RtlVirtualUnwind     000000014009e058     kernel32:KERNEL32.dll
 0002:00000060       __imp_UnhandledExceptionFilter 000000014009e060     kernel32:KERNEL32.dll
 0002:00000068       __imp_SetUnhandledExceptionFilter 000000014009e068     kernel32:KERNEL32.dll
 0002:00000070       __imp_TerminateProcess     000000014009e070     kernel32:KERNEL32.dll
 0002:00000078       __imp_IsProcessorFeaturePresent 000000014009e078     kernel32:KERNEL32.dll
 0002:00000080       __imp_EnterCriticalSection 000000014009e080     kernel32:KERNEL32.dll
 0002:00000088       __imp_LeaveCriticalSection 000000014009e088     kernel32:KERNEL32.dll
 0002:00000090       __imp_InitializeCriticalSectionAndSpinCount 000000014009e090     kernel32:KERNEL32.dll
 0002:00000098       __imp_SetEvent             000000014009e098     kernel32:KERNEL32.dll
 0002:000000a0       __imp_ResetEvent           000000014009e0a0     kernel32:KERNEL32.dll
 0002:000000a8       __imp_WaitForSingleObjectEx 000000014009e0a8     kernel32:KERNEL32.dll
 0002:000000b0       __imp_CreateEventW         000000014009e0b0     kernel32:KERNEL32.dll
 0002:000000b8       __imp_GetModuleHandleW     000000014009e0b8     kernel32:KERNEL32.dll
 0002:000000c0       __imp_GetProcAddress       000000014009e0c0     kernel32:KERNEL32.dll
 0002:000000c8       __imp_InitializeSListHead  000000014009e0c8     kernel32:KERNEL32.dll
 0002:000000d0       __imp_GetCurrentProcessId  000000014009e0d0     kernel32:KERNEL32.dll
 0002:000000d8       __imp_GetCurrentThreadId   000000014009e0d8     kernel32:KERNEL32.dll
 0002:000000e0       __imp_GetSystemTimeAsFileTime 000000014009e0e0     kernel32:KERNEL32.dll
 0002:000000e8       __imp_IsDebuggerPresent    000000014009e0e8     kernel32:KERNEL32.dll
 0002:000000f0       __imp_QueryPerformanceFrequency 000000014009e0f0     kernel32:KERNEL32.dll
 0002:000000f8       __imp_QueryPerformanceCounter 000000014009e0f8     kernel32:KERNEL32.dll
 0002:00000100       __imp_GlobalAlloc          000000014009e100     kernel32:KERNEL32.dll
 0002:00000108       __imp_GlobalFree           000000014009e108     kernel32:KERNEL32.dll
 0002:00000110       __imp_GlobalLock           000000014009e110     kernel32:KERNEL32.dll
 0002:00000118       __imp_GlobalUnlock         000000014009e118     kernel32:KERNEL32.dll
 0002:00000120       __imp_SizeofResource       000000014009e120     kernel32:KERNEL32.dll
 0002:00000128       __imp_GetCurrentProcess    000000014009e128     kernel32:KERNEL32.dll
 0002:00000130       __imp_InitializeCriticalSectionEx 000000014009e130     kernel32:KERNEL32.dll
 0002:00000138       __imp_SetLastError         000000014009e138     kernel32:KERNEL32.dll
 0002:00000140       __imp_GetModuleHandleA     000000014009e140     kernel32:KERNEL32.dll
 0002:00000148       __imp_MultiByteToWideChar  000000014009e148     kernel32:KERNEL32.dll
 0002:00000150       __imp_RtlCaptureContext    000000014009e150     kernel32:KERNEL32.dll
 0002:00000158       __imp_GetTempPathA         000000014009e158     kernel32:KERNEL32.dll
 0002:00000160       __imp_GetLastError         000000014009e160     kernel32:KERNEL32.dll
 0002:00000168       __imp_LockResource         000000014009e168     kernel32:KERNEL32.dll
 0002:00000170       __imp_DeleteFileA          000000014009e170     kernel32:KERNEL32.dll
 0002:00000178       __imp_CloseHandle          000000014009e178     kernel32:KERNEL32.dll
 0002:00000180       __imp_LoadResource         000000014009e180     kernel32:KERNEL32.dll
 0002:00000188       __imp_Beep                 000000014009e188     kernel32:KERNEL32.dll
 0002:00000190       __imp_GetThreadId          000000014009e190     kernel32:KERNEL32.dll
 0002:00000198       __imp_DeleteCriticalSection 000000014009e198     kernel32:KERNEL32.dll
 0002:000001a0       __imp_LocalFree            000000014009e1a0     kernel32:KERNEL32.dll
 0002:000001a8       __imp_OutputDebugStringW   000000014009e1a8     kernel32:KERNEL32.dll
 0002:000001b0       __imp_InitOnceBeginInitialize 000000014009e1b0     kernel32:KERNEL32.dll
 0002:000001b0       __imp___std_init_once_begin_initialize 000000014009e1b0     kernel32:KERNEL32.dll
 0002:000001b8       __imp___std_init_once_complete 000000014009e1b8     kernel32:KERNEL32.dll
 0002:000001b8       __imp_InitOnceComplete     000000014009e1b8     kernel32:KERNEL32.dll
 0002:000001c0       __imp_WideCharToMultiByte  000000014009e1c0     kernel32:KERNEL32.dll
 0002:000001c8       __imp_AreFileApisANSI      000000014009e1c8     kernel32:KERNEL32.dll
 0002:000001d0       __imp_GetFileInformationByHandle 000000014009e1d0     kernel32:KERNEL32.dll
 0002:000001d8       __imp_GetFileAttributesExW 000000014009e1d8     kernel32:KERNEL32.dll
 0002:000001e0       __imp_Sleep                000000014009e1e0     kernel32:KERNEL32.dll
 0002:000001e8       __imp_FindResourceA        000000014009e1e8     kernel32:KERNEL32.dll
 0002:000001f0       __imp_FindFirstFileExW     000000014009e1f0     kernel32:KERNEL32.dll
 0002:000001f8       __imp_FindClose            000000014009e1f8     kernel32:KERNEL32.dll
 0002:00000200       __imp_CreateFileW          000000014009e200     kernel32:KERNEL32.dll
 0002:00000208       __imp_FormatMessageA       000000014009e208     kernel32:KERNEL32.dll
 0002:00000210       \177KERNEL32_NULL_THUNK_DATA 000000014009e210     kernel32:KERNEL32.dll
 0002:00000218       __imp_?uflow@?$basic_streambuf@DU?$char_traits@D@std@@@std@@MEAAHXZ 000000014009e218     msvcprt:MSVCP140.dll
 0002:00000220       __imp_?setbuf@?$basic_streambuf@DU?$char_traits@D@std@@@std@@MEAAPEAV12@PEAD_J@Z 000000014009e220     msvcprt:MSVCP140.dll
 0002:00000228       __imp_?xsgetn@?$basic_streambuf@DU?$char_traits@D@std@@@std@@MEAA_JPEAD_J@Z 000000014009e228     msvcprt:MSVCP140.dll
 0002:00000230       __imp_?xsputn@?$basic_streambuf@DU?$char_traits@D@std@@@std@@MEAA_JPEBD_J@Z 000000014009e230     msvcprt:MSVCP140.dll
 0002:00000238       __imp_?sync@?$basic_streambuf@DU?$char_traits@D@std@@@std@@MEAAHXZ 000000014009e238     msvcprt:MSVCP140.dll
 0002:00000240       __imp_?imbue@?$basic_streambuf@DU?$char_traits@D@std@@@std@@MEAAXAEBVlocale@2@@Z 000000014009e240     msvcprt:MSVCP140.dll
 0002:00000248       __imp_??1?$basic_ios@DU?$char_traits@D@std@@@std@@UEAA@XZ 000000014009e248     msvcprt:MSVCP140.dll
 0002:00000250       __imp_?clear@?$basic_ios@DU?$char_traits@D@std@@@std@@QEAAXH_N@Z 000000014009e250     msvcprt:MSVCP140.dll
 0002:00000258       __imp_??1?$basic_ostream@DU?$char_traits@D@std@@@std@@UEAA@XZ 000000014009e258     msvcprt:MSVCP140.dll
 0002:00000260       __imp_??1?$basic_istream@DU?$char_traits@D@std@@@std@@UEAA@XZ 000000014009e260     msvcprt:MSVCP140.dll
 0002:00000268       __imp_??1?$basic_iostream@DU?$char_traits@D@std@@@std@@UEAA@XZ 000000014009e268     msvcprt:MSVCP140.dll
 0002:00000270       __imp_??1?$codecvt@_WDU_Mbstatet@@@std@@MEAA@XZ 000000014009e270     msvcprt:MSVCP140.dll
 0002:00000278       __imp_??0?$codecvt@_WDU_Mbstatet@@@std@@QEAA@_K@Z 000000014009e278     msvcprt:MSVCP140.dll
 0002:00000280       __imp_?out@?$codecvt@_WDU_Mbstatet@@@std@@QEBAHAEAU_Mbstatet@@PEB_W1AEAPEB_WPEAD3AEAPEAD@Z 000000014009e280     msvcprt:MSVCP140.dll
 0002:00000288       __imp_?always_noconv@codecvt_base@std@@QEBA_NXZ 000000014009e288     msvcprt:MSVCP140.dll
 0002:00000290       __imp_?_Addfac@_Locimp@locale@std@@AEAAXPEAVfacet@23@_K@Z 000000014009e290     msvcprt:MSVCP140.dll
 0002:00000298       __imp_?_Decref@facet@locale@std@@UEAAPEAV_Facet_base@3@XZ 000000014009e298     msvcprt:MSVCP140.dll
 0002:000002a0       __imp_?_Incref@facet@locale@std@@UEAAXXZ 000000014009e2a0     msvcprt:MSVCP140.dll
 0002:000002a8       __imp_??Bid@locale@std@@QEAA_KXZ 000000014009e2a8     msvcprt:MSVCP140.dll
 0002:000002b0       __imp_?set_new_handler@std@@YAP6AXXZP6AXXZ@Z 000000014009e2b0     msvcprt:MSVCP140.dll
 0002:000002b8       __imp_?showmanyc@?$basic_streambuf@DU?$char_traits@D@std@@@std@@MEAA_JXZ 000000014009e2b8     msvcprt:MSVCP140.dll
 0002:000002c0       __imp_??1?$basic_streambuf@DU?$char_traits@D@std@@@std@@UEAA@XZ 000000014009e2c0     msvcprt:MSVCP140.dll
 0002:000002c8       __imp_?__ExceptionPtrAssign@@YAXPEAXPEBX@Z 000000014009e2c8     msvcprt:MSVCP140.dll
 0002:000002d0       __imp_?GetCurrentThreadId@platform@details@Concurrency@@YAJXZ 000000014009e2d0     msvcprt:MSVCP140.dll
 0002:000002d8       __imp_?_ReportUnobservedException@details@Concurrency@@YAXXZ 000000014009e2d8     msvcprt:MSVCP140.dll
 0002:000002e0       __imp_?_Schedule_chore@details@Concurrency@@YAHPEAU_Threadpool_chore@12@@Z 000000014009e2e0     msvcprt:MSVCP140.dll
 0002:000002e8       __imp_?_LogWorkItemCompleted@_TaskEventLogger@details@Concurrency@@QEAAXXZ 000000014009e2e8     msvcprt:MSVCP140.dll
 0002:000002f0       __imp_?_LogWorkItemStarted@_TaskEventLogger@details@Concurrency@@QEAAXXZ 000000014009e2f0     msvcprt:MSVCP140.dll
 0002:000002f8       __imp_?_LogTaskExecutionCompleted@_TaskEventLogger@details@Concurrency@@QEAAXXZ 000000014009e2f8     msvcprt:MSVCP140.dll
 0002:00000300       __imp_?_LogTaskCompleted@_TaskEventLogger@details@Concurrency@@QEAAXXZ 000000014009e300     msvcprt:MSVCP140.dll
 0002:00000308       __imp_?_LogCancelTask@_TaskEventLogger@details@Concurrency@@QEAAXXZ 000000014009e308     msvcprt:MSVCP140.dll
 0002:00000310       __imp_?_LogScheduleTask@_TaskEventLogger@details@Concurrency@@QEAAX_N@Z 000000014009e310     msvcprt:MSVCP140.dll
 0002:00000318       __imp_?_Release_chore@details@Concurrency@@YAXPEAU_Threadpool_chore@12@@Z 000000014009e318     msvcprt:MSVCP140.dll
 0002:00000320       __imp_?ReportUnhandledError@_ExceptionHolder@details@Concurrency@@AEAAXXZ 000000014009e320     msvcprt:MSVCP140.dll
 0002:00000328       __imp_?_Capture@_ContextCallback@details@Concurrency@@AEAAXXZ 000000014009e328     msvcprt:MSVCP140.dll
 0002:00000330       __imp_?_Reset@_ContextCallback@details@Concurrency@@AEAAXXZ 000000014009e330     msvcprt:MSVCP140.dll
 0002:00000338       __imp_?_CallInContext@_ContextCallback@details@Concurrency@@QEBAXV?$function@$$A6AXXZ@std@@_N@Z 000000014009e338     msvcprt:MSVCP140.dll
 0002:00000340       __imp_??0task_continuation_context@Concurrency@@AEAA@XZ 000000014009e340     msvcprt:MSVCP140.dll
 0002:00000348       __imp__Cnd_unregister_at_thread_exit 000000014009e348     msvcprt:MSVCP140.dll
 0002:00000350       __imp_?__ExceptionPtrCreate@@YAXPEAX@Z 000000014009e350     msvcprt:MSVCP140.dll
 0002:00000358       __imp__Cnd_init_in_situ    000000014009e358     msvcprt:MSVCP140.dll
 0002:00000360       __imp_?__ExceptionPtrCopy@@YAXPEAXPEBX@Z 000000014009e360     msvcprt:MSVCP140.dll
 0002:00000368       __imp__Query_perf_frequency 000000014009e368     msvcprt:MSVCP140.dll
 0002:00000370       __imp_?_Throw_future_error@std@@YAXAEBVerror_code@1@@Z 000000014009e370     msvcprt:MSVCP140.dll
 0002:00000378       __imp_??1_Lockit@std@@QEAA@XZ 000000014009e378     msvcprt:MSVCP140.dll
 0002:00000380       __imp_??0_Lockit@std@@QEAA@H@Z 000000014009e380     msvcprt:MSVCP140.dll
 0002:00000388       __imp_?_Throw_Cpp_error@std@@YAXH@Z 000000014009e388     msvcprt:MSVCP140.dll
 0002:00000390       __imp_?uncaught_exceptions@std@@YAHXZ 000000014009e390     msvcprt:MSVCP140.dll
 0002:00000398       __imp_?_New_Locimp@_Locimp@locale@std@@CAPEAV123@AEBV123@@Z 000000014009e398     msvcprt:MSVCP140.dll
 0002:000003a0       __imp_?_Getgloballocale@locale@std@@CAPEAV_Locimp@12@XZ 000000014009e3a0     msvcprt:MSVCP140.dll
 0002:000003a8       __imp_?_Init@locale@std@@CAPEAV_Locimp@12@_N@Z 000000014009e3a8     msvcprt:MSVCP140.dll
 0002:000003b0       __imp_?uncaught_exception@std@@YA_NXZ 000000014009e3b0     msvcprt:MSVCP140.dll
 0002:000003b8       __imp_?_Xbad_alloc@std@@YAXXZ 000000014009e3b8     msvcprt:MSVCP140.dll
 0002:000003c0       __imp_?_Xout_of_range@std@@YAXPEBD@Z 000000014009e3c0     msvcprt:MSVCP140.dll
 0002:000003c8       __imp_?_Winerror_map@std@@YAHH@Z 000000014009e3c8     msvcprt:MSVCP140.dll
 0002:000003d0       __imp_?_Xbad_function_call@std@@YAXXZ 000000014009e3d0     msvcprt:MSVCP140.dll
 0002:000003d8       __imp_?_Throw_C_error@std@@YAXH@Z 000000014009e3d8     msvcprt:MSVCP140.dll
 0002:000003e0       __imp_?id@?$codecvt@DDU_Mbstatet@@@std@@2V0locale@2@A 000000014009e3e0     msvcprt:MSVCP140.dll
 0002:000003e8       __imp_?_Fiopen@std@@YAPEAU_iobuf@@PEBDHH@Z 000000014009e3e8     msvcprt:MSVCP140.dll
 0002:000003f0       __imp_?_Rethrow_future_exception@std@@YAXVexception_ptr@1@@Z 000000014009e3f0     msvcprt:MSVCP140.dll
 0002:000003f8       __imp_?_Random_device@std@@YAIXZ 000000014009e3f8     msvcprt:MSVCP140.dll
 0002:00000400       __imp_?_Xlength_error@std@@YAXPEBD@Z 000000014009e400     msvcprt:MSVCP140.dll
 0002:00000408       __imp_?id@?$codecvt@_WDU_Mbstatet@@@std@@2V0locale@2@A 000000014009e408     msvcprt:MSVCP140.dll
 0002:00000410       __imp_?_Syserror_map@std@@YAPEBDH@Z 000000014009e410     msvcprt:MSVCP140.dll
 0002:00000418       __imp_?__ExceptionPtrToBool@@YA_NPEBX@Z 000000014009e418     msvcprt:MSVCP140.dll
 0002:00000420       __imp__Mtx_destroy_in_situ 000000014009e420     msvcprt:MSVCP140.dll
 0002:00000428       __imp_?__ExceptionPtrDestroy@@YAXPEAX@Z 000000014009e428     msvcprt:MSVCP140.dll
 0002:00000430       __imp__Mtx_lock            000000014009e430     msvcprt:MSVCP140.dll
 0002:00000438       __imp_?__ExceptionPtrCurrentException@@YAXPEAX@Z 000000014009e438     msvcprt:MSVCP140.dll
 0002:00000440       __imp_?__ExceptionPtrRethrow@@YAXPEBX@Z 000000014009e440     msvcprt:MSVCP140.dll
 0002:00000448       __imp__Mtx_init_in_situ    000000014009e448     msvcprt:MSVCP140.dll
 0002:00000450       __imp__Cnd_register_at_thread_exit 000000014009e450     msvcprt:MSVCP140.dll
 0002:00000458       __imp__Cnd_do_broadcast_at_thread_exit 000000014009e458     msvcprt:MSVCP140.dll
 0002:00000460       __imp__Cnd_wait            000000014009e460     msvcprt:MSVCP140.dll
 0002:00000468       __imp__Query_perf_counter  000000014009e468     msvcprt:MSVCP140.dll
 0002:00000470       __imp__Thrd_detach         000000014009e470     msvcprt:MSVCP140.dll
 0002:00000478       __imp__Mtx_unlock          000000014009e478     msvcprt:MSVCP140.dll
 0002:00000480       __imp__Cnd_broadcast       000000014009e480     msvcprt:MSVCP140.dll
 0002:00000488       __imp__Cnd_destroy_in_situ 000000014009e488     msvcprt:MSVCP140.dll
 0002:00000490       __imp_??6?$basic_ostream@DU?$char_traits@D@std@@@std@@QEAAAEAV01@I@Z 000000014009e490     msvcprt:MSVCP140.dll
 0002:00000498       __imp_?_Osfx@?$basic_ostream@DU?$char_traits@D@std@@@std@@QEAAXXZ 000000014009e498     msvcprt:MSVCP140.dll
 0002:000004a0       __imp_?flush@?$basic_ostream@DU?$char_traits@D@std@@@std@@QEAAAEAV12@XZ 000000014009e4a0     msvcprt:MSVCP140.dll
 0002:000004a8       __imp_?_Getcat@?$codecvt@DDU_Mbstatet@@@std@@SA_KPEAPEBVfacet@locale@2@PEBV42@@Z 000000014009e4a8     msvcprt:MSVCP140.dll
 0002:000004b0       __imp_?sputn@?$basic_streambuf@DU?$char_traits@D@std@@@std@@QEAA_JPEBD_J@Z 000000014009e4b0     msvcprt:MSVCP140.dll
 0002:000004b8       __imp_?sgetc@?$basic_streambuf@DU?$char_traits@D@std@@@std@@QEAAHXZ 000000014009e4b8     msvcprt:MSVCP140.dll
 0002:000004c0       __imp_?sputc@?$basic_streambuf@DU?$char_traits@D@std@@@std@@QEAAHD@Z 000000014009e4c0     msvcprt:MSVCP140.dll
 0002:000004c8       __imp_?unshift@?$codecvt@DDU_Mbstatet@@@std@@QEBAHAEAU_Mbstatet@@PEAD1AEAPEAD@Z 000000014009e4c8     msvcprt:MSVCP140.dll
 0002:000004d0       __imp_??0?$basic_streambuf@DU?$char_traits@D@std@@@std@@IEAA@XZ 000000014009e4d0     msvcprt:MSVCP140.dll
 0002:000004d8       __imp_?getloc@?$basic_streambuf@DU?$char_traits@D@std@@@std@@QEBA?AVlocale@2@XZ 000000014009e4d8     msvcprt:MSVCP140.dll
 0002:000004e0       __imp_?_Init@?$basic_streambuf@DU?$char_traits@D@std@@@std@@IEAAXXZ 000000014009e4e0     msvcprt:MSVCP140.dll
 0002:000004e8       __imp_?in@?$codecvt@DDU_Mbstatet@@@std@@QEBAHAEAU_Mbstatet@@PEBD1AEAPEBDPEAD3AEAPEAD@Z 000000014009e4e8     msvcprt:MSVCP140.dll
 0002:000004f0       __imp_?out@?$codecvt@DDU_Mbstatet@@@std@@QEBAHAEAU_Mbstatet@@PEBD1AEAPEBDPEAD3AEAPEAD@Z 000000014009e4f0     msvcprt:MSVCP140.dll
 0002:000004f8       __imp_?setg@?$basic_streambuf@DU?$char_traits@D@std@@@std@@IEAAXPEAD00@Z 000000014009e4f8     msvcprt:MSVCP140.dll
 0002:00000500       __imp_?_Pninc@?$basic_streambuf@DU?$char_traits@D@std@@@std@@IEAAPEADXZ 000000014009e500     msvcprt:MSVCP140.dll
 0002:00000508       __imp_?setstate@?$basic_ios@DU?$char_traits@D@std@@@std@@QEAAXH_N@Z 000000014009e508     msvcprt:MSVCP140.dll
 0002:00000510       __imp_??0?$basic_ios@DU?$char_traits@D@std@@@std@@IEAA@XZ 000000014009e510     msvcprt:MSVCP140.dll
 0002:00000518       __imp_??0?$basic_ostream@DU?$char_traits@D@std@@@std@@QEAA@PEAV?$basic_streambuf@DU?$char_traits@D@std@@@1@_N@Z 000000014009e518     msvcprt:MSVCP140.dll
 0002:00000520       __imp_??0?$basic_istream@DU?$char_traits@D@std@@@std@@QEAA@PEAV?$basic_streambuf@DU?$char_traits@D@std@@@1@_N@Z 000000014009e520     msvcprt:MSVCP140.dll
 0002:00000528       __imp_??0?$basic_iostream@DU?$char_traits@D@std@@@std@@QEAA@PEAV?$basic_streambuf@DU?$char_traits@D@std@@@1@@Z 000000014009e528     msvcprt:MSVCP140.dll
 0002:00000530       __imp_??4?$_Yarn@D@std@@QEAAAEAV01@PEBD@Z 000000014009e530     msvcprt:MSVCP140.dll
 0002:00000538       __imp_?_Unlock@?$basic_streambuf@DU?$char_traits@D@std@@@std@@UEAAXXZ 000000014009e538     msvcprt:MSVCP140.dll
 0002:00000540       __imp_?sbumpc@?$basic_streambuf@DU?$char_traits@D@std@@@std@@QEAAHXZ 000000014009e540     msvcprt:MSVCP140.dll
 0002:00000548       __imp_?_Lock@?$basic_streambuf@DU?$char_traits@D@std@@@std@@UEAAXXZ 000000014009e548     msvcprt:MSVCP140.dll
 0002:00000550       \177MSVCP140_NULL_THUNK_DATA 000000014009e550     msvcprt:MSVCP140.dll
 0002:00000558       __imp_SysFreeString        000000014009e558     oleaut32:OLEAUT32.dll
 0002:00000560       __imp_SysAllocString       000000014009e560     oleaut32:OLEAUT32.dll
 0002:00000568       __imp_VariantClear         000000014009e568     oleaut32:OLEAUT32.dll
 0002:00000570       \177OLEAUT32_NULL_THUNK_DATA 000000014009e570     oleaut32:OLEAUT32.dll
 0002:00000578       __imp_glClearColor         000000014009e578     OpenGL32:OPENGL32.dll
 0002:00000580       __imp_glClear              000000014009e580     OpenGL32:OPENGL32.dll
 0002:00000588       __imp_glGetIntegerv        000000014009e588     OpenGL32:OPENGL32.dll
 0002:00000590       __imp_glPushAttrib         000000014009e590     OpenGL32:OPENGL32.dll
 0002:00000598       __imp_glOrtho              000000014009e598     OpenGL32:OPENGL32.dll
 0002:000005a0       __imp_glPixelStorei        000000014009e5a0     OpenGL32:OPENGL32.dll
 0002:000005a8       __imp_glPushMatrix         000000014009e5a8     OpenGL32:OPENGL32.dll
 0002:000005b0       __imp_glDisable            000000014009e5b0     OpenGL32:OPENGL32.dll
 0002:000005b8       __imp_glDrawElements       000000014009e5b8     OpenGL32:OPENGL32.dll
 0002:000005c0       __imp_glColorPointer       000000014009e5c0     OpenGL32:OPENGL32.dll
 0002:000005c8       __imp_glTexImage2D         000000014009e5c8     OpenGL32:OPENGL32.dll
 0002:000005d0       __imp_glTexCoordPointer    000000014009e5d0     OpenGL32:OPENGL32.dll
 0002:000005d8       __imp_glDeleteTextures     000000014009e5d8     OpenGL32:OPENGL32.dll
 0002:000005e0       __imp_glTexParameteri      000000014009e5e0     OpenGL32:OPENGL32.dll
 0002:000005e8       __imp_glLoadIdentity       000000014009e5e8     OpenGL32:OPENGL32.dll
 0002:000005f0       __imp_glBlendFunc          000000014009e5f0     OpenGL32:OPENGL32.dll
 0002:000005f8       __imp_glMatrixMode         000000014009e5f8     OpenGL32:OPENGL32.dll
 0002:00000600       __imp_glDisableClientState 000000014009e600     OpenGL32:OPENGL32.dll
 0002:00000608       __imp_glScissor            000000014009e608     OpenGL32:OPENGL32.dll
 0002:00000610       __imp_glEnable             000000014009e610     OpenGL32:OPENGL32.dll
 0002:00000618       __imp_glVertexPointer      000000014009e618     OpenGL32:OPENGL32.dll
 0002:00000620       __imp_glGenTextures        000000014009e620     OpenGL32:OPENGL32.dll
 0002:00000628       __imp_glBindTexture        000000014009e628     OpenGL32:OPENGL32.dll
 0002:00000630       __imp_glPolygonMode        000000014009e630     OpenGL32:OPENGL32.dll
 0002:00000638       __imp_glPopAttrib          000000014009e638     OpenGL32:OPENGL32.dll
 0002:00000640       __imp_glEnableClientState  000000014009e640     OpenGL32:OPENGL32.dll
 0002:00000648       __imp_glViewport           000000014009e648     OpenGL32:OPENGL32.dll
 0002:00000650       __imp_glPopMatrix          000000014009e650     OpenGL32:OPENGL32.dll
 0002:00000658       \177OPENGL32_NULL_THUNK_DATA 000000014009e658     OpenGL32:OPENGL32.dll
 0002:00000660       __imp_ShellExecuteA        000000014009e660     shell32:SHELL32.dll
 0002:00000668       \177SHELL32_NULL_THUNK_DATA 000000014009e668     shell32:SHELL32.dll
 0002:00000670       __imp_GetMessageA          000000014009e670     user32:USER32.dll
 0002:00000678       __imp_GetSystemMetrics     000000014009e678     user32:USER32.dll
 0002:00000680       __imp_GetAsyncKeyState     000000014009e680     user32:USER32.dll
 0002:00000688       __imp_PostThreadMessageA   000000014009e688     user32:USER32.dll
 0002:00000690       __imp_CallNextHookEx       000000014009e690     user32:USER32.dll
 0002:00000698       __imp_DispatchMessageA     000000014009e698     user32:USER32.dll
 0002:000006a0       __imp_SetWindowsHookExA    000000014009e6a0     user32:USER32.dll
 0002:000006a8       __imp_GetWindowTextA       000000014009e6a8     user32:USER32.dll
 0002:000006b0       __imp_MessageBoxA          000000014009e6b0     user32:USER32.dll
 0002:000006b8       __imp_GetForegroundWindow  000000014009e6b8     user32:USER32.dll
 0002:000006c0       __imp_UnhookWindowsHookEx  000000014009e6c0     user32:USER32.dll
 0002:000006c8       __imp_TranslateMessage     000000014009e6c8     user32:USER32.dll
 0002:000006d0       __imp_GetCursorPos         000000014009e6d0     user32:USER32.dll
 0002:000006d8       __imp_SendInput            000000014009e6d8     user32:USER32.dll
 0002:000006e0       __imp_OpenClipboard        000000014009e6e0     user32:USER32.dll
 0002:000006e8       __imp_CloseClipboard       000000014009e6e8     user32:USER32.dll
 0002:000006f0       __imp_EmptyClipboard       000000014009e6f0     user32:USER32.dll
 0002:000006f8       __imp_GetClipboardData     000000014009e6f8     user32:USER32.dll
 0002:00000700       __imp_SetClipboardData     000000014009e700     user32:USER32.dll
 0002:00000708       \177USER32_NULL_THUNK_DATA 000000014009e708     user32:USER32.dll
 0002:00000710       __imp___current_exception_context 000000014009e710     vcruntime:VCRUNTIME140.dll
 0002:00000718       __imp___std_terminate      000000014009e718     vcruntime:VCRUNTIME140.dll
 0002:00000720       __imp_strstr               000000014009e720     vcruntime:VCRUNTIME140.dll
 0002:00000728       __imp___std_exception_destroy 000000014009e728     vcruntime:VCRUNTIME140.dll
 0002:00000730       __imp_memchr               000000014009e730     vcruntime:VCRUNTIME140.dll
 0002:00000738       __imp___C_specific_handler 000000014009e738     vcruntime:VCRUNTIME140.dll
 0002:00000740       __imp_memcmp               000000014009e740     vcruntime:VCRUNTIME140.dll
 0002:00000748       __imp___RTDynamicCast      000000014009e748     vcruntime:VCRUNTIME140.dll
 0002:00000750       __imp_memset               000000014009e750     vcruntime:VCRUNTIME140.dll
 0002:00000758       __imp_memmove              000000014009e758     vcruntime:VCRUNTIME140.dll
 0002:00000760       __imp_memcpy               000000014009e760     vcruntime:VCRUNTIME140.dll
 0002:00000768       __imp__CxxThrowException   000000014009e768     vcruntime:VCRUNTIME140.dll
 0002:00000770       __imp___std_type_info_name 000000014009e770     vcruntime:VCRUNTIME140.dll
 0002:00000778       __imp___std_exception_copy 000000014009e778     vcruntime:VCRUNTIME140.dll
 0002:00000780       __imp___current_exception  000000014009e780     vcruntime:VCRUNTIME140.dll
 0002:00000788       __imp__purecall            000000014009e788     vcruntime:VCRUNTIME140.dll
 0002:00000790       __imp___std_type_info_compare 000000014009e790     vcruntime:VCRUNTIME140.dll
 0002:00000798       \177VCRUNTIME140_NULL_THUNK_DATA 000000014009e798     vcruntime:VCRUNTIME140.dll
 0002:000007a0       __imp___CxxFrameHandler4   000000014009e7a0     vcruntime:VCRUNTIME140_1.dll
 0002:000007a8       \177VCRUNTIME140_1_NULL_THUNK_DATA 000000014009e7a8     vcruntime:VCRUNTIME140_1.dll
 0002:000007b0       __imp_strtoull             000000014009e7b0     ucrt:api-ms-win-crt-convert-l1-1-0.dll
 0002:000007b8       __imp_atof                 000000014009e7b8     ucrt:api-ms-win-crt-convert-l1-1-0.dll
 0002:000007c0       __imp_strtod               000000014009e7c0     ucrt:api-ms-win-crt-convert-l1-1-0.dll
 0002:000007c8       __imp_strtoll              000000014009e7c8     ucrt:api-ms-win-crt-convert-l1-1-0.dll
 0002:000007d0       \177api-ms-win-crt-convert-l1-1-0_NULL_THUNK_DATA 000000014009e7d0     ucrt:api-ms-win-crt-convert-l1-1-0.dll
 0002:000007d8       __imp__unlock_file         000000014009e7d8     ucrt:api-ms-win-crt-filesystem-l1-1-0.dll
 0002:000007e0       __imp__lock_file           000000014009e7e0     ucrt:api-ms-win-crt-filesystem-l1-1-0.dll
 0002:000007e8       \177api-ms-win-crt-filesystem-l1-1-0_NULL_THUNK_DATA 000000014009e7e8     ucrt:api-ms-win-crt-filesystem-l1-1-0.dll
 0002:000007f0       __imp__set_new_mode        000000014009e7f0     ucrt:api-ms-win-crt-heap-l1-1-0.dll
 0002:000007f8       __imp__aligned_free        000000014009e7f8     ucrt:api-ms-win-crt-heap-l1-1-0.dll
 0002:00000800       __imp__aligned_malloc      000000014009e800     ucrt:api-ms-win-crt-heap-l1-1-0.dll
 0002:00000808       __imp__callnewh            000000014009e808     ucrt:api-ms-win-crt-heap-l1-1-0.dll
 0002:00000810       __imp_free                 000000014009e810     ucrt:api-ms-win-crt-heap-l1-1-0.dll
 0002:00000818       __imp_malloc               000000014009e818     ucrt:api-ms-win-crt-heap-l1-1-0.dll
 0002:00000820       \177api-ms-win-crt-heap-l1-1-0_NULL_THUNK_DATA 000000014009e820     ucrt:api-ms-win-crt-heap-l1-1-0.dll
 0002:00000828       __imp__configthreadlocale  000000014009e828     ucrt:api-ms-win-crt-locale-l1-1-0.dll
 0002:00000830       __imp____lc_codepage_func  000000014009e830     ucrt:api-ms-win-crt-locale-l1-1-0.dll
 0002:00000838       __imp_localeconv           000000014009e838     ucrt:api-ms-win-crt-locale-l1-1-0.dll
 0002:00000840       \177api-ms-win-crt-locale-l1-1-0_NULL_THUNK_DATA 000000014009e840     ucrt:api-ms-win-crt-locale-l1-1-0.dll
 0002:00000848       __imp_ceilf                000000014009e848     ucrt:api-ms-win-crt-math-l1-1-0.dll
 0002:00000850       __imp__dclass              000000014009e850     ucrt:api-ms-win-crt-math-l1-1-0.dll
 0002:00000858       __imp_atan2f               000000014009e858     ucrt:api-ms-win-crt-math-l1-1-0.dll
 0002:00000860       __imp_floorf               000000014009e860     ucrt:api-ms-win-crt-math-l1-1-0.dll
 0002:00000868       __imp_fmodf                000000014009e868     ucrt:api-ms-win-crt-math-l1-1-0.dll
 0002:00000870       __imp_powf                 000000014009e870     ucrt:api-ms-win-crt-math-l1-1-0.dll
 0002:00000878       __imp__dsign               000000014009e878     ucrt:api-ms-win-crt-math-l1-1-0.dll
 0002:00000880       __imp_sinf                 000000014009e880     ucrt:api-ms-win-crt-math-l1-1-0.dll
 0002:00000888       __imp_cosf                 000000014009e888     ucrt:api-ms-win-crt-math-l1-1-0.dll
 0002:00000890       __imp_pow                  000000014009e890     ucrt:api-ms-win-crt-math-l1-1-0.dll
 0002:00000898       __imp_sqrtf                000000014009e898     ucrt:api-ms-win-crt-math-l1-1-0.dll
 0002:000008a0       __imp___setusermatherr     000000014009e8a0     ucrt:api-ms-win-crt-math-l1-1-0.dll
 0002:000008a8       \177api-ms-win-crt-math-l1-1-0_NULL_THUNK_DATA 000000014009e8a8     ucrt:api-ms-win-crt-math-l1-1-0.dll
 0002:000008b0       __imp__seh_filter_exe      000000014009e8b0     ucrt:api-ms-win-crt-runtime-l1-1-0.dll
 0002:000008b8       __imp__configure_narrow_argv 000000014009e8b8     ucrt:api-ms-win-crt-runtime-l1-1-0.dll
 0002:000008c0       __imp__initialize_narrow_environment 000000014009e8c0     ucrt:api-ms-win-crt-runtime-l1-1-0.dll
 0002:000008c8       __imp__get_initial_narrow_environment 000000014009e8c8     ucrt:api-ms-win-crt-runtime-l1-1-0.dll
 0002:000008d0       __imp__initterm            000000014009e8d0     ucrt:api-ms-win-crt-runtime-l1-1-0.dll
 0002:000008d8       __imp__initterm_e          000000014009e8d8     ucrt:api-ms-win-crt-runtime-l1-1-0.dll
 0002:000008e0       __imp_exit                 000000014009e8e0     ucrt:api-ms-win-crt-runtime-l1-1-0.dll
 0002:000008e8       __imp__exit                000000014009e8e8     ucrt:api-ms-win-crt-runtime-l1-1-0.dll
 0002:000008f0       __imp__errno               000000014009e8f0     ucrt:api-ms-win-crt-runtime-l1-1-0.dll
 0002:000008f8       __imp___p___argc           000000014009e8f8     ucrt:api-ms-win-crt-runtime-l1-1-0.dll
 0002:00000900       __imp___p___argv           000000014009e900     ucrt:api-ms-win-crt-runtime-l1-1-0.dll
 0002:00000908       __imp__cexit               000000014009e908     ucrt:api-ms-win-crt-runtime-l1-1-0.dll
 0002:00000910       __imp__c_exit              000000014009e910     ucrt:api-ms-win-crt-runtime-l1-1-0.dll
 0002:00000918       __imp__register_thread_local_exe_atexit_callback 000000014009e918     ucrt:api-ms-win-crt-runtime-l1-1-0.dll
 0002:00000920       __imp_terminate            000000014009e920     ucrt:api-ms-win-crt-runtime-l1-1-0.dll
 0002:00000928       __imp__invalid_parameter_noinfo 000000014009e928     ucrt:api-ms-win-crt-runtime-l1-1-0.dll
 0002:00000930       __imp__beginthreadex       000000014009e930     ucrt:api-ms-win-crt-runtime-l1-1-0.dll
 0002:00000938       __imp__initialize_onexit_table 000000014009e938     ucrt:api-ms-win-crt-runtime-l1-1-0.dll
 0002:00000940       __imp__register_onexit_function 000000014009e940     ucrt:api-ms-win-crt-runtime-l1-1-0.dll
 0002:00000948       __imp__crt_atexit          000000014009e948     ucrt:api-ms-win-crt-runtime-l1-1-0.dll
 0002:00000950       __imp__wassert             000000014009e950     ucrt:api-ms-win-crt-runtime-l1-1-0.dll
 0002:00000958       __imp_abort                000000014009e958     ucrt:api-ms-win-crt-runtime-l1-1-0.dll
 0002:00000960       __imp__set_app_type        000000014009e960     ucrt:api-ms-win-crt-runtime-l1-1-0.dll
 0002:00000968       __imp__invalid_parameter_noinfo_noreturn 000000014009e968     ucrt:api-ms-win-crt-runtime-l1-1-0.dll
 0002:00000970       \177api-ms-win-crt-runtime-l1-1-0_NULL_THUNK_DATA 000000014009e970     ucrt:api-ms-win-crt-runtime-l1-1-0.dll
 0002:00000978       __imp___stdio_common_vsscanf 000000014009e978     ucrt:api-ms-win-crt-stdio-l1-1-0.dll
 0002:00000980       __imp__get_stream_buffer_pointers 000000014009e980     ucrt:api-ms-win-crt-stdio-l1-1-0.dll
 0002:00000988       __imp_fread                000000014009e988     ucrt:api-ms-win-crt-stdio-l1-1-0.dll
 0002:00000990       __imp___stdio_common_vsprintf 000000014009e990     ucrt:api-ms-win-crt-stdio-l1-1-0.dll
 0002:00000998       __imp__wfopen              000000014009e998     ucrt:api-ms-win-crt-stdio-l1-1-0.dll
 0002:000009a0       __imp__fseeki64            000000014009e9a0     ucrt:api-ms-win-crt-stdio-l1-1-0.dll
 0002:000009a8       __imp_fsetpos              000000014009e9a8     ucrt:api-ms-win-crt-stdio-l1-1-0.dll
 0002:000009b0       __imp_fwrite               000000014009e9b0     ucrt:api-ms-win-crt-stdio-l1-1-0.dll
 0002:000009b8       __imp_fputc                000000014009e9b8     ucrt:api-ms-win-crt-stdio-l1-1-0.dll
 0002:000009c0       __imp___p__commode         000000014009e9c0     ucrt:api-ms-win-crt-stdio-l1-1-0.dll
 0002:000009c8       __imp_fgetc                000000014009e9c8     ucrt:api-ms-win-crt-stdio-l1-1-0.dll
 0002:000009d0       __imp_fclose               000000014009e9d0     ucrt:api-ms-win-crt-stdio-l1-1-0.dll
 0002:000009d8       __imp_fflush               000000014009e9d8     ucrt:api-ms-win-crt-stdio-l1-1-0.dll
 0002:000009e0       __imp__set_fmode           000000014009e9e0     ucrt:api-ms-win-crt-stdio-l1-1-0.dll
 0002:000009e8       __imp_fgetpos              000000014009e9e8     ucrt:api-ms-win-crt-stdio-l1-1-0.dll
 0002:000009f0       __imp_setvbuf              000000014009e9f0     ucrt:api-ms-win-crt-stdio-l1-1-0.dll
 0002:000009f8       __imp_ungetc               000000014009e9f8     ucrt:api-ms-win-crt-stdio-l1-1-0.dll
 0002:00000a00       __imp_ftell                000000014009ea00     ucrt:api-ms-win-crt-stdio-l1-1-0.dll
 0002:00000a08       __imp_fseek                000000014009ea08     ucrt:api-ms-win-crt-stdio-l1-1-0.dll
 0002:00000a10       __imp___acrt_iob_func      000000014009ea10     ucrt:api-ms-win-crt-stdio-l1-1-0.dll
 0002:00000a18       \177api-ms-win-crt-stdio-l1-1-0_NULL_THUNK_DATA 000000014009ea18     ucrt:api-ms-win-crt-stdio-l1-1-0.dll
 0002:00000a20       __imp_strncpy              000000014009ea20     ucrt:api-ms-win-crt-string-l1-1-0.dll
 0002:00000a28       __imp_strcmp               000000014009ea28     ucrt:api-ms-win-crt-string-l1-1-0.dll
 0002:00000a30       __imp_strcpy_s             000000014009ea30     ucrt:api-ms-win-crt-string-l1-1-0.dll
 0002:00000a38       \177api-ms-win-crt-string-l1-1-0_NULL_THUNK_DATA 000000014009ea38     ucrt:api-ms-win-crt-string-l1-1-0.dll
 0002:00000a40       __imp__time64              000000014009ea40     ucrt:api-ms-win-crt-time-l1-1-0.dll
 0002:00000a48       \177api-ms-win-crt-time-l1-1-0_NULL_THUNK_DATA 000000014009ea48     ucrt:api-ms-win-crt-time-l1-1-0.dll
 0002:00000a50       __imp_qsort                000000014009ea50     ucrt:api-ms-win-crt-utility-l1-1-0.dll
 0002:00000a58       \177api-ms-win-crt-utility-l1-1-0_NULL_THUNK_DATA 000000014009ea58     ucrt:api-ms-win-crt-utility-l1-1-0.dll
 0002:00000a60       __imp_glfwGetInputMode     000000014009ea60     glfw3dll:glfw3.dll
 0002:00000a68       __imp_glfwGetClipboardString 000000014009ea68     glfw3dll:glfw3.dll
 0002:00000a70       __imp_glfwSetErrorCallback 000000014009ea70     glfw3dll:glfw3.dll
 0002:00000a78       __imp_glfwSetWindowSize    000000014009ea78     glfw3dll:glfw3.dll
 0002:00000a80       __imp_glfwHideWindow       000000014009ea80     glfw3dll:glfw3.dll
 0002:00000a88       __imp_glfwDestroyWindow    000000014009ea88     glfw3dll:glfw3.dll
 0002:00000a90       __imp_glfwGetWin32Window   000000014009ea90     glfw3dll:glfw3.dll
 0002:00000a98       __imp_glfwGetCursorPos     000000014009ea98     glfw3dll:glfw3.dll
 0002:00000aa0       __imp_glfwGetMouseButton   000000014009eaa0     glfw3dll:glfw3.dll
 0002:00000aa8       __imp_glfwGetWindowAttrib  000000014009eaa8     glfw3dll:glfw3.dll
 0002:00000ab0       __imp_glfwTerminate        000000014009eab0     glfw3dll:glfw3.dll
 0002:00000ab8       __imp_glfwPollEvents       000000014009eab8     glfw3dll:glfw3.dll
 0002:00000ac0       __imp_glfwInit             000000014009eac0     glfw3dll:glfw3.dll
 0002:00000ac8       __imp_glfwCreateWindow     000000014009eac8     glfw3dll:glfw3.dll
 0002:00000ad0       __imp_glfwMakeContextCurrent 000000014009ead0     glfw3dll:glfw3.dll
 0002:00000ad8       __imp_glfwGetTime          000000014009ead8     glfw3dll:glfw3.dll
 0002:00000ae0       __imp_glfwShowWindow       000000014009eae0     glfw3dll:glfw3.dll
 0002:00000ae8       __imp_glfwSetWindowCloseCallback 000000014009eae8     glfw3dll:glfw3.dll
 0002:00000af0       __imp_glfwGetFramebufferSize 000000014009eaf0     glfw3dll:glfw3.dll
 0002:00000af8       __imp_glfwGetWindowSize    000000014009eaf8     glfw3dll:glfw3.dll
 0002:00000b00       __imp_glfwSetMouseButtonCallback 000000014009eb00     glfw3dll:glfw3.dll
 0002:00000b08       __imp_glfwSwapBuffers      000000014009eb08     glfw3dll:glfw3.dll
 0002:00000b10       __imp_glfwSetCursor        000000014009eb10     glfw3dll:glfw3.dll
 0002:00000b18       __imp_glfwDestroyCursor    000000014009eb18     glfw3dll:glfw3.dll
 0002:00000b20       __imp_glfwSetKeyCallback   000000014009eb20     glfw3dll:glfw3.dll
 0002:00000b28       __imp_glfwSetScrollCallback 000000014009eb28     glfw3dll:glfw3.dll
 0002:00000b30       __imp_glfwSetInputMode     000000014009eb30     glfw3dll:glfw3.dll
 0002:00000b38       __imp_glfwSetClipboardString 000000014009eb38     glfw3dll:glfw3.dll
 0002:00000b40       __imp_glfwCreateStandardCursor 000000014009eb40     glfw3dll:glfw3.dll
 0002:00000b48       __imp_glfwGetJoystickAxes  000000014009eb48     glfw3dll:glfw3.dll
 0002:00000b50       __imp_glfwSetCharCallback  000000014009eb50     glfw3dll:glfw3.dll
 0002:00000b58       __imp_glfwGetJoystickButtons 000000014009eb58     glfw3dll:glfw3.dll
 0002:00000b60       __imp_glfwSetCursorPos     000000014009eb60     glfw3dll:glfw3.dll
 0002:00000b68       \177glfw3_NULL_THUNK_DATA  000000014009eb68     glfw3dll:glfw3.dll
 0002:00000b70       __imp_?createIrrKlangDevice@irrklang@@YAPEAVISoundEngine@1@W4E_SOUND_OUTPUT_DRIVER@1@HPEBD1@Z 000000014009eb70     irrKlang:irrKlang.dll
 0002:00000b78       \177irrKlang_NULL_THUNK_DATA 000000014009eb78     irrKlang:irrKlang.dll
 0002:00000b80       __imp_curl_easy_escape     000000014009eb80     libcurl:libcurl.dll
 0002:00000b88       __imp_curl_easy_setopt     000000014009eb88     libcurl:libcurl.dll
 0002:00000b90       __imp_curl_easy_perform    000000014009eb90     libcurl:libcurl.dll
 0002:00000b98       __imp_curl_easy_getinfo    000000014009eb98     libcurl:libcurl.dll
 0002:00000ba0       __imp_curl_easy_init       000000014009eba0     libcurl:libcurl.dll
 0002:00000ba8       __imp_curl_easy_cleanup    000000014009eba8     libcurl:libcurl.dll
 0002:00000bb0       \177libcurl_NULL_THUNK_DATA 000000014009ebb0     libcurl:libcurl.dll
 0002:00000bb8       __imp_CoUninitialize       000000014009ebb8     ole32:ole32.dll
 0002:00000bc0       __imp_CoInitializeSecurity 000000014009ebc0     ole32:ole32.dll
 0002:00000bc8       __imp_CoInitializeEx       000000014009ebc8     ole32:ole32.dll
 0002:00000bd0       __imp_CoCreateInstance     000000014009ebd0     ole32:ole32.dll
 0002:00000bd8       __imp_CoSetProxyBlanket    000000014009ebd8     ole32:ole32.dll
 0002:00000be0       \177ole32_NULL_THUNK_DATA  000000014009ebe0     ole32:ole32.dll
 0002:00000be8       __guard_check_icall_fptr   000000014009ebe8     MSVCRT:guard_support.obj
 0002:00000bf0       __guard_xfg_check_icall_fptr 000000014009ebf0     MSVCRT:guard_support.obj
 0002:00000bf8       __guard_dispatch_icall_fptr 000000014009ebf8     MSVCRT:guard_support.obj
 0002:00000c00       __guard_xfg_dispatch_icall_fptr 000000014009ec00     MSVCRT:guard_support.obj
 0002:00000c08       __guard_xfg_table_dispatch_icall_fptr 000000014009ec08     MSVCRT:guard_support.obj
 0002:00000c10       __xc_a                     000000014009ec10     MSVCRT:initializers.obj
 0002:00000d58       __xc_z                     000000014009ed58     MSVCRT:initializers.obj
 0002:00000d60       __xi_a                     000000014009ed60     MSVCRT:initializers.obj
 0002:00000d80       __xi_z                     000000014009ed80     MSVCRT:initializers.obj
 0002:00000d88       __xl_a                     000000014009ed88     MSVCRT:tlssup.obj
 0002:00000d90       __xl_z                     000000014009ed90     MSVCRT:tlssup.obj
 0002:00000d98       __xp_a                     000000014009ed98     MSVCRT:initializers.obj
 0002:00000da0       __xp_z                     000000014009eda0     MSVCRT:initializers.obj
 0002:00000da8       __xt_a                     000000014009eda8     MSVCRT:initializers.obj
 0002:00000db0       __xt_z                     000000014009edb0     MSVCRT:initializers.obj
 0002:00000dc0       ??_C@_03BIFOHCEN@AAD@      000000014009edc0     cryptopp-static:cryptlib.cpp.obj
 0002:00000dd0       ??_7exception@std@@6B@     000000014009edd0     cryptopp-static:cryptlib.cpp.obj
 0002:00000de8       ??_7bad_alloc@std@@6B@     000000014009ede8     cryptopp-static:cryptlib.cpp.obj
 0002:00000e00       ??_7bad_array_new_length@std@@6B@ 000000014009ee00     cryptopp-static:cryptlib.cpp.obj
 0002:00000e18       ??_7Exception@CryptoPP@@6B@ 000000014009ee18     cryptopp-static:cryptlib.cpp.obj
 0002:00000e30       ??_7InvalidArgument@CryptoPP@@6B@ 000000014009ee30     cryptopp-static:cryptlib.cpp.obj
 0002:00000e48       ??_7InvalidDataFormat@CryptoPP@@6B@ 000000014009ee48     cryptopp-static:cryptlib.cpp.obj
 0002:00000e60       ??_7InvalidCiphertext@CryptoPP@@6B@ 000000014009ee60     cryptopp-static:cryptlib.cpp.obj
 0002:00000e78       ??_7NotImplemented@CryptoPP@@6B@ 000000014009ee78     cryptopp-static:cryptlib.cpp.obj
 0002:00000e90       ??_7CannotFlush@CryptoPP@@6B@ 000000014009ee90     cryptopp-static:cryptlib.cpp.obj
 0002:00000ea8       ??_7ValueTypeMismatch@NameValuePairs@CryptoPP@@6B@ 000000014009eea8     cryptopp-static:cryptlib.cpp.obj
 0002:00000ec0       ??_7NameValuePairs@CryptoPP@@6B@ 000000014009eec0     cryptopp-static:cryptlib.cpp.obj
 0002:00000ed0       ??_C@_0DK@CFJCNMFC@RandomNumberGenerator?3?5Incorpor@ 000000014009eed0     cryptopp-static:cryptlib.cpp.obj
 0002:00000f18       ??_7NoChannelSupport@BufferedTransformation@CryptoPP@@6B@ 000000014009ef18     cryptopp-static:cryptlib.cpp.obj
 0002:00000f28       ??_C@_0DA@MBHFBJDK@?3?5this?5object?5doesn?8t?5support?5m@ 000000014009ef28     cryptopp-static:cryptlib.cpp.obj
 0002:00000f60       ??_7InvalidKeyLength@CryptoPP@@6B@ 000000014009ef60     cryptopp-static:cryptlib.cpp.obj
 0002:00000f70       ??_C@_0BL@KBFANIMC@?5is?5not?5a?5valid?5key?5length@ 000000014009ef70     cryptopp-static:cryptlib.cpp.obj
 0002:00000f98       ??_7BitBucket@CryptoPP@@6BAlgorithm@1@@ 000000014009ef98     cryptopp-static:cryptlib.cpp.obj
 0002:00001108       ??_7BitBucket@CryptoPP@@6BWaitable@1@@ 000000014009f108     cryptopp-static:cryptlib.cpp.obj
 0002:00001120       ??_C@_09OBGBNIAF@BitBucket@ 000000014009f120     cryptopp-static:cryptlib.cpp.obj
 0002:00001138       ??_7ParameterNotUsed@AlgorithmParametersBase@CryptoPP@@6B@ 000000014009f138     cryptopp-static:cryptlib.cpp.obj
 0002:00001150       ??_7AlgorithmParametersBase@CryptoPP@@6B@ 000000014009f150     cryptopp-static:cryptlib.cpp.obj
 0002:00001170       ??_7?$AlgorithmParametersTemplate@H@CryptoPP@@6B@ 000000014009f170     cryptopp-static:cryptlib.cpp.obj
 0002:00001190       ??_7?$AlgorithmParametersTemplate@VConstByteArrayParameter@CryptoPP@@@CryptoPP@@6B@ 000000014009f190     cryptopp-static:cryptlib.cpp.obj
 0002:000011b0       ??_7ArraySink@CryptoPP@@6BAlgorithm@1@@ 000000014009f1b0     cryptopp-static:cryptlib.cpp.obj
 0002:00001320       ??_7ArraySink@CryptoPP@@6BWaitable@1@@ 000000014009f320     cryptopp-static:cryptlib.cpp.obj
 0002:00001340       ??_7SelfTestFailure@CryptoPP@@6B@ 000000014009f340     cryptopp-static:cryptlib.cpp.obj
 0002:00001350       ??_C@_02JDBEGKHA@IV@       000000014009f350     cryptopp-static:cryptlib.cpp.obj
 0002:00001360       ??_C@_0FE@HFGECFBC@Cryptographic?5algorithms?5are?5di@ 000000014009f360     cryptopp-static:cryptlib.cpp.obj
 0002:000013c0       ??_C@_0EJ@ELGPILLH@Cryptographic?5algorithms?5are?5di@ 000000014009f3c0     cryptopp-static:cryptlib.cpp.obj
 0002:00001410       ??_C@_0BN@KHOAJDE@?3?5this?5object?5requires?5an?5IV@ 000000014009f410     cryptopp-static:cryptlib.cpp.obj
 0002:00001430       ??_C@_0CD@LCDJNFEE@?3?5this?5object?5cannot?5use?5a?5null@ 000000014009f430     cryptopp-static:cryptlib.cpp.obj
 0002:00001458       ??_C@_0BO@KKPKNHLA@?5is?5less?5than?5the?5minimum?5of?5@ 000000014009f458     cryptopp-static:cryptlib.cpp.obj
 0002:00001478       ??_C@_0N@DOFJCAHK@?3?5IV?5length?5@ 000000014009f478     cryptopp-static:cryptlib.cpp.obj
 0002:00001488       ??_C@_0BJ@LLMAKIFI@?5exceeds?5the?5maximum?5of?5@ 000000014009f488     cryptopp-static:cryptlib.cpp.obj
 0002:000014a8       ??_C@_0DD@HBDGJOAI@?3?5this?5object?5doesn?8t?5support?5a@ 000000014009f4a8     cryptopp-static:cryptlib.cpp.obj
 0002:000014dc       ??_C@_06LCIDCBMH@?5bytes@  000000014009f4dc     cryptopp-static:cryptlib.cpp.obj
 0002:000014e8       ??_C@_0BB@PNAEGKNH@?5byte?5digest?5to?5@ 000000014009f4e8     cryptopp-static:cryptlib.cpp.obj
 0002:00001500       ??_C@_0CG@GIKKMKLD@HashTransformation?3?5can?8t?5trunc@ 000000014009f500     cryptopp-static:cryptlib.cpp.obj
 0002:00001530       ??_7NullNameValuePairs@CryptoPP@@6B@ 000000014009f530     cryptopp-static:cryptlib.cpp.obj
 0002:00001de8       ??_7CombinedNameValuePairs@CryptoPP@@6B@ 000000014009fde8     cryptopp-static:base64.cpp.obj
 0002:00001df8       ??_C@_0L@MMDHOIPL@Terminator@ 000000014009fdf8     cryptopp-static:base64.cpp.obj
 0002:00001e08       ??_C@_09HKIOFPKP@GroupSize@ 000000014009fe08     cryptopp-static:base64.cpp.obj
 0002:00001e18       ??_C@_0M@IOCCFGFN@PaddingByte@ 000000014009fe18     cryptopp-static:base64.cpp.obj
 0002:00001e28       ??_C@_0BE@HFPGIKBG@EncodingLookupArray@ 000000014009fe28     cryptopp-static:base64.cpp.obj
 0002:00001e48       ??_7?$AlgorithmParametersTemplate@PEBE@CryptoPP@@6B@ 000000014009fe48     cryptopp-static:base64.cpp.obj
 0002:00001e68       ??_7?$AlgorithmParametersTemplate@E@CryptoPP@@6B@ 000000014009fe68     cryptopp-static:base64.cpp.obj
 0002:00001e88       ??_7?$AlgorithmParametersTemplate@PEBH@CryptoPP@@6B@ 000000014009fe88     cryptopp-static:base64.cpp.obj
 0002:00001ea0       ??_C@_0BP@JDBDLGOO@?3?5missing?5required?5parameter?5?8@ 000000014009fea0     cryptopp-static:filters.cpp.obj
 0002:00001ec8       ??_7BlockingInputOnly@BufferedTransformation@CryptoPP@@6B@ 000000014009fec8     cryptopp-static:filters.cpp.obj
 0002:00001ed8       ??_C@_0DH@OPGPMIGI@?3?5Nonblocking?5input?5is?5not?5impl@ 000000014009fed8     cryptopp-static:filters.cpp.obj
 0002:00001f18       ??_7FilterPutSpaceHelper@CryptoPP@@6B@ 000000014009ff18     cryptopp-static:filters.cpp.obj
 0002:00001f28       ??_7FilterWithBufferedInput@CryptoPP@@6BAlgorithm@1@@ 000000014009ff28     cryptopp-static:filters.cpp.obj
 0002:00002118       ??_7FilterWithBufferedInput@CryptoPP@@6BWaitable@1@@ 00000001400a0118     cryptopp-static:filters.cpp.obj
 0002:00002138       ??_7StreamTransformationFilter@CryptoPP@@6BAlgorithm@1@@ 00000001400a0138     cryptopp-static:filters.cpp.obj
 0002:00002328       ??_7StreamTransformationFilter@CryptoPP@@6BWaitable@1@@ 00000001400a0328     cryptopp-static:filters.cpp.obj
 0002:00002348       ??_7StreamTransformationFilter@CryptoPP@@6B@ 00000001400a0348     cryptopp-static:filters.cpp.obj
 0002:00002358       ??_7OutputProxy@CryptoPP@@6BAlgorithm@1@@ 00000001400a0358     cryptopp-static:filters.cpp.obj
 0002:000024c8       ??_7OutputProxy@CryptoPP@@6BWaitable@1@@ 00000001400a04c8     cryptopp-static:filters.cpp.obj
 0002:000024e8       ??_7ProxyFilter@CryptoPP@@6BAlgorithm@1@@ 00000001400a04e8     cryptopp-static:filters.cpp.obj
 0002:000026d8       ??_7ProxyFilter@CryptoPP@@6BWaitable@1@@ 00000001400a06d8     cryptopp-static:filters.cpp.obj
 0002:000026f0       ??_C@_0BD@ODHFAHPH@BlockPaddingScheme@ 00000001400a06f0     cryptopp-static:filters.cpp.obj
 0002:00002708       ??_C@_0N@CPFCHGLB@OutputBuffer@ 00000001400a0708     cryptopp-static:filters.cpp.obj
 0002:00002718       ??_C@_0CN@OAICMBAN@FilterWithBufferedInput?3?5invali@ 00000001400a0718     cryptopp-static:filters.cpp.obj
 0002:00002748       ??_C@_0BI@CIBCPAKB@FilterWithBufferedInput@ 00000001400a0748     cryptopp-static:filters.cpp.obj
 0002:00002760       ??_C@_0CJ@LGDHCBMP@ArraySink?3?5missing?5OutputBuffer@ 00000001400a0760     cryptopp-static:filters.cpp.obj
 0002:00002790       ??_C@_0II@MBLMIAME@StreamTransformationFilter?3?5ple@ 00000001400a0790     cryptopp-static:filters.cpp.obj
 0002:00002818       ??_C@_0DO@PEJJCIIP@StreamTransformationFilter?3?5PKC@ 00000001400a0818     cryptopp-static:filters.cpp.obj
 0002:00002858       ??_C@_0DN@JCDJIFOE@StreamTransformationFilter?3?5W3C@ 00000001400a0858     cryptopp-static:filters.cpp.obj
 0002:000028a0       ??_C@_0EH@HOHJNCJL@StreamTransformationFilter?3?5ONE@ 00000001400a08a0     cryptopp-static:filters.cpp.obj
 0002:000028f0       ??_C@_0GJ@NAJLALFD@StreamTransformationFilter?3?5pla@ 00000001400a08f0     cryptopp-static:filters.cpp.obj
 0002:00002960       ??_C@_0EO@HFBEMIBH@StreamTransformationFilter?3?5cip@ 00000001400a0960     cryptopp-static:filters.cpp.obj
 0002:000029b0       ??_C@_0EA@ELIPDBLA@StreamTransformationFilter?3?5inv@ 00000001400a09b0     cryptopp-static:filters.cpp.obj
 0002:000029f0       ??_C@_0DM@JCLINENA@StreamTransformationFilter?3?5inv@ 00000001400a09f0     cryptopp-static:filters.cpp.obj
 0002:00002a30       ??_C@_0EB@GAAJBDBK@StreamTransformationFilter?3?5inv@ 00000001400a0a30     cryptopp-static:filters.cpp.obj
 0002:00002a78       ??_C@_0CK@KDNMJIEG@StringStore?3?5missing?5InputBuffe@ 00000001400a0a78     cryptopp-static:filters.cpp.obj
 0002:00002aa8       ??_C@_0BC@KBDMBKEH@deque?$DMT?$DO?5too?5long@ 00000001400a0aa8     cryptopp-static:filters.cpp.obj
 0002:00002ac8       ??_7?$AlgorithmParametersTemplate@W4BlockPaddingScheme@BlockPaddingSchemeDef@CryptoPP@@@CryptoPP@@6B@ 00000001400a0ac8     cryptopp-static:filters.cpp.obj
 0002:00002ae0       ??_C@_0L@KPHNIBPN@ValueNames@ 00000001400a0ae0     cryptopp-static:algparam.cpp.obj
 0002:00002af8       ??_7AlgorithmParameters@CryptoPP@@6B@ 00000001400a0af8     cryptopp-static:algparam.cpp.obj
 0002:00002b08       ??_C@_01ICJEACDI@?$DL@     00000001400a0b08     cryptopp-static:algparam.cpp.obj
 0002:00002b18       ??_7OS_RNG_Err@CryptoPP@@6B@ 00000001400a0b18     cryptopp-static:osrng.cpp.obj
 0002:00002b30       ??_7NonblockingRng@CryptoPP@@6B@ 00000001400a0b30     cryptopp-static:osrng.cpp.obj
 0002:00002b90       ??_C@_02MDDDDAID@0x@       00000001400a0b90     cryptopp-static:osrng.cpp.obj
 0002:00002b98       ??_C@_0BO@INDFNMEE@?5operation?5failed?5with?5error?5@ 00000001400a0b98     cryptopp-static:osrng.cpp.obj
 0002:00002bb8       ??_C@_08GLCEKBHC@OS_Rng?3?5@ 00000001400a0bb8     cryptopp-static:osrng.cpp.obj
 0002:00002bc8       ??_C@_0N@CKDHJLOF@Crypto?$CL?$CL?5RNG@ 00000001400a0bc8     cryptopp-static:osrng.cpp.obj
 0002:00002bd8       ??_C@_0BE@FGGGKAFM@CryptAcquireContext@ 00000001400a0bd8     cryptopp-static:osrng.cpp.obj
 0002:00002bf0       ??_C@_0P@HGPEDCEI@CryptGenRandom@ 00000001400a0bf0     cryptopp-static:osrng.cpp.obj
 0002:00002c00       ??_C@_05JICNKEGG@AESNI@    00000001400a0c00     cryptopp-static:rijndael.cpp.obj
 0002:00002c08       ??_C@_0CG@PMAELPLC@RoundUpToMultipleOf?3?5integer?5ov@ 00000001400a0c08     cryptopp-static:rijndael.cpp.obj
 0002:00002c30       ??_C@_0P@GHFPNOJB@bad?5allocation@ 00000001400a0c30     cryptopp-static:misc.cpp.obj
 0002:00002c40       ??_C@_03FNDCCAPF@Pad@      00000001400a0c40     cryptopp-static:basecode.cpp.obj
 0002:00002c48       ??_C@_0O@MKJOHCMH@BaseN_Encoder@ 00000001400a0c48     cryptopp-static:basecode.cpp.obj
 0002:00002c58       ??_C@_0DK@OIBDCEPC@BaseN_Encoder?3?5Log2Base?5must?5be@ 00000001400a0c58     cryptopp-static:basecode.cpp.obj
 0002:00002c98       ??_C@_0O@EDDCGKD@BaseN_Decoder@ 00000001400a0c98     cryptopp-static:basecode.cpp.obj
 0002:00002ca8       ??_C@_0DK@ODKPEJNG@BaseN_Decoder?3?5Log2Base?5must?5be@ 00000001400a0ca8     cryptopp-static:basecode.cpp.obj
 0002:00002ce8       ??_C@_07DCMIEKHD@Grouper@  00000001400a0ce8     cryptopp-static:basecode.cpp.obj
 0002:00002d20       ??_7bad_cast@std@@6B@      00000001400a0d20     cryptopp-static:integer.cpp.obj
 0002:00002d38       ??_7BERDecodeErr@CryptoPP@@6B@ 00000001400a0d38     cryptopp-static:integer.cpp.obj
 0002:00002d48       ??_C@_0BB@IFPBGMCB@BER?5decode?5error@ 00000001400a0d48     cryptopp-static:integer.cpp.obj
 0002:00002d68       ??_7Integer@CryptoPP@@6B@  00000001400a0d68     cryptopp-static:integer.cpp.obj
 0002:00002d90       ??_7StringStore@CryptoPP@@6BAlgorithm@1@@ 00000001400a0d90     cryptopp-static:integer.cpp.obj
 0002:00002f08       ??_7StringStore@CryptoPP@@6BWaitable@1@@ 00000001400a0f08     cryptopp-static:integer.cpp.obj
 0002:00002f20       ??_C@_0CD@BAANGAME@Integer?3?5input?5length?5is?5too?5sm@ 00000001400a0f20     cryptopp-static:integer.cpp.obj
 0002:00002f50       ??_7InputRejected@?$InputRejecting@VBufferedTransformation@CryptoPP@@@CryptoPP@@6B@ 00000001400a0f50     cryptopp-static:integer.cpp.obj
 0002:00002f60       __xmm@00000000000000021fffffffffffffff 00000001400a0f60     cryptopp-static:integer.cpp.obj
 0002:00002f70       __xmm@00000000000000103fffffffffffffff 00000001400a0f70     cryptopp-static:integer.cpp.obj
 0002:00002f80       __xmm@ffffffffffffffffffffffffffffffff 00000001400a0f80     cryptopp-static:integer.cpp.obj
 0002:00002f98       ??_7RandomPool@CryptoPP@@6B@ 00000001400a0f98     cryptopp-static:randpool.cpp.obj
 0002:00003000       ??_7SHA256@CryptoPP@@6B@   00000001400a1000     cryptopp-static:randpool.cpp.obj
 0002:000030c8       ??_C@_07DKFLFLPF@SHA?9256@ 00000001400a10c8     cryptopp-static:randpool.cpp.obj
 0002:000030d8       ??_7Timer@CryptoPP@@6B@    00000001400a10d8     cryptopp-static:randpool.cpp.obj
 0002:000030f0       ??_7?$BlockCipherFinal@$0A@VEnc@Rijndael@CryptoPP@@@CryptoPP@@6BSimpleKeyingInterface@1@@ 00000001400a10f0     cryptopp-static:randpool.cpp.obj
 0002:00003170       ??_7?$BlockCipherFinal@$0A@VEnc@Rijndael@CryptoPP@@@CryptoPP@@6BBlockTransformation@1@@ 00000001400a1170     cryptopp-static:randpool.cpp.obj
 0002:000031d0       __xmm@0c0d0e0f08090a0b0405060700010203 00000001400a11d0     cryptopp-static:randpool.cpp.obj
 0002:000031e8       ??_7Walker@ByteQueue@CryptoPP@@6BAlgorithm@2@@ 00000001400a11e8     cryptopp-static:queue.cpp.obj
 0002:00003358       ??_7Walker@ByteQueue@CryptoPP@@6BWaitable@2@@ 00000001400a1358     cryptopp-static:queue.cpp.obj
 0002:00003378       ??_7ByteQueue@CryptoPP@@6BAlgorithm@1@@ 00000001400a1378     cryptopp-static:queue.cpp.obj
 0002:000034e8       ??_7ByteQueue@CryptoPP@@6BWaitable@1@@ 00000001400a14e8     cryptopp-static:queue.cpp.obj
 0002:00003500       ??_C@_08FJNMAIDK@NodeSize@ 00000001400a1500     cryptopp-static:queue.cpp.obj
 0002:00003518       ??_7MessageQueue@CryptoPP@@6BAlgorithm@1@@ 00000001400a1518     cryptopp-static:mqueue.cpp.obj
 0002:00003688       ??_7MessageQueue@CryptoPP@@6BWaitable@1@@ 00000001400a1688     cryptopp-static:mqueue.cpp.obj
 0002:000036a0       ?RIJNDAEL_SIMD_FNAME@@3QBDB 00000001400a16a0     cryptopp-static:rijndael_simd.cpp.obj
 0002:00003740       __xmm@01000000000000000000000000000000 00000001400a1740     cryptopp-static:rijndael_simd.cpp.obj
 0002:00003750       ?Se@Base@Rijndael@CryptoPP@@1QBEB 00000001400a1750     cryptopp-static:rdtables.cpp.obj
 0002:00003850       ?Sd@Base@Rijndael@CryptoPP@@1QBEB 00000001400a1850     cryptopp-static:rdtables.cpp.obj
 0002:00003950       ?rcon@Base@Rijndael@CryptoPP@@1QBIB 00000001400a1950     cryptopp-static:rdtables.cpp.obj
 0002:00003980       ??_7?$AlgorithmParametersTemplate@_N@CryptoPP@@6B@ 00000001400a1980     cryptopp-static:dll.cpp.obj
 0002:000039a0       ??_7?$StringSinkTemplate@V?$basic_string@DU?$char_traits@D@std@@V?$allocator@D@2@@std@@@CryptoPP@@6BAlgorithm@1@@ 00000001400a19a0     cryptopp-static:dll.cpp.obj
 0002:00003b10       ??_7?$StringSinkTemplate@V?$basic_string@DU?$char_traits@D@std@@V?$allocator@D@2@@std@@@CryptoPP@@6BWaitable@1@@ 00000001400a1b10     cryptopp-static:dll.cpp.obj
 0002:00003b30       ??_7?$SourceTemplate@VStringStore@CryptoPP@@@CryptoPP@@6BAlgorithm@1@@ 00000001400a1b30     cryptopp-static:dll.cpp.obj
 0002:00003cd8       ??_7?$SourceTemplate@VStringStore@CryptoPP@@@CryptoPP@@6BWaitable@1@@ 00000001400a1cd8     cryptopp-static:dll.cpp.obj
 0002:00003cf8       ??_7StringSource@CryptoPP@@6BAlgorithm@1@@ 00000001400a1cf8     cryptopp-static:dll.cpp.obj
 0002:00003ea0       ??_7StringSource@CryptoPP@@6BWaitable@1@@ 00000001400a1ea0     cryptopp-static:dll.cpp.obj
 0002:00003ec0       ??_7ECPPoint@CryptoPP@@6B@ 00000001400a1ec0     cryptopp-static:dll.cpp.obj
 0002:00003ed0       ??_7EC2NPoint@CryptoPP@@6B@ 00000001400a1ed0     cryptopp-static:dll.cpp.obj
 0002:00003ee0       ??_7BaseN_Decoder@CryptoPP@@6BAlgorithm@1@@ 00000001400a1ee0     cryptopp-static:dll.cpp.obj
 0002:00004070       ??_7BaseN_Decoder@CryptoPP@@6BWaitable@1@@ 00000001400a2070     cryptopp-static:dll.cpp.obj
 0002:00004090       ??_7InputRejected@?$InputRejecting@VFilter@CryptoPP@@@CryptoPP@@6B@ 00000001400a2090     cryptopp-static:dll.cpp.obj
 0002:000040a8       ??_7BERGeneralDecoder@CryptoPP@@6BAlgorithm@1@@ 00000001400a20a8     cryptopp-static:asn.cpp.obj
 0002:00004220       ??_7BERGeneralDecoder@CryptoPP@@6BWaitable@1@@ 00000001400a2220     cryptopp-static:asn.cpp.obj
 0002:00004240       ??_7DERGeneralEncoder@CryptoPP@@6BAlgorithm@1@@ 00000001400a2240     cryptopp-static:asn.cpp.obj
 0002:000043b0       ??_7DERGeneralEncoder@CryptoPP@@6BWaitable@1@@ 00000001400a23b0     cryptopp-static:asn.cpp.obj
 0002:000043d0       ??_7HashInputTooLong@CryptoPP@@6B@ 00000001400a23d0     cryptopp-static:iterhash.cpp.obj
 0002:000043e0       ??_C@_0EH@DECNOJBO@IteratedHashBase?3?5input?5data?5ex@ 00000001400a23e0     cryptopp-static:iterhash.cpp.obj
 0002:00004430       ?SHA256_K@CryptoPP@@3QBIB  00000001400a2430     cryptopp-static:sha.cpp.obj
 0002:00004530       ?SHA512_K@CryptoPP@@3QB_KB 00000001400a2530     cryptopp-static:sha.cpp.obj
 0002:000047b0       ??_C@_05NELDFMFD@SHANI@    00000001400a27b0     cryptopp-static:sha.cpp.obj
 0002:000047d8       ??_C@_0DE@ODIIDHMK@Timer?3?5QueryPerformanceFrequenc@ 00000001400a27d8     cryptopp-static:hrtimer.cpp.obj
 0002:00004810       ??_C@_0DC@MINKEAFA@Timer?3?5QueryPerformanceCounter?5@ 00000001400a2810     cryptopp-static:hrtimer.cpp.obj
 0002:00004850       ?SSE_SIMD_FNAME@@3QBDB     00000001400a2850     cryptopp-static:sse_simd.cpp.obj
 0002:00004ce0       ?m@LC_RNG@CryptoPP@@0IB    00000001400a2ce0     cryptopp-static:rng.cpp.obj
 0002:00004ce4       ?q@LC_RNG@CryptoPP@@0IB    00000001400a2ce4     cryptopp-static:rng.cpp.obj
 0002:00004ce8       ?a@LC_RNG@CryptoPP@@0GB    00000001400a2ce8     cryptopp-static:rng.cpp.obj
 0002:00004cec       ?r@LC_RNG@CryptoPP@@0GB    00000001400a2cec     cryptopp-static:rng.cpp.obj
 0002:00004cf0       ?SHA_SIMD_FNAME@@3QBDB     00000001400a2cf0     cryptopp-static:sha_simd.cpp.obj
 0002:00004d50       __xmm@0f0e0d0c0b0a09080706050403020100 00000001400a2d50     cryptopp-static:sha_simd.cpp.obj
 0002:00004d60       __xmm@106aa070f40e3585d6990624d192e819 00000001400a2d60     cryptopp-static:sha_simd.cpp.obj
 0002:00004d70       __xmm@1429296706ca6351d5a79147c6e00bf3 00000001400a2d70     cryptopp-static:sha_simd.cpp.obj
 0002:00004d80       __xmm@240ca1cc0fc19dc6efbe4786e49b69c1 00000001400a2d80     cryptopp-static:sha_simd.cpp.obj
 0002:00004d90       __xmm@34b0bcb52748774c1e376c0819a4c116 00000001400a2d90     cryptopp-static:sha_simd.cpp.obj
 0002:00004da0       __xmm@53380d134d2c6dfc2e1b213827b70a85 00000001400a2da0     cryptopp-static:sha_simd.cpp.obj
 0002:00004db0       __xmm@550c7dc3243185be12835b01d807aa98 00000001400a2db0     cryptopp-static:sha_simd.cpp.obj
 0002:00004dc0       __xmm@682e6ff35b9cca4f4ed8aa4a391c0cb3 00000001400a2dc0     cryptopp-static:sha_simd.cpp.obj
 0002:00004dd0       __xmm@76f988da5cb0a9dc4a7484aa2de92c6f 00000001400a2dd0     cryptopp-static:sha_simd.cpp.obj
 0002:00004de0       __xmm@8cc7020884c8781478a5636f748f82ee 00000001400a2de0     cryptopp-static:sha_simd.cpp.obj
 0002:00004df0       __xmm@92722c8581c2c92e766a0abb650a7354 00000001400a2df0     cryptopp-static:sha_simd.cpp.obj
 0002:00004e00       __xmm@ab1c5ed5923f82a459f111f13956c25b 00000001400a2e00     cryptopp-static:sha_simd.cpp.obj
 0002:00004e10       __xmm@bf597fc7b00327c8a831c66d983e5152 00000001400a2e10     cryptopp-static:sha_simd.cpp.obj
 0002:00004e20       __xmm@c19bf1749bdc06a780deb1fe72be5d74 00000001400a2e20     cryptopp-static:sha_simd.cpp.obj
 0002:00004e30       __xmm@c67178f2bef9a3f7a4506ceb90befffa 00000001400a2e30     cryptopp-static:sha_simd.cpp.obj
 0002:00004e40       __xmm@c76c51a3c24b8b70a81a664ba2bfe8a1 00000001400a2e40     cryptopp-static:sha_simd.cpp.obj
 0002:00004e50       __xmm@e9b5dba5b5c0fbcf71374491428a2f98 00000001400a2e50     cryptopp-static:sha_simd.cpp.obj
 0002:00004e70       ??_C@_1EC@JIJBPKFM@?$AAa?$AAp?$AAi?$AA?9?$AAm?$AAs?$AA?9?$AAw?$AAi?$AAn?$AA?9?$AAc?$AAo?$AAr?$AAe@ 00000001400a2e70     MSVCRT:thread_safe_statics.obj
 0002:00004eb8       ??_C@_1BK@MGMFAEKH@?$AAk?$AAe?$AAr?$AAn?$AAe?$AAl?$AA3?$AA2?$AA?4?$AAd?$AAl?$AAl@ 00000001400a2eb8     MSVCRT:thread_safe_statics.obj
 0002:00004ed8       ??_C@_0BJ@JEBJOJFJ@SleepConditionVariableCS@ 00000001400a2ed8     MSVCRT:thread_safe_statics.obj
 0002:00004ef8       ??_C@_0BJ@PGPPEPCC@WakeAllConditionVariable@ 00000001400a2ef8     MSVCRT:thread_safe_statics.obj
 0002:00004f20       ??_7type_info@@6B@         00000001400a2f20     MSVCRT:std_type_info_static.obj
 0002:00005030       ??_C@_0BN@NEEHBBPO@GetFileInformationByHandleEx@ 00000001400a3030     msvcprt:filesystem.obj
 0002:00005050       GUID_ATLVer110             00000001400a3050     atls:atlbase.obj
 0002:00005060       ??_C@_1IC@ONKHOIDK@?$AAE?$AAR?$AAR?$AAO?$AAR?$AA?5?$AA?3?$AA?5?$AAU?$AAn?$AAa?$AAb?$AAl?$AAe?$AA?5@ 00000001400a3060     atls:atlbase.obj
 0002:000050e8       ??_7_com_error@@6B@        00000001400a30e8     comsuppw:comraise.obj
 0002:000050f0       CLSID_WbemLocator          00000001400a30f0     wbemuuid:wbemcli_i.obj
 0002:00005100       IID_IWbemLocator           00000001400a3100     wbemuuid:wbemcli_i.obj
 0002:00005110       ??_C@_0BA@LCLOGKDG@imgui_impl_glfw@ 00000001400a3110     imgui_impl_glfw.obj
 0002:00005120       ??_C@_1IE@BEAIEKJI@?$AAC?$AA?3?$AA?2?$AAU?$AAs?$AAe?$AAr?$AAs?$AA?2?$AAp?$AAw?$AAn?$AA?2?$AAD?$AAe@ 00000001400a3120     imgui_impl_glfw.obj
 0002:000051b0       ??_C@_1BGC@BEKJJODG@?$AAi?$AAo?$AA?4?$AAF?$AAo?$AAn?$AAt?$AAs?$AA?9?$AA?$DO?$AAI?$AAs?$AAB?$AAu?$AAi@ 00000001400a31b0     imgui_impl_glfw.obj
 0002:00005320       ??_C@_1FK@NNBBPPPE@?$AAC?$AA?3?$AA?2?$AAU?$AAs?$AAe?$AAr?$AAs?$AA?2?$AAp?$AAw?$AAn?$AA?2?$AAD?$AAe@ 00000001400a3320     imgui_impl_opengl2.obj
 0002:00005380       ??_C@_0BD@BJOEHOL@imgui_impl_opengl2@ 00000001400a3380     imgui_impl_opengl2.obj
 0002:00005398       ??_C@_1BC@DCMHDKFO@?$AAi?$AA?5?$AA?$DM?$AA?5?$AAS?$AAi?$AAz?$AAe@ 00000001400a3398     imgui_impl_opengl2.obj
 0002:000053ac       ??_C@_13COJANIEC@?$AA0@    00000001400a33ac     imgui.obj
 0002:000053b0       ??_C@_0N@MFFOHPLI@?$CD?$CDBackground@ 00000001400a33b0     imgui.obj
 0002:000053c0       ??_C@_0N@MFHPHIIJ@?$CD?$CDForeground@ 00000001400a33c0     imgui.obj
 0002:000053d0       ??_C@_1GM@DGDBCBFF@?$AAC?$AA?3?$AA?2?$AAU?$AAs?$AAe?$AAr?$AAs?$AA?2?$AAp?$AAw?$AAn?$AA?2?$AAD?$AAe@ 00000001400a33d0     imgui.obj
 0002:00005440       ??_C@_09BJIHMJFE@imgui?4ini@ 00000001400a3440     imgui.obj
 0002:00005450       ??_C@_0O@HCOAADPE@imgui_log?4txt@ 00000001400a3450     imgui.obj
 0002:00005460       ??_C@_1FO@CBFAIJGP@?$AAC?$AA?3?$AA?2?$AAU?$AAs?$AAe?$AAr?$AAs?$AA?2?$AAp?$AAw?$AAn?$AA?2?$AAD?$AAe@ 00000001400a3460     imgui.obj
 0002:000054c0       ??_C@_1CC@MDBCLFOC@?$AAf?$AAi?$AAl?$AAe?$AAn?$AAa?$AAm?$AAe?$AA?5?$AA?$CG?$AA?$CG?$AA?5?$AAm?$AAo?$AAd@ 00000001400a34c0     imgui.obj
 0002:000054e2       ?value@?$static_const@Ufrom_json_fn@detail@nlohmann@@@detail@nlohmann@@2Ufrom_json_fn@23@B 00000001400a34e2     main.obj
 0002:000054e2       ??_C@_00CNPNBAHC@@         00000001400a34e2     imgui.obj
 0002:000054e2       ?value@?$static_const@Uto_json_fn@detail@nlohmann@@@detail@nlohmann@@2Uto_json_fn@23@B 00000001400a34e2     main.obj
 0002:000054e4       ??_C@_05EJCOBEBF@?$CDMOVE@ 00000001400a34e4     imgui.obj
 0002:000054f0       ??_C@_1DE@OJBIPCGA@?$AAD?$AAr?$AAa?$AAw?$AAL?$AAi?$AAs?$AAt?$AA?5?$AA?$DN?$AA?$DN?$AA?5?$AA?$CG?$AAD?$AAr@ 00000001400a34f0     imgui.obj
 0002:00005528       ??_C@_1BI@DNJHCPPF@?$AAg?$AA?4?$AAN?$AAa?$AAv?$AAW?$AAi?$AAn?$AAd?$AAo?$AAw@ 00000001400a3528     imgui.obj
 0002:00005540       ??_C@_1EC@GJHEKLIJ@?$AAn?$AAa?$AAv?$AA_?$AAl?$AAa?$AAy?$AAe?$AAr?$AA?5?$AA?$DN?$AA?$DN?$AA?5?$AA0?$AA?5@ 00000001400a3540     imgui.obj
 0002:00005588       ??_C@_1BA@DDOODPOM@?$AAi?$AAd?$AA?5?$AA?$CB?$AA?$DN?$AA?5?$AA0@ 00000001400a3588     imgui.obj
 0002:000055a0       ??_C@_1HA@DMBDPHAC@?$AAg?$AA?4?$AAA?$AAc?$AAt?$AAi?$AAv?$AAe?$AAI?$AAd?$AA?5?$AA?$DN?$AA?$DN?$AA?5?$AAi@ 00000001400a35a0     imgui.obj
 0002:00005610       ??_C@_1JO@PPIAHLHG@?$AA?$CI?$AAf?$AAl?$AAa?$AAg?$AAs?$AA?5?$AA?$CG?$AA?5?$AA?$CI?$AAI?$AAm?$AAG?$AAu?$AAi@ 00000001400a3610     imgui.obj
 0002:000056b0       ??_C@_1NE@MGLAEJCB@?$AAG?$AAI?$AAm?$AAG?$AAu?$AAi?$AA?5?$AA?$CB?$AA?$DN?$AA?5?$AA0?$AA?5?$AA?$CG?$AA?$CG?$AA?5@ 00000001400a36b0     imgui.obj
 0002:00005790       ??_C@_1FK@PIJFGHBG@?$AAg?$AA?4?$AAM?$AAo?$AAv?$AAi?$AAn?$AAg?$AAW?$AAi?$AAn?$AAd?$AAo?$AAw?$AA?5@ 00000001400a3790     imgui.obj
 0002:000057f0       ??_C@_1BM@ICEHPMG@?$AAg?$AA?4?$AAI?$AAn?$AAi?$AAt?$AAi?$AAa?$AAl?$AAi?$AAz?$AAe?$AAd@ 00000001400a37f0     imgui.obj
 0002:00005810       ??_C@_1JK@GMCNDFJ@?$AA?$CI?$AAg?$AA?4?$AAI?$AAO?$AA?4?$AAD?$AAe?$AAl?$AAt?$AAa?$AAT?$AAi?$AAm?$AAe@ 00000001400a3810     imgui.obj
 0002:000058b0       ??_C@_1BAM@KGEBLPLP@?$AA?$CI?$AAg?$AA?4?$AAF?$AAr?$AAa?$AAm?$AAe?$AAC?$AAo?$AAu?$AAn?$AAt?$AA?5?$AA?$DN@ 00000001400a38b0     imgui.obj
 0002:000059c0       ??_C@_1LC@PGGPGCKP@?$AAg?$AA?4?$AAI?$AAO?$AA?4?$AAD?$AAi?$AAs?$AAp?$AAl?$AAa?$AAy?$AAS?$AAi?$AAz@ 00000001400a39c0     imgui.obj
 0002:00005a80       ??_C@_1PG@JADLACEI@?$AAg?$AA?4?$AAI?$AAO?$AA?4?$AAF?$AAo?$AAn?$AAt?$AAs?$AA?9?$AA?$DO?$AAF?$AAo?$AAn@ 00000001400a3a80     imgui.obj
 0002:00005b80       ??_C@_1BAC@FODFLPAM@?$AAg?$AA?4?$AAI?$AAO?$AA?4?$AAF?$AAo?$AAn?$AAt?$AAs?$AA?9?$AA?$DO?$AAF?$AAo?$AAn@ 00000001400a3b80     imgui.obj
 0002:00005c90       ??_C@_1IA@HHCKGFKM@?$AAg?$AA?4?$AAS?$AAt?$AAy?$AAl?$AAe?$AA?4?$AAC?$AAu?$AAr?$AAv?$AAe?$AAT?$AAe@ 00000001400a3c90     imgui.obj
 0002:00005d10       ??_C@_1BDK@LCLKOPHF@?$AAg?$AA?4?$AAS?$AAt?$AAy?$AAl?$AAe?$AA?4?$AAA?$AAl?$AAp?$AAh?$AAa?$AA?5?$AA?$DO@ 00000001400a3d10     imgui.obj
 0002:00005e50       ??_C@_1LO@BODAGONP@?$AAg?$AA?4?$AAS?$AAt?$AAy?$AAl?$AAe?$AA?4?$AAW?$AAi?$AAn?$AAd?$AAo?$AAw?$AAM@ 00000001400a3e50     imgui.obj
 0002:00005f10       ??_C@_1BDK@FANHHEDI@?$AAg?$AA?4?$AAS?$AAt?$AAy?$AAl?$AAe?$AA?4?$AAW?$AAi?$AAn?$AAd?$AAo?$AAw?$AAM@ 00000001400a3f10     imgui.obj
 0002:00006050       ??_C@_1BHK@MLHDJALK@?$AAg?$AA?4?$AAI?$AAO?$AA?4?$AAK?$AAe?$AAy?$AAM?$AAa?$AAp?$AA?$FL?$AAn?$AA?$FN?$AA?5@ 00000001400a4050     imgui.obj
 0002:000061d0       ??_C@_1MO@ONPFNFPJ@?$AAg?$AA?4?$AAI?$AAO?$AA?4?$AAK?$AAe?$AAy?$AAM?$AAa?$AAp?$AA?$FL?$AAI?$AAm?$AAG@ 00000001400a41d0     imgui.obj
 0002:000062a0       ??_C@_1DE@BLONNHPO@?$AAg?$AA?4?$AAS?$AAe?$AAt?$AAt?$AAi?$AAn?$AAg?$AAs?$AAW?$AAi?$AAn?$AAd?$AAo@ 00000001400a42a0     imgui.obj
 0002:000062d8       ??_C@_1CG@DCCAIGN@?$AAg?$AA?4?$AAF?$AAo?$AAn?$AAt?$AA?9?$AA?$DO?$AAI?$AAs?$AAL?$AAo?$AAa?$AAd?$AAe@ 00000001400a42d8     imgui.obj
 0002:00006300       ??_C@_1FG@GBBMCDKF@?$AAg?$AA?4?$AAW?$AAi?$AAn?$AAd?$AAo?$AAw?$AAs?$AAF?$AAo?$AAc?$AAu?$AAs?$AAO@ 00000001400a4300     imgui.obj
 0002:00006358       ??_C@_0P@IMLDNMEK@Debug?$CD?$CDDefault@ 00000001400a4358     imgui.obj
 0002:00006368       ??_C@_0BC@JHPKFIGH@HoveredId?3?50x?$CF08X@ 00000001400a4368     imgui.obj
 0002:00006380       ??_C@_0BM@IIPBLKLJ@Press?5ESC?5to?5abort?5picking?4@ 00000001400a4380     imgui.obj
 0002:000063a0       ??_C@_0BM@OPIPEIJO@Click?5to?5break?5in?5debugger?$CB@ 00000001400a43a0     imgui.obj
 0002:000063c0       ??_C@_1EI@IBBBPCIN@?$AA?$CB?$AAg?$AA?4?$AAI?$AAn?$AAi?$AAt?$AAi?$AAa?$AAl?$AAi?$AAz?$AAe?$AAd?$AA?5@ 00000001400a43c0     imgui.obj
 0002:00006408       ??_C@_06BKKJGDHO@Window@   00000001400a4408     imgui.obj
 0002:00006410       ??_C@_1OG@INBPPELJ@?$AAd?$AAr?$AAa?$AAw?$AA_?$AAl?$AAi?$AAs?$AAt?$AA?9?$AA?$DO?$AAV?$AAt?$AAx?$AAB@ 00000001400a4410     imgui.obj
 0002:00006500       ??_C@_1OG@ICPLNDEC@?$AAd?$AAr?$AAa?$AAw?$AA_?$AAl?$AAi?$AAs?$AAt?$AA?9?$AA?$DO?$AAI?$AAd?$AAx?$AAB@ 00000001400a4500     imgui.obj
 0002:000065f0       ??_C@_1HI@ENCAIJO@?$AA?$CI?$AAi?$AAn?$AAt?$AA?$CJ?$AAd?$AAr?$AAa?$AAw?$AA_?$AAl?$AAi?$AAs?$AAt?$AA?9@ 00000001400a45f0     imgui.obj
 0002:00006670       ??_C@_1OI@BGNIEPFI@?$AAd?$AAr?$AAa?$AAw?$AA_?$AAl?$AAi?$AAs?$AAt?$AA?9?$AA?$DO?$AA_?$AAV?$AAt?$AAx@ 00000001400a4670     imgui.obj
 0002:00006760       ??_C@_1HE@BFIFNNBB@?$AAg?$AA?4?$AAW?$AAi?$AAt?$AAh?$AAi?$AAn?$AAF?$AAr?$AAa?$AAm?$AAe?$AAS?$AAc@ 00000001400a4760     imgui.obj
 0002:000067d4       ??_C@_03KHICJKCI@?4?4?4@   00000001400a47d4     imgui.obj
 0002:000067e0       ??_C@_1FG@HALPOAJN@?$AAg?$AA?4?$AAW?$AAi?$AAn?$AAd?$AAo?$AAw?$AAs?$AA?4?$AAS?$AAi?$AAz?$AAe?$AA?5@ 00000001400a47e0     imgui.obj
 0002:00006840       ??_C@_1MA@GLKOIJOK@?$AAu?$AAs?$AAe?$AAr?$AA_?$AAk?$AAe?$AAy?$AA_?$AAi?$AAn?$AAd?$AAe?$AAx?$AA?5@ 00000001400a4840     imgui.obj
 0002:00006900       ??_C@_1KM@DBCALINN@?$AAk?$AAe?$AAy?$AA_?$AAi?$AAn?$AAd?$AAe?$AAx?$AA?5?$AA?$DO?$AA?$DN?$AA?5?$AA0?$AA?5@ 00000001400a4900     imgui.obj
 0002:000069b0       ??_C@_1KE@HGNMHPHK@?$AAb?$AAu?$AAt?$AAt?$AAo?$AAn?$AA?5?$AA?$DO?$AA?$DN?$AA?5?$AA0?$AA?5?$AA?$CG?$AA?$CG?$AA?5@ 00000001400a49b0     imgui.obj
 0002:00006a58       ??_C@_1BI@DLHMADOF@?$AAG?$AAI?$AAm?$AAG?$AAu?$AAi?$AA?5?$AA?$CB?$AA?$DN?$AA?5?$AA0@ 00000001400a4a58     imgui.obj
 0002:00006a70       ??_C@_07KBCBAKFA@?$CFs?1?$CF08X@ 00000001400a4a70     imgui.obj
 0002:00006a78       ??_C@_1DE@LOOJAFFK@?$AAg?$AA?4?$AAW?$AAi?$AAt?$AAh?$AAi?$AAn?$AAE?$AAn?$AAd?$AAC?$AAh?$AAi?$AAl@ 00000001400a4a78     imgui.obj
 0002:00006ab0       ??_C@_1FK@ONDIMCKL@?$AAw?$AAi?$AAn?$AAd?$AAo?$AAw?$AA?9?$AA?$DO?$AAF?$AAl?$AAa?$AAg?$AAs?$AA?5?$AA?$CG@ 00000001400a4ab0     imgui.obj
 0002:00006b10       ??_C@_07HDHBJEOI@?$CDRESIZE@ 00000001400a4b10     imgui.obj
 0002:00006b18       ??_C@_09BJOGEADB@?$CDCOLLAPSE@ 00000001400a4b18     imgui.obj
 0002:00006b24       ??_C@_01NBENCBCI@?$CK@     00000001400a4b24     imgui.obj
 0002:00006b30       ??_C@_1FI@JBDNHGBD@?$AAw?$AAi?$AAn?$AAd?$AAo?$AAw?$AA?9?$AA?$DO?$AAR?$AAo?$AAo?$AAt?$AAW?$AAi?$AAn@ 00000001400a4b30     imgui.obj
 0002:00006b88       ??_C@_1DK@CDEKKEL@?$AAn?$AAa?$AAm?$AAe?$AA?5?$AA?$CB?$AA?$DN?$AA?5?$AA0?$AA?5?$AA?$CG?$AA?$CG?$AA?5?$AAn?$AAa@ 00000001400a4b88     imgui.obj
 0002:00006bc8       ??_C@_1CG@FEBKCKMN@?$AAg?$AA?4?$AAW?$AAi?$AAt?$AAh?$AAi?$AAn?$AAF?$AAr?$AAa?$AAm?$AAe?$AAS?$AAc@ 00000001400a4bc8     imgui.obj
 0002:00006bf0       ??_C@_1EE@GGBMECGG@?$AAg?$AA?4?$AAF?$AAr?$AAa?$AAm?$AAe?$AAC?$AAo?$AAu?$AAn?$AAt?$AAE?$AAn?$AAd@ 00000001400a4bf0     imgui.obj
 0002:00006c40       ??_C@_1EK@IADLALGG@?$AAf?$AAl?$AAa?$AAg?$AAs?$AA?5?$AA?$CG?$AA?5?$AAI?$AAm?$AAG?$AAu?$AAi?$AAW?$AAi@ 00000001400a4c40     imgui.obj
 0002:00006c90       ??_C@_1HM@BDHFFAHO@?$AAp?$AAa?$AAr?$AAe?$AAn?$AAt?$AA_?$AAw?$AAi?$AAn?$AAd?$AAo?$AAw?$AA?5?$AA?$CB@ 00000001400a4c90     imgui.obj
 0002:00006d10       ??_C@_1EO@GBMDJNAA@?$AAp?$AAa?$AAr?$AAe?$AAn?$AAt?$AA_?$AAw?$AAi?$AAn?$AAd?$AAo?$AAw?$AA?5?$AA?$CG@ 00000001400a4d10     imgui.obj
 0002:00006d60       ??_C@_1FG@JPKHCDHL@?$AA?$CI?$AAf?$AAl?$AAa?$AAg?$AAs?$AA?5?$AA?$CG?$AA?5?$AAI?$AAm?$AAG?$AAu?$AAi?$AAW@ 00000001400a4d60     imgui.obj
 0002:00006dc0       ??_C@_1IG@DKOLGHNA@?$AA?$CI?$AAg?$AA?4?$AAC?$AAu?$AAr?$AAr?$AAe?$AAn?$AAt?$AAW?$AAi?$AAn?$AAd?$AAo@ 00000001400a4dc0     imgui.obj
 0002:00006e48       ??_C@_1DM@FOOGCAMP@?$AAg?$AA?4?$AAC?$AAu?$AAr?$AAr?$AAe?$AAn?$AAt?$AAW?$AAi?$AAn?$AAd?$AAo?$AAw@ 00000001400a4e48     imgui.obj
 0002:00006e90       ??_C@_1HI@MIOLBHIM@?$AA?$CI?$AAg?$AA?4?$AAW?$AAi?$AAt?$AAh?$AAi?$AAn?$AAE?$AAn?$AAd?$AAC?$AAh?$AAi@ 00000001400a4e90     imgui.obj
 0002:00006f08       ??_C@_1DC@JABAIOEL@?$AAf?$AAo?$AAn?$AAt?$AA?5?$AA?$CG?$AA?$CG?$AA?5?$AAf?$AAo?$AAn?$AAt?$AA?9?$AA?$DO?$AAI@ 00000001400a4f08     imgui.obj
 0002:00006f40       ??_C@_1CG@FNLEAELN@?$AAf?$AAo?$AAn?$AAt?$AA?9?$AA?$DO?$AAS?$AAc?$AAa?$AAl?$AAe?$AA?5?$AA?$DO?$AA?5?$AA0@ 00000001400a4f40     imgui.obj
 0002:00006f70       ??_C@_1EM@KGOACLAI@?$AAi?$AAd?$AAx?$AA?5?$AA?$DO?$AA?$DN?$AA?5?$AA0?$AA?5?$AA?$CG?$AA?$CG?$AA?5?$AAi?$AAd?$AAx@ 00000001400a4f70     imgui.obj
 0002:00006fc0       ??_C@_1JA@BICGEIG@?$AA0?$AA?5?$AA?$CG?$AA?$CG?$AA?5?$AA?$CC?$AAC?$AAa?$AAl?$AAl?$AAe?$AAd?$AA?5?$AAP?$AAu@ 00000001400a4fc0     imgui.obj
 0002:00007050       ??_C@_09IBFEOKHN@Separator@ 00000001400a5050     imgui.obj
 0002:00007060       ??_C@_07NBCGADJA@Unknown@  00000001400a5060     imgui.obj
 0002:00007070       ??_C@_1EE@PBEDMJFL@?$AAc?$AAo?$AAn?$AAd?$AA?5?$AA?$DN?$AA?$DN?$AA?5?$AA0?$AA?5?$AA?$HM?$AA?$HM?$AA?5?$AAI?$AAm@ 00000001400a5070     imgui.obj
 0002:000070b8       ??_C@_1DO@IKDHAIOB@?$AA?$CB?$AAw?$AAi?$AAn?$AAd?$AAo?$AAw?$AA?9?$AA?$DO?$AAD?$AAC?$AA?4?$AAG?$AAr?$AAo@ 00000001400a50b8     imgui.obj
 0002:00007100       ??_C@_1PM@PNPJAGAO@?$AA?$CI?$AAg?$AA?4?$AAC?$AAu?$AAr?$AAr?$AAe?$AAn?$AAt?$AAW?$AAi?$AAn?$AAd?$AAo@ 00000001400a5100     imgui.obj
 0002:00007200       ??_C@_1PK@KPEOFHN@?$AA?$CI?$AAg?$AA?4?$AAC?$AAu?$AAr?$AAr?$AAe?$AAn?$AAt?$AAW?$AAi?$AAn?$AAd?$AAo@ 00000001400a5200     imgui.obj
 0002:00007300       ??_C@_1HA@BNECBFJH@?$AA?$CK?$AAp?$AA?5?$AA?$DN?$AA?$DN?$AA?5?$AAn?$AA?5?$AA?$CG?$AA?$CG?$AA?5?$AA?$CC?$AAP?$AAu?$AAs@ 00000001400a5300     imgui.obj
 0002:00007370       ??_C@_1FG@LFPLGJE@?$AA?$CK?$AAp?$AA?5?$AA?$DN?$AA?$DN?$AA?5?$AAn?$AA?5?$AA?$CG?$AA?$CG?$AA?5?$AA?$CC?$AAB?$AAe?$AAg@ 00000001400a5370     imgui.obj
 0002:000073d0       ??_C@_1IA@CGGAANNC@?$AA?$CK?$AAp?$AA?5?$AA?$DN?$AA?$DN?$AA?5?$AAn?$AA?5?$AA?$CG?$AA?$CG?$AA?5?$AA?$CC?$AAB?$AAe?$AAg@ 00000001400a53d0     imgui.obj
 0002:00007450       ??_C@_1GI@GIGPJFLN@?$AA?$CK?$AAp?$AA?5?$AA?$DO?$AA?$DN?$AA?5?$AAn?$AA?5?$AA?$CG?$AA?$CG?$AA?5?$AA?$CC?$AAP?$AAu?$AAs@ 00000001400a5450     imgui.obj
 0002:000074c0       ??_C@_1GA@CAPLKMPC@?$AA?$CK?$AAp?$AA?5?$AA?$DO?$AA?$DN?$AA?5?$AAn?$AA?5?$AA?$CG?$AA?$CG?$AA?5?$AA?$CC?$AAP?$AAu?$AAs@ 00000001400a54c0     imgui.obj
 0002:00007520       ??_C@_1FA@NLJAEADF@?$AA?$CK?$AAp?$AA?5?$AA?$DO?$AA?$DN?$AA?5?$AAn?$AA?5?$AA?$CG?$AA?$CG?$AA?5?$AA?$CC?$AAP?$AAu?$AAs@ 00000001400a5520     imgui.obj
 0002:00007570       ??_C@_1OO@PAKDGAAA@?$AAp?$AA?5?$AA?$DN?$AA?$DN?$AA?5?$AAw?$AAi?$AAn?$AAd?$AAo?$AAw?$AA?9?$AA?$DO?$AAD?$AAC@ 00000001400a5570     imgui.obj
 0002:00007660       ??_C@_1GC@BIJJIADH@?$AAc?$AAe?$AAn?$AAt?$AAe?$AAr?$AA_?$AAx?$AA_?$AAr?$AAa?$AAt?$AAi?$AAo?$AA?5@ 00000001400a5660     imgui.obj
 0002:000076d0       ??_C@_1GC@LDEACFFC@?$AAc?$AAe?$AAn?$AAt?$AAe?$AAr?$AA_?$AAy?$AA_?$AAr?$AAa?$AAt?$AAi?$AAo?$AA?5@ 00000001400a56d0     imgui.obj
 0002:00007738       ??_C@_0P@DHLMFJKK@?$CD?$CDTooltip_?$CF02d@ 00000001400a5738     imgui.obj
 0002:00007750       ??_C@_1HC@IKPEGHCP@?$AAG?$AAe?$AAt?$AAC?$AAu?$AAr?$AAr?$AAe?$AAn?$AAt?$AAW?$AAi?$AAn?$AAd?$AAo@ 00000001400a5750     imgui.obj
 0002:000077d0       ??_C@_1GI@FJFNMD@?$AA?$CI?$AAp?$AAo?$AAp?$AAu?$AAp?$AA?4?$AAW?$AAi?$AAn?$AAd?$AAo?$AAw?$AA?9?$AA?$DO@ 00000001400a57d0     imgui.obj
 0002:00007840       ??_C@_1GI@BPADGCJE@?$AAr?$AAe?$AAm?$AAa?$AAi?$AAn?$AAi?$AAn?$AAg?$AA?5?$AA?$DO?$AA?$DN?$AA?5?$AA0?$AA?5@ 00000001400a5840     imgui.obj
 0002:000078a8       ??_C@_0N@PIPFDMLM@?$CD?$CDPopup_?$CF08x@ 00000001400a58a8     imgui.obj
 0002:000078c0       ??_C@_1EO@MGPJKAKN@?$AAw?$AAi?$AAn?$AAd?$AAo?$AAw?$AA?9?$AA?$DO?$AAF?$AAl?$AAa?$AAg?$AAs?$AA?5?$AA?$CG@ 00000001400a58c0     imgui.obj
 0002:00007910       ??_C@_1DG@NPFLFCJJ@?$AAg?$AA?4?$AAB?$AAe?$AAg?$AAi?$AAn?$AAP?$AAo?$AAp?$AAu?$AAp?$AAS?$AAt?$AAa@ 00000001400a5910     imgui.obj
 0002:00007948       ??_C@_1DE@NAFIGFGG@?$AAg?$AA?4?$AAC?$AAu?$AAr?$AAr?$AAe?$AAn?$AAt?$AAW?$AAi?$AAn?$AAd?$AAo?$AAw@ 00000001400a5948     imgui.obj
 0002:00007980       ??_C@_1IK@IGCCKHOG@?$AA?$CI?$AAw?$AAi?$AAn?$AAd?$AAo?$AAw?$AA?9?$AA?$DO?$AAF?$AAl?$AAa?$AAg?$AAs?$AA?5@ 00000001400a5980     imgui.obj
 0002:00007a10       ??_C@_1GA@HNMFLEAL@?$AAg?$AA?4?$AAN?$AAa?$AAv?$AAM?$AAo?$AAv?$AAe?$AAR?$AAe?$AAq?$AAu?$AAe?$AAs@ 00000001400a5a10     imgui.obj
 0002:00007a70       ??_C@_1CC@BGDNHLPI@?$AAg?$AA?4?$AAN?$AAa?$AAv?$AAW?$AAi?$AAn?$AAd?$AAo?$AAw?$AA?5?$AA?$CB?$AA?$DN?$AA?5@ 00000001400a5a70     imgui.obj
 0002:00007a98       ??_C@_1CM@NGAIJMCF@?$AAw?$AAi?$AAn?$AAd?$AAo?$AAw?$AA?5?$AA?$DN?$AA?$DN?$AA?5?$AAg?$AA?4?$AAN?$AAa?$AAv@ 00000001400a5a98     imgui.obj
 0002:00007ac8       ??_C@_1CC@PCNOPHOI@?$AAg?$AA?4?$AAN?$AAa?$AAv?$AAM?$AAo?$AAv?$AAe?$AAR?$AAe?$AAq?$AAu?$AAe?$AAs@ 00000001400a5ac8     imgui.obj
 0002:00007af0       ??_C@_1EG@OLANNBKO@?$AAg?$AA?4?$AAN?$AAa?$AAv?$AAL?$AAa?$AAy?$AAe?$AAr?$AA?5?$AA?$DN?$AA?$DN?$AA?5?$AA0@ 00000001400a5af0     imgui.obj
 0002:00007b38       ??_C@_1DG@HPGLIPGM@?$AAc?$AAh?$AAi?$AAl?$AAd?$AA_?$AAw?$AAi?$AAn?$AAd?$AAo?$AAw?$AA?9?$AA?$DO?$AAC@ 00000001400a5b38     imgui.obj
 0002:00007b70       ??_C@_1EO@NJCLOIHM@?$AAg?$AA?4?$AAN?$AAa?$AAv?$AAA?$AAc?$AAt?$AAi?$AAv?$AAa?$AAt?$AAe?$AAD?$AAo@ 00000001400a5b70     imgui.obj
 0002:00007bc0       ??_C@_1IG@KDKGHOJC@?$AAg?$AA?4?$AAN?$AAa?$AAv?$AAM?$AAo?$AAv?$AAe?$AAD?$AAi?$AAr?$AA?5?$AA?$CB?$AA?$DN@ 00000001400a5bc0     imgui.obj
 0002:00007c50       ??_C@_1HC@ODAAGLGB@?$AAg?$AA?4?$AAN?$AAa?$AAv?$AAM?$AAo?$AAv?$AAe?$AAR?$AAe?$AAq?$AAu?$AAe?$AAs@ 00000001400a5c50     imgui.obj
 0002:00007cd0       ??_C@_1EK@LEOOOAMA@?$AA?$CB?$AAg?$AA?4?$AAN?$AAa?$AAv?$AAS?$AAc?$AAo?$AAr?$AAi?$AAn?$AAg?$AAR?$AAe@ 00000001400a5cd0     imgui.obj
 0002:00007d20       ??_C@_1DM@EKPCIOHK@?$AAg?$AA?4?$AAN?$AAa?$AAv?$AAW?$AAi?$AAn?$AAd?$AAo?$AAw?$AA?5?$AA?$CG?$AA?$CG?$AA?5@ 00000001400a5d20     imgui.obj
 0002:00007d60       ??_C@_1CK@OIBCGJMF@?$AAg?$AA?4?$AAN?$AAa?$AAv?$AAW?$AAi?$AAn?$AAd?$AAo?$AAw?$AAi?$AAn?$AAg?$AAT@ 00000001400a5d60     imgui.obj
 0002:00007d90       ??_C@_07NPLNEKJH@?$CIPopup?$CJ@ 00000001400a5d90     imgui.obj
 0002:00007d98       ??_C@_0O@BKOLOJFE@?$CD?$CDMainMenuBar@ 00000001400a5d98     imgui.obj
 0002:00007da8       ??_C@_0BA@KDPNEDEH@?$CIMain?5menu?5bar?$CJ@ 00000001400a5da8     imgui.obj
 0002:00007db8       ??_C@_0L@JOJOIPFK@?$CIUntitled?$CJ@ 00000001400a5db8     imgui.obj
 0002:00007dc8       ??_C@_1DE@DBGGCEBB@?$AAg?$AA?4?$AAN?$AAa?$AAv?$AAW?$AAi?$AAn?$AAd?$AAo?$AAw?$AAi?$AAn?$AAg?$AAT@ 00000001400a5dc8     imgui.obj
 0002:00007e00       ??_C@_0BE@EBHFKNCA@?$CD?$CD?$CDNavWindowingList@ 00000001400a5e00     imgui.obj
 0002:00007e18       ??_C@_1CC@NMCEOFEI@?$AAg?$AA?4?$AAD?$AAr?$AAa?$AAg?$AAD?$AAr?$AAo?$AAp?$AAA?$AAc?$AAt?$AAi?$AAv@ 00000001400a5e18     imgui.obj
 0002:00007e40       ??_C@_1IO@HJOILAAI@?$AAg?$AA?4?$AAD?$AAr?$AAa?$AAg?$AAD?$AAr?$AAo?$AAp?$AAW?$AAi?$AAt?$AAh?$AAi@ 00000001400a5e40     imgui.obj
 0002:00007ed0       ??_C@_1CM@DLJODDMB@?$AAp?$AAa?$AAy?$AAl?$AAo?$AAa?$AAd?$AA?4?$AAS?$AAo?$AAu?$AAr?$AAc?$AAe?$AAI@ 00000001400a5ed0     imgui.obj
 0002:00007f00       ??_C@_1FA@PCAJNOAC@?$AAg?$AA?4?$AAD?$AAr?$AAa?$AAg?$AAD?$AAr?$AAo?$AAp?$AAW?$AAi?$AAt?$AAh?$AAi@ 00000001400a5f00     imgui.obj
 0002:00007f50       ??_C@_1DK@OHFCBLGB@?$AAp?$AAa?$AAy?$AAl?$AAo?$AAa?$AAd?$AA?4?$AAD?$AAa?$AAt?$AAa?$AAF?$AAr?$AAa@ 00000001400a5f50     imgui.obj
 0002:00007f90       ??_C@_1DO@ILLMEBMP@?$AAg?$AA?4?$AAD?$AAr?$AAa?$AAg?$AAD?$AAr?$AAo?$AAp?$AAW?$AAi?$AAt?$AAh?$AAi@ 00000001400a5f90     imgui.obj
 0002:00007fd0       ??_C@_09FDEMHCFC@?$AN?6?$CF?$CKs?$CF?4?$CKs@ 00000001400a5fd0     imgui.obj
 0002:00007fe0       ??_C@_07LFDEMEGD@?$CF?$CKs?$CF?4?$CKs@ 00000001400a5fe0     imgui.obj
 0002:00007fe8       ??_C@_05DBJFMKBA@?5?$CF?4?$CKs@ 00000001400a5fe8     imgui.obj
 0002:00007ff0       ??_C@_02PCIJFNDE@?$AN?6@   00000001400a5ff0     imgui.obj
 0002:00007ff4       ??_C@_03OIJOKPOL@?$CD?$CD?$CD@ 00000001400a5ff4     imgui.obj
 0002:00007ff8       ??_C@_02JDPG@rb@           00000001400a5ff8     imgui.obj
 0002:00008000       ??_C@_1FO@JGMIEMGH@?$AAg?$AA?4?$AAS?$AAe?$AAt?$AAt?$AAi?$AAn?$AAg?$AAs?$AAL?$AAo?$AAa?$AAd?$AAe@ 00000001400a6000     imgui.obj
 0002:00008060       ??_C@_02BKFDOEMK@wt@       00000001400a6060     imgui.obj
 0002:00008068       ??_C@_09GOMOMIIP@Pos?$DN?$CFi?0?$CFi@ 00000001400a6068     imgui.obj
 0002:00008078       ??_C@_0L@MPPKDMFA@Size?$DN?$CFi?0?$CFi@ 00000001400a6078     imgui.obj
 0002:00008088       ??_C@_0N@IAKNMBB@Collapsed?$DN?$CFd@ 00000001400a6088     imgui.obj
 0002:00008098       ??_C@_1DG@BLKMIOLK@?$AAs?$AAe?$AAt?$AAt?$AAi?$AAn?$AAg?$AAs?$AA?9?$AA?$DO?$AAI?$AAD?$AA?5?$AA?$DN?$AA?$DN@ 00000001400a6098     imgui.obj
 0002:000080d0       ??_C@_09HNFDDBIF@?$FL?$CFs?$FN?$FL?$CFs?$FN?6@ 00000001400a60d0     imgui.obj
 0002:000080e0       ??_C@_0L@DDMADIHO@Pos?$DN?$CFd?0?$CFd?6@ 00000001400a60e0     imgui.obj
 0002:000080f0       ??_C@_0M@CFANMDMP@Size?$DN?$CFd?0?$CFd?6@ 00000001400a60f0     imgui.obj
 0002:00008100       ??_C@_0O@JAFHMCKE@Collapsed?$DN?$CFd?6@ 00000001400a6100     imgui.obj
 0002:00008110       ??_C@_01EEMJAFIK@?6@       00000001400a6110     imgui.obj
 0002:00008114       ??_C@_01NFFPALBN@Y@        00000001400a6114     imgui.obj
 0002:00008118       ??_C@_01MMEEDKFM@X@        00000001400a6118     imgui.obj
 0002:0000811c       ??_C@_04OHJIHAFH@None@     00000001400a611c     imgui.obj
 0002:00008124       ??_C@_02DPKJAMEF@?$CFd@    00000001400a6124     imgui.obj
 0002:00008128       ??_C@_1BC@KCECIPDP@?$AAS?$AAi?$AAz?$AAe?$AA?5?$AA?$DO?$AA?5?$AA0@ 00000001400a6128     imgui.obj
 0002:00008140       ??_C@_1DG@EPOMENA@?$AAo?$AAf?$AAf?$AA?5?$AA?$DO?$AA?$DN?$AA?5?$AA4?$AA?5?$AA?$CG?$AA?$CG?$AA?5?$AAo?$AAf?$AAf@ 00000001400a6140     imgui.obj
 0002:00008178       ??_C@_1DE@BDDBABLK@?$AAp?$AA?5?$AA?$DO?$AA?$DN?$AA?5?$AAb?$AAe?$AAg?$AAi?$AAn?$AA?$CI?$AA?$CJ?$AA?5?$AA?$CG?$AA?$CG@ 00000001400a6178     imgui.obj
 0002:000081b0       ??_C@_1BE@OEELIPPM@?$AAp?$AA?5?$AA?$DM?$AA?5?$AAe?$AAn?$AAd?$AA?$CI?$AA?$CJ@ 00000001400a61b0     imgui.obj
 0002:000081c8       ??_C@_1DM@JNCAMPLJ@?$AAi?$AAt?$AA?5?$AA?$DO?$AA?$DN?$AA?5?$AAD?$AAa?$AAt?$AAa?$AA?5?$AA?$CG?$AA?$CG?$AA?5?$AAi@ 00000001400a61c8     imgui.obj
 0002:0000c8c0       ?blockhitrandomization@@3V?$uniform_int_distribution@H@std@@A 00000001400aa8c0     main.obj
 0002:0000c8c8       ?distanciaupdown@@3V?$uniform_int_distribution@H@std@@A 00000001400aa8c8     main.obj
 0002:0000c8d0       ??_C@_04GFJLOHHD@?$CF?43f@ 00000001400aa8d0     imgui_demo.obj
 0002:0000c8d8       ??_C@_08HHEANBBL@?$CD?$CDpicker@ 00000001400aa8d8     imgui_demo.obj
 0002:0000c8e8       ??_C@_07EDIFFIJI@Current@  00000001400aa8e8     imgui_demo.obj
 0002:0000c8f0       ??_C@_09CDENILGE@?$CD?$CDcurrent@ 00000001400aa8f0     imgui_demo.obj
 0002:0000c8fc       ??_C@_06LFKNFKEK@_COL3F@   00000001400aa8fc     imgui_demo.obj
 0002:0000c904       ??_C@_06LAOCEMMP@_COL4F@   00000001400aa904     imgui_demo.obj
 0002:0000c90c       ??_C@_02NJPGOMH@?$CFf@     00000001400aa90c     imgui_demo.obj
 0002:0000c910       ??_C@_02GMHACPFF@?$CFu@    00000001400aa910     imgui_demo.obj
 0002:0000c914       ??_C@_05LLAMLEHD@?$CFI64d@ 00000001400aa914     imgui_demo.obj
 0002:0000c91c       ??_C@_04OPMHGHMB@Copy@     00000001400aa91c     imgui_demo.obj
 0002:0000c924       ??_C@_01POHCFINO@Z@        00000001400aa924     imgui_demo.obj
 0002:0000c928       ??_C@_01FHEEJDEE@A@        00000001400aa928     imgui_demo.obj
 0002:0000c92c       ??_C@_01HMGJMAIH@B@        00000001400aa92c     imgui_demo.obj
 0002:0000c930       ??_C@_01HIHLOKLC@1@        00000001400aa930     imgui_demo.obj
 0002:0000c934       ??_C@_01FDFGLJHB@2@        00000001400aa934     imgui_demo.obj
 0002:0000c938       ??_C@_01EKENIIDA@3@        00000001400aa938     imgui_demo.obj
 0002:0000c93c       ??_C@_01BMBHCPLG@5@        00000001400aa93c     imgui_demo.obj
 0002:0000c940       ??_C@_01CLKCMJKC@?5@       00000001400aa940     imgui_demo.obj
 0002:0000c944       ??_C@_05PDOBBJNA@Color@    00000001400aa944     imgui_demo.obj
 0002:0000c94c       ??_C@_04LBABLPF@Exit@      00000001400aa94c     imgui_demo.obj
 0002:0000c958       ??_C@_1DK@JJGEFOJO@?$AAi?$AAt?$AA?5?$AA?$DO?$AA?$DN?$AA?5?$AAD?$AAa?$AAt?$AAa?$AA?5?$AA?$CG?$AA?$CG?$AA?5?$AAi@ 00000001400aa958     imgui_demo.obj
 0002:0000c9a0       ??_C@_1GM@BACDINNM@?$AAC?$AA?3?$AA?2?$AAU?$AAs?$AAe?$AAr?$AAs?$AA?2?$AAp?$AAw?$AAn?$AA?2?$AAD?$AAe@ 00000001400aa9a0     imgui_draw.obj
 0002:0000ca10       ??_C@_1EI@NNJKMECF@?$AAw?$AAi?$AAd?$AAt?$AAh?$AA?5?$AA?$DM?$AA?$DN?$AA?5?$AA0?$AAx?$AAf?$AAf?$AAf?$AAf@ 00000001400aaa10     imgui_draw.obj
 0002:0000ca58       ??_C@_1BO@KBODBKOH@?$AAf?$AAi?$AAr?$AAs?$AAt?$AA?9?$AA?$DO?$AAx?$AA?5?$AA?$DM?$AA?$DN?$AA?5?$AAx?$AA0@ 00000001400aaa58     imgui_draw.obj
 0002:0000ca78       ??_C@_1CG@BDIGDJGP@?$AAn?$AAo?$AAd?$AAe?$AA?9?$AA?$DO?$AAn?$AAe?$AAx?$AAt?$AA?9?$AA?$DO?$AAx?$AA?5?$AA?$DO@ 00000001400aaa78     imgui_draw.obj
 0002:0000caa0       ??_C@_1BM@JHJLEEND@?$AAn?$AAo?$AAd?$AAe?$AA?9?$AA?$DO?$AAx?$AA?5?$AA?$DM?$AA?$DN?$AA?5?$AAx?$AA0@ 00000001400aaaa0     imgui_draw.obj
 0002:0000cac0       ??_C@_1CM@LEHAODMI@?$AAw?$AAi?$AAd?$AAt?$AAh?$AA?5?$AA?$CF?$AA?5?$AAc?$AA?9?$AA?$DO?$AAa?$AAl?$AAi?$AAg@ 00000001400aaac0     imgui_draw.obj
 0002:0000caf0       ??_C@_1BE@MNLKNDNL@?$AAx?$AAp?$AAo?$AAs?$AA?5?$AA?$DO?$AA?$DN?$AA?5?$AA0@ 00000001400aaaf0     imgui_draw.obj
 0002:0000cb10       ??_C@_1FA@GPDJEJHP@?$AAn?$AAo?$AAd?$AAe?$AA?9?$AA?$DO?$AAn?$AAe?$AAx?$AAt?$AA?9?$AA?$DO?$AAx?$AA?5?$AA?$DO@ 00000001400aab10     imgui_draw.obj
 0002:0000cb60       ??_C@_1GM@MBGLKJLI@?$AAC?$AA?3?$AA?2?$AAU?$AAs?$AAe?$AAr?$AAs?$AA?2?$AAp?$AAw?$AAn?$AA?2?$AAD?$AAe@ 00000001400aab60     imgui_draw.obj
 0002:0000cbd0       ??_C@_1DA@CPAEOPEI@?$AA?$CB?$AA?$CI?$AAo?$AA?5?$AA?$DO?$AA?5?$AAb?$AA?9?$AA?$DO?$AAs?$AAi?$AAz?$AAe?$AA?5?$AA?$HM@ 00000001400aabd0     imgui_draw.obj
 0002:0000cc00       ??_C@_1CC@OMFGMKMB@?$AAn?$AA?5?$AA?$DO?$AA?$DN?$AA?5?$AA1?$AA?5?$AA?$CG?$AA?$CG?$AA?5?$AAn?$AA?5?$AA?$DM?$AA?$DN?$AA?5@ 00000001400aac00     imgui_draw.obj
 0002:0000cc28       ??_C@_1DK@IJDIOPHB@?$AAo?$AAf?$AAf?$AAs?$AAi?$AAz?$AAe?$AA?5?$AA?$DO?$AA?$DN?$AA?5?$AA1?$AA?5?$AA?$CG?$AA?$CG@ 00000001400aac28     imgui_draw.obj
 0002:0000cc68       ??_C@_1BC@KDMJFGHG@?$AAb?$AA0?$AA?5?$AA?$DO?$AA?$DN?$AA?5?$AA2?$AA8@ 00000001400aac68     imgui_draw.obj
 0002:0000cc80       ??_C@_1CI@PFMEGAIA@?$AAi?$AA?5?$AA?$DO?$AA?$DN?$AA?5?$AA0?$AA?5?$AA?$CG?$AA?$CG?$AA?5?$AAi?$AA?5?$AA?$DM?$AA?5?$AAc@ 00000001400aac80     imgui_draw.obj
 0002:0000cca8       ??_C@_04LOAJBDKD@true@     00000001400aaca8     imgui_draw.obj
 0002:0000ccb0       ??_C@_04EICJPCEA@cmap@     00000001400aacb0     imgui_draw.obj
 0002:0000ccb8       ??_C@_04DACNFKGE@loca@     00000001400aacb8     imgui_draw.obj
 0002:0000ccc0       ??_C@_04NEODDMOL@head@     00000001400aacc0     imgui_draw.obj
 0002:0000ccc8       ??_C@_04LLIHEPK@glyf@      00000001400aacc8     imgui_draw.obj
 0002:0000ccd0       ??_C@_04FMPHLIKP@hhea@     00000001400aacd0     imgui_draw.obj
 0002:0000ccd8       ??_C@_04ONMNCIMC@hmtx@     00000001400aacd8     imgui_draw.obj
 0002:0000cce0       ??_C@_04HHMMLDJI@kern@     00000001400aace0     imgui_draw.obj
 0002:0000cce8       ??_C@_04PCFDEHHD@GPOS@     00000001400aace8     imgui_draw.obj
 0002:0000ccf0       ??_C@_04HJGCPIEK@CFF?5@    00000001400aacf0     imgui_draw.obj
 0002:0000ccf8       ??_C@_04KODIGLGG@maxp@     00000001400aacf8     imgui_draw.obj
 0002:0000cd00       ??_C@_1HA@EBGBJFDE@?$AAu?$AAn?$AAi?$AAc?$AAo?$AAd?$AAe?$AA_?$AAc?$AAo?$AAd?$AAe?$AAp?$AAo?$AAi@ 00000001400aad00     imgui_draw.obj
 0002:0000cd70       ??_C@_1CA@MDABGEPC@?$AA?$CB?$AAi?$AAn?$AAf?$AAo?$AA?9?$AA?$DO?$AAc?$AAf?$AAf?$AA?4?$AAs?$AAi?$AAz?$AAe@ 00000001400aad70     imgui_draw.obj
 0002:0000cd90       ??_C@_1GE@KABFAMEA@?$AAo?$AAu?$AAt?$AAp?$AAu?$AAt?$AA_?$AAc?$AAt?$AAx?$AA?4?$AAn?$AAu?$AAm?$AA_@ 00000001400aad90     imgui_draw.obj
 0002:0000cdf8       ??_C@_1O@EHPNOHML@?$AAz?$AA?5?$AA?$CB?$AA?$DN?$AA?5?$AA0@ 00000001400aadf8     imgui_draw.obj
 0002:0000ce08       ??_C@_1BA@ENLNFFAM@?$AAy?$AA0?$AA?5?$AA?$DM?$AA?5?$AAy?$AA1@ 00000001400aae08     imgui_draw.obj
 0002:0000ce18       ??_C@_1BO@JGPMADBG@?$AAe?$AA?9?$AA?$DO?$AAs?$AAy?$AA?5?$AA?$DM?$AA?$DN?$AA?5?$AAe?$AA?9?$AA?$DO?$AAe?$AAy@ 00000001400aae18     imgui_draw.obj
 0002:0000ce38       ??_C@_1BE@DHAKMBPL@?$AAx?$AA1?$AA?5?$AA?$DM?$AA?$DN?$AA?5?$AAx?$AA?$CL?$AA1@ 00000001400aae38     imgui_draw.obj
 0002:0000ce50       ??_C@_1BA@FAAMJPKE@?$AAx?$AA1?$AA?5?$AA?$DO?$AA?$DN?$AA?5?$AAx@ 00000001400aae50     imgui_draw.obj
 0002:0000ce60       ??_C@_1BA@FEPJEPJJ@?$AAx?$AA1?$AA?5?$AA?$DM?$AA?$DN?$AA?5?$AAx@ 00000001400aae60     imgui_draw.obj
 0002:0000ce70       ??_C@_1BE@NGGEAFFG@?$AAx?$AA1?$AA?5?$AA?$DO?$AA?$DN?$AA?5?$AAx?$AA?$CL?$AA1@ 00000001400aae70     imgui_draw.obj
 0002:0000ce88       ??_C@_1CK@NILBPPPH@?$AAx?$AA1?$AA?5?$AA?$DO?$AA?$DN?$AA?5?$AAx?$AA?5?$AA?$CG?$AA?$CG?$AA?5?$AAx?$AA1?$AA?5?$AA?$DM@ 00000001400aae88     imgui_draw.obj
 0002:0000cec0       ??_C@_1FK@JPMIPNJF@?$AAx?$AA0?$AA?5?$AA?$DO?$AA?$DN?$AA?5?$AAx?$AA?5?$AA?$CG?$AA?$CG?$AA?5?$AAx?$AA0?$AA?5?$AA?$DM@ 00000001400aaec0     imgui_draw.obj
 0002:0000cf20       ??_C@_1BO@MDBOACOJ@?$AAe?$AA?9?$AA?$DO?$AAe?$AAy?$AA?5?$AA?$DO?$AA?$DN?$AA?5?$AAy?$AA_?$AAt?$AAo?$AAp@ 00000001400aaf20     imgui_draw.obj
 0002:0000cf40       ??_C@_1EI@KOIFPDFH@?$AAe?$AA?9?$AA?$DO?$AAs?$AAy?$AA?5?$AA?$DM?$AA?$DN?$AA?5?$AAy?$AA_?$AAb?$AAo?$AAt?$AAt@ 00000001400aaf40     imgui_draw.obj
 0002:0000cf88       ??_C@_1CE@GDDDMDCC@?$AAx?$AA?5?$AA?$DO?$AA?$DN?$AA?5?$AA0?$AA?5?$AA?$CG?$AA?$CG?$AA?5?$AAx?$AA?5?$AA?$DM?$AA?5?$AAl@ 00000001400aaf88     imgui_draw.obj
 0002:0000cfb0       ??_C@_1CM@OJNMKDLP@?$AAI?$AAm?$AAF?$AAa?$AAb?$AAs?$AA?$CI?$AAa?$AAr?$AAe?$AAa?$AA?$CJ?$AA?5?$AA?$DM?$AA?$DN@ 00000001400aafb0     imgui_draw.obj
 0002:0000cfe0       ??_C@_1BK@LMAHJHLI@?$AAz?$AA?9?$AA?$DO?$AAd?$AAi?$AAr?$AAe?$AAc?$AAt?$AAi?$AAo?$AAn@ 00000001400aafe0     imgui_draw.obj
 0002:0000d000       ??_C@_1CI@PMJHELI@?$AAz?$AA?9?$AA?$DO?$AAe?$AAy?$AA?5?$AA?$DO?$AA?$DN?$AA?5?$AAs?$AAc?$AAa?$AAn?$AA_?$AAy@ 00000001400ab000     imgui_draw.obj
 0002:0000d028       ??_C@_1BO@BDJAMAMF@?$AAp?$AAi?$AAx?$AAe?$AAl?$AAs?$AA?$FL?$AAi?$AA?$FN?$AA?5?$AA?$DN?$AA?$DN?$AA?5?$AA0@ 00000001400ab028     imgui_draw.obj
 0002:0000d048       ??_C@_1DO@LAPBLJ@?$AAp?$AAi?$AAx?$AAe?$AAl?$AAs?$AA?$FL?$AAi?$AA?$CK?$AAs?$AAt?$AAr?$AAi?$AAd?$AAe@ 00000001400ab048     imgui_draw.obj
 0002:0000d090       ??_C@_1GI@NOFPOLHJ@?$AAC?$AA?3?$AA?2?$AAU?$AAs?$AAe?$AAr?$AAs?$AA?2?$AAp?$AAw?$AAn?$AA?2?$AAD?$AAe@ 00000001400ab090     imgui_draw.obj
 0002:0000d100       ??_C@_1LC@MAEAJCLC@?$AAd?$AAr?$AAa?$AAw?$AA_?$AAc?$AAm?$AAd?$AA?4?$AAC?$AAl?$AAi?$AAp?$AAR?$AAe@ 00000001400ab100     imgui_draw.obj
 0002:0000d1b8       ??_C@_1DA@MJAOFGMF@?$AA_?$AAC?$AAl?$AAi?$AAp?$AAR?$AAe?$AAc?$AAt?$AAS?$AAt?$AAa?$AAc?$AAk?$AA?4@ 00000001400ab1b8     imgui_draw.obj
 0002:0000d1e8       ??_C@_1DC@CKLENJON@?$AA_?$AAT?$AAe?$AAx?$AAt?$AAu?$AAr?$AAe?$AAI?$AAd?$AAS?$AAt?$AAa?$AAc?$AAk@ 00000001400ab1e8     imgui_draw.obj
 0002:0000d220       ??_C@_1GM@DGBHKFGF@?$AAf?$AAo?$AAn?$AAt?$AA?9?$AA?$DO?$AAC?$AAo?$AAn?$AAt?$AAa?$AAi?$AAn?$AAe?$AAr@ 00000001400ab220     imgui_draw.obj
 0002:0000d290       ??_C@_1DC@ILGGLBID@?$AAi?$AAd?$AAx?$AA?5?$AA?$DO?$AA?$DN?$AA?5?$AA0?$AA?5?$AA?$CG?$AA?$CG?$AA?5?$AAi?$AAd?$AAx@ 00000001400ab290     imgui_draw.obj
 0002:0000d2d0       ??_C@_1LE@PGHOGCJ@?$AA?$CB?$AAL?$AAo?$AAc?$AAk?$AAe?$AAd?$AA?5?$AA?$CG?$AA?$CG?$AA?5?$AA?$CC?$AAC?$AAa?$AAn@ 00000001400ab2d0     imgui_draw.obj
 0002:0000d390       ??_C@_1GM@FAHJAOLI@?$AAf?$AAo?$AAn?$AAt?$AA_?$AAc?$AAf?$AAg?$AA?9?$AA?$DO?$AAF?$AAo?$AAn?$AAt?$AAD@ 00000001400ab390     imgui_draw.obj
 0002:0000d400       ??_C@_1DI@LEOIHPJH@?$AAf?$AAo?$AAn?$AAt?$AA_?$AAc?$AAf?$AAg?$AA?9?$AA?$DO?$AAS?$AAi?$AAz?$AAe?$AAP@ 00000001400ab400     imgui_draw.obj
 0002:0000d440       ??_C@_1HI@KOOOLAEJ@?$AA?$CB?$AAF?$AAo?$AAn?$AAt?$AAs?$AA?4?$AAe?$AAm?$AAp?$AAt?$AAy?$AA?$CI?$AA?$CJ?$AA?5@ 00000001400ab440     imgui_draw.obj
 0002:0000d4b8       ??_C@_0BG@CONABPA@ProggyClean?4ttf?0?5?$CFdpx@ 00000001400ab4b8     imgui_draw.obj
 0002:0000d4d0       ??_C@_1EG@KCPDJPKE@?$AA?$CI?$AA0?$AA?$CJ?$AA?5?$AA?$CG?$AA?$CG?$AA?5?$AA?$CC?$AAC?$AAo?$AAu?$AAl?$AAd?$AA?5?$AAn@ 00000001400ab4d0     imgui_draw.obj
 0002:0000d518       ??_C@_0L@EPCGLJHG@?$CFs?0?5?$CF?40fpx@ 00000001400ab518     imgui_draw.obj
 0002:0000d528       ??_C@_1CO@ODFMNMML@?$AAf?$AAo?$AAn?$AAt?$AA_?$AAc?$AAf?$AAg?$AA?4?$AAF?$AAo?$AAn?$AAt?$AAD?$AAa@ 00000001400ab528     imgui_draw.obj
 0002:0000d558       ??_C@_1DK@GHLOFHKF@?$AAw?$AAi?$AAd?$AAt?$AAh?$AA?5?$AA?$DO?$AA?5?$AA0?$AA?5?$AA?$CG?$AA?$CG?$AA?5?$AAw?$AAi@ 00000001400ab558     imgui_draw.obj
 0002:0000d598       ??_C@_1DO@CAIIJEKF@?$AAh?$AAe?$AAi?$AAg?$AAh?$AAt?$AA?5?$AA?$DO?$AA?5?$AA0?$AA?5?$AA?$CG?$AA?$CG?$AA?5?$AAh@ 00000001400ab598     imgui_draw.obj
 0002:0000d5d8       ??_C@_1DM@CMBJAGBP@?$AAT?$AAe?$AAx?$AAW?$AAi?$AAd?$AAt?$AAh?$AA?5?$AA?$DO?$AA?5?$AA0?$AA?5?$AA?$CG?$AA?$CG@ 00000001400ab5d8     imgui_draw.obj
 0002:0000d618       ??_C@_1CC@DEJIAPCP@?$AAr?$AAe?$AAc?$AAt?$AA?9?$AA?$DO?$AAI?$AAs?$AAP?$AAa?$AAc?$AAk?$AAe?$AAd?$AA?$CI@ 00000001400ab618     imgui_draw.obj
 0002:0000d640       ??_C@_1CO@OOJMDEAG@?$AAC?$AAu?$AAs?$AAt?$AAo?$AAm?$AAR?$AAe?$AAc?$AAt?$AAI?$AAd?$AAs?$AA?$FL?$AA0@ 00000001400ab640     imgui_draw.obj
 0002:0000d670       ??_C@_1EO@NGCKHELE@?$AAr?$AA?4?$AAI?$AAD?$AA?5?$AA?$DN?$AA?$DN?$AA?5?$AAF?$AAO?$AAN?$AAT?$AA_?$AAA?$AAT@ 00000001400ab670     imgui_draw.obj
 0002:0000d6c0       ??_C@_1DG@BBHAKCJP@?$AAa?$AAt?$AAl?$AAa?$AAs?$AA?9?$AA?$DO?$AAC?$AAo?$AAn?$AAf?$AAi?$AAg?$AAD?$AAa@ 00000001400ab6c0     imgui_draw.obj
 0002:0000d700       ??_C@_1KE@NPGLPIC@?$AAc?$AAf?$AAg?$AA?4?$AAD?$AAs?$AAt?$AAF?$AAo?$AAn?$AAt?$AA?5?$AA?$CG?$AA?$CG?$AA?5@ 00000001400ab700     imgui_draw.obj
 0002:0000d7a8       ??_C@_1CO@NKKOCLPN@?$AAs?$AAr?$AAc?$AA_?$AAt?$AAm?$AAp?$AA?4?$AAD?$AAs?$AAt?$AAI?$AAn?$AAd?$AAe@ 00000001400ab7a8     imgui_draw.obj
 0002:0000d7e0       ??_C@_1JA@MENENCJI@?$AAf?$AAo?$AAn?$AAt?$AA_?$AAo?$AAf?$AAf?$AAs?$AAe?$AAt?$AA?5?$AA?$DO?$AA?$DN?$AA?5@ 00000001400ab7e0     imgui_draw.obj
 0002:0000d870       ??_C@_1FO@GJGKHCEN@?$AAs?$AAr?$AAc?$AA_?$AAt?$AAm?$AAp?$AA?4?$AAG?$AAl?$AAy?$AAp?$AAh?$AAs?$AAL@ 00000001400ab870     imgui_draw.obj
 0002:0000d8d0       ??_C@_1DC@ENBGOGEF@?$AAg?$AAl?$AAy?$AAp?$AAh?$AA_?$AAi?$AAn?$AAd?$AAe?$AAx?$AA_?$AAi?$AAn?$AA_@ 00000001400ab8d0     imgui_draw.obj
 0002:0000d908       ??_C@_1CE@FMMHMDCM@?$AAp?$AAa?$AAc?$AAk?$AA_?$AAc?$AAo?$AAn?$AAt?$AAe?$AAx?$AAt?$AA?5?$AA?$CB?$AA?$DN@ 00000001400ab908     imgui_draw.obj
 0002:0000d930       ??_C@_1CK@POMOOFJC@?$AAu?$AAs?$AAe?$AAr?$AA_?$AAr?$AAe?$AAc?$AAt?$AAs?$AA?4?$AAS?$AAi?$AAz?$AAe@ 00000001400ab930     imgui_draw.obj
 0002:0000d960       ??_C@_1KE@CBAIECN@?$AAp?$AAa?$AAc?$AAk?$AA_?$AAr?$AAe?$AAc?$AAt?$AAs?$AA?$FL?$AAi?$AA?$FN?$AA?4?$AAw@ 00000001400ab960     imgui_draw.obj
 0002:0000da08       ??_C@_1DK@CIPOCJML@?$AAa?$AAt?$AAl?$AAa?$AAs?$AA?9?$AA?$DO?$AAC?$AAu?$AAs?$AAt?$AAo?$AAm?$AAR?$AAe@ 00000001400aba08     imgui_draw.obj
 0002:0000da48       ??_C@_1DI@LKIOFBD@?$AAa?$AAt?$AAl?$AAa?$AAs?$AA?9?$AA?$DO?$AAT?$AAe?$AAx?$AAP?$AAi?$AAx?$AAe?$AAl@ 00000001400aba48     imgui_draw.obj
 0002:0000da80       ??_C@_1BK@MDHNDFCJ@?$AAr?$AA?4?$AAI?$AAs?$AAP?$AAa?$AAc?$AAk?$AAe?$AAd?$AA?$CI?$AA?$CJ@ 00000001400aba80     imgui_draw.obj
 0002:0000daa0       ??_C@_1MG@KMJKJDJG@?$AAr?$AA?4?$AAW?$AAi?$AAd?$AAt?$AAh?$AA?5?$AA?$DN?$AA?$DN?$AA?5?$AAF?$AAO?$AAN?$AAT@ 00000001400abaa0     imgui_draw.obj
 0002:0000db68       ??_C@_1DM@OOPIKMMI@?$AAr?$AA?4?$AAW?$AAi?$AAd?$AAt?$AAh?$AA?5?$AA?$DN?$AA?$DN?$AA?5?$AA2?$AA?5?$AA?$CG?$AA?$CG@ 00000001400abb68     imgui_draw.obj
 0002:0000dbb0       ??_C@_1EA@GJDLMPMC@?$AAr?$AA?4?$AAF?$AAo?$AAn?$AAt?$AA?9?$AA?$DO?$AAC?$AAo?$AAn?$AAt?$AAa?$AAi?$AAn@ 00000001400abbb0     imgui_draw.obj
 0002:0000dbf0       ??_C@_1CK@FHBHHKB@?$AAG?$AAl?$AAy?$AAp?$AAh?$AAs?$AA?4?$AAS?$AAi?$AAz?$AAe?$AA?5?$AA?$DM?$AA?5?$AA0@ 00000001400abbf0     imgui_draw.obj
 0002:0000dc20       ??_C@_1EO@HLFAHELG@?$AAI?$AAn?$AAd?$AAe?$AAx?$AAA?$AAd?$AAv?$AAa?$AAn?$AAc?$AAe?$AAX?$AA?4?$AAS@ 00000001400abc20     imgui_draw.obj
 0002:0000dc70       ??_C@_1JM@LKKCKIOL@?$AAm?$AAo?$AAu?$AAs?$AAe?$AA_?$AAc?$AAu?$AAr?$AAs?$AAo?$AAr?$AA?5?$AA?$DO?$AA?5@ 00000001400abc70     imgui_draw.obj
 0002:0000dd10       ??_C@_1FC@IADGHEAH@?$AAs?$AAt?$AAb?$AA_?$AA_?$AAd?$AAo?$AAu?$AAt?$AA?5?$AA?$CL?$AA?5?$AAl?$AAe?$AAn@ 00000001400abd10     imgui_draw.obj
 0002:0000dd68       ??_C@_1DG@GCANDLHA@?$AAs?$AAt?$AAb?$AA_?$AA_?$AAd?$AAo?$AAu?$AAt?$AA?5?$AA?$DN?$AA?$DN?$AA?5?$AAo?$AAu@ 00000001400abd68     imgui_draw.obj
 0002:0000dda0       ??_C@_1DG@EGIPGKEG@?$AAs?$AAt?$AAb?$AA_?$AA_?$AAd?$AAo?$AAu?$AAt?$AA?5?$AA?$DM?$AA?$DN?$AA?5?$AAo?$AAu@ 00000001400abda0     imgui_draw.obj
 0002:0000dde0       ??_C@_1BC@IIGHOJGM@?$AAi?$AAd?$AAx?$AA?5?$AA?$DM?$AA?$DN?$AA?5?$AA1@ 00000001400abde0     imgui_widgets.obj
 0002:0000de00       ??_C@_1GO@PFCABDPP@?$AAC?$AA?3?$AA?2?$AAU?$AAs?$AAe?$AAr?$AAs?$AA?2?$AAp?$AAw?$AAn?$AA?2?$AAD?$AAe@ 00000001400abe00     imgui_widgets.obj
 0002:0000de70       ??_C@_1BE@HMGDGFIB@?$AAt?$AAe?$AAx?$AAt?$AA?5?$AA?$CB?$AA?$DN?$AA?5?$AA0@ 00000001400abe70     imgui_widgets.obj
 0002:0000de90       ??_C@_1FC@KJEAANOI@?$AAs?$AAi?$AAz?$AAe?$AA_?$AAa?$AAr?$AAg?$AA?4?$AAx?$AA?5?$AA?$CB?$AA?$DN?$AA?5?$AA0@ 00000001400abe90     imgui_widgets.obj
 0002:0000dee8       ??_C@_08ENAFOMOP@?$CDSCROLLX@ 00000001400abee8     imgui_widgets.obj
 0002:0000def8       ??_C@_08FEBONNKO@?$CDSCROLLY@ 00000001400abef8     imgui_widgets.obj
 0002:0000df10       ??_C@_1FI@OFJDJLOI@?$AAI?$AAm?$AAM?$AAa?$AAx?$AA?$CI?$AAs?$AAi?$AAz?$AAe?$AA_?$AAc?$AAo?$AAn?$AAt@ 00000001400abf10     imgui_widgets.obj
 0002:0000df68       ??_C@_1CM@GFPJIOBE@?$AAs?$AAc?$AAr?$AAo?$AAl?$AAl?$AAb?$AAa?$AAr?$AA_?$AAs?$AAi?$AAz?$AAe?$AA?5@ 00000001400abf68     imgui_widgets.obj
 0002:0000df94       ??_C@_03JHEALCLB@?$FLx?$FN@ 00000001400abf94     imgui_widgets.obj
 0002:0000df98       ??_C@_03PFOPMNLJ@?$FL?5?$FN@ 00000001400abf98     imgui_widgets.obj
 0002:0000df9c       ??_C@_03KFJJABDB@?$CIx?$CJ@ 00000001400abf9c     imgui_widgets.obj
 0002:0000dfa0       ??_C@_03MHDGHODJ@?$CI?5?$CJ@ 00000001400abfa0     imgui_widgets.obj
 0002:0000dfb0       ??_C@_1LA@FPPCKOP@?$AAI?$AAm?$AAI?$AAs?$AAP?$AAo?$AAw?$AAe?$AAr?$AAO?$AAf?$AAT?$AAw?$AAo?$AA?$CI@ 00000001400abfb0     imgui_widgets.obj
 0002:0000e060       ??_C@_02LLHJFGPH@?5?$HM@   00000001400ac060     imgui_widgets.obj
 0002:0000e068       ??_C@_0CB@GNHPAIID@?9?9?9?9?9?9?9?9?9?9?9?9?9?9?9?9?9?9?9?9?9?9?9?9?9?9?9?9?9?9?9@ 00000001400ac068     imgui_widgets.obj
 0002:0000e090       ??_C@_0N@JOGGDHMO@?$CD?$CDCombo_?$CF02d@ 00000001400ac090     imgui_widgets.obj
 0002:0000e0a0       ??_C@_0P@HFPOEILF@?$CKUnknown?5item?$CK@ 00000001400ac0a0     imgui_widgets.obj
 0002:0000e0b0       ??_C@_05OINFJHGD@?$CFI64u@ 00000001400ac0b0     imgui_widgets.obj
 0002:0000e0b8       ??_C@_03DLDNIBIK@?$CFlf@   00000001400ac0b8     imgui_widgets.obj
 0002:0000e0c0       ??_C@_09JKJEEIJP@?$CF?4?$CKs?$CF?$CFd?$CFs@ 00000001400ac0c0     imgui_widgets.obj
 0002:0000e0d0       ??_C@_1GE@PMGCKKHF@?$AAd?$AAa?$AAt?$AAa?$AA_?$AAt?$AAy?$AAp?$AAe?$AA?5?$AA?$DO?$AA?$DN?$AA?5?$AA0?$AA?5@ 00000001400ac0d0     imgui_widgets.obj
 0002:0000e138       ??_C@_1CO@LEDHMGOL@?$AAo?$AAp?$AA?5?$AA?$DN?$AA?$DN?$AA?5?$AA?8?$AA?$CL?$AA?8?$AA?5?$AA?$HM?$AA?$HM?$AA?5?$AAo?$AAp@ 00000001400ac138     imgui_widgets.obj
 0002:0000e170       ??_C@_1EA@ILBKEPMO@?$AAd?$AAa?$AAt?$AAa?$AA_?$AAt?$AAy?$AAp?$AAe?$AA?5?$AA?$DM?$AA?5?$AAI?$AAm?$AAG@ 00000001400ac170     imgui_widgets.obj
 0002:0000e1b0       ??_C@_1EO@OEMFLDEM@?$AAt?$AAy?$AAp?$AAe?$AA_?$AAi?$AAn?$AAf?$AAo?$AA?9?$AA?$DO?$AAS?$AAi?$AAz?$AAe@ 00000001400ac1b0     imgui_widgets.obj
 0002:0000e200       ??_C@_1DC@IAANKGPJ@?$AAp?$AA_?$AAm?$AAi?$AAn?$AA?5?$AA?$CB?$AA?$DN?$AA?5?$AA0?$AA?5?$AA?$CG?$AA?$CG?$AA?5?$AAp@ 00000001400ac200     imgui_widgets.obj
 0002:0000e240       ??_C@_1JK@KBPJHMJO@?$AA?$CK?$AA?$CI?$AAc?$AAo?$AAn?$AAs?$AAt?$AA?5?$AAI?$AAm?$AAS?$AA3?$AA2?$AA?$CK?$AA?$CJ@ 00000001400ac240     imgui_widgets.obj
 0002:0000e2e0       ??_C@_1CC@LLIJAMKA@?$AAg?$AA?4?$AAA?$AAc?$AAt?$AAi?$AAv?$AAe?$AAI?$AAd?$AA?5?$AA?$DN?$AA?$DN?$AA?5?$AAi@ 00000001400ac2e0     imgui_widgets.obj
 0002:0000e304       ??_C@_01JOAMLHOP@?9@       00000001400ac304     imgui_widgets.obj
 0002:0000e308       ??_C@_01MIFGBAGJ@?$CL@     00000001400ac308     imgui_widgets.obj
 0002:0000e310       ??_C@_1FC@IFNBIILP@?$AA?$CB?$AA?$CI?$AAf?$AAl?$AAa?$AAg?$AAs?$AA?5?$AA?$CG?$AA?5?$AAI?$AAm?$AAG?$AAu?$AAi@ 00000001400ac310     imgui_widgets.obj
 0002:0000e368       ??_C@_1CA@MNHDBBDP@?$AAp?$AAo?$AAs?$AA?5?$AA?$DM?$AA?$DN?$AA?5?$AAt?$AAe?$AAx?$AAt?$AA_?$AAl?$AAe?$AAn@ 00000001400ac368     imgui_widgets.obj
 0002:0000e388       ??_C@_1DG@IEAPMEMO@?$AAt?$AAe?$AAx?$AAt?$AA_?$AAl?$AAe?$AAn?$AA?5?$AA?$DM?$AA?5?$AAo?$AAb?$AAj?$AA?9@ 00000001400ac388     imgui_widgets.obj
 0002:0000e3c0       ??_C@_1GM@HJKNGOHF@?$AAC?$AA?3?$AA?2?$AAU?$AAs?$AAe?$AAr?$AAs?$AA?2?$AAp?$AAw?$AAn?$AA?2?$AAD?$AAe@ 00000001400ac3c0     imgui_widgets.obj
 0002:0000e430       ??_C@_1HI@OHEJKGLD@?$AA?$CI?$AA?$CI?$AAc?$AAh?$AAa?$AAr?$AA?$CK?$AA?$CJ?$AA?$CI?$AAs?$AAt?$AAa?$AAt?$AAe?$AA?9@ 00000001400ac430     imgui_widgets.obj
 0002:0000e4b0       ??_C@_1JE@JEJNCKKO@?$AA?$CI?$AA?$CI?$AAc?$AAh?$AAa?$AAr?$AA?$CK?$AA?$CJ?$AA?$CI?$AAs?$AAt?$AAa?$AAt?$AAe?$AA?9@ 00000001400ac4b0     imgui_widgets.obj
 0002:0000e550       ??_C@_1LI@BDNHGOFF@?$AA?$CB?$AA?$CI?$AA?$CI?$AAf?$AAl?$AAa?$AAg?$AAs?$AA?5?$AA?$CG?$AA?5?$AAI?$AAm?$AAG?$AAu@ 00000001400ac550     imgui_widgets.obj
 0002:0000e610       ??_C@_1MG@MGOPIKJM@?$AA?$CB?$AA?$CI?$AA?$CI?$AAf?$AAl?$AAa?$AAg?$AAs?$AA?5?$AA?$CG?$AA?5?$AAI?$AAm?$AAG?$AAu@ 00000001400ac610     imgui_widgets.obj
 0002:0000e6d8       ??_C@_1BM@CBGPMFEC@?$AAc?$AAa?$AAl?$AAl?$AAb?$AAa?$AAc?$AAk?$AA?5?$AA?$CB?$AA?$DN?$AA?5?$AA0@ 00000001400ac6d8     imgui_widgets.obj
 0002:0000e6f8       ??_C@_1DC@CMKEKNGP@?$AAs?$AAt?$AAa?$AAt?$AAe?$AA?5?$AA?$CG?$AA?$CG?$AA?5?$AAs?$AAt?$AAa?$AAt?$AAe?$AA?9@ 00000001400ac6f8     imgui_widgets.obj
 0002:0000e730       ??_C@_1NI@EFFIGGBI@?$AAp?$AAa?$AAs?$AAs?$AAw?$AAo?$AAr?$AAd?$AA_?$AAf?$AAo?$AAn?$AAt?$AA?9?$AA?$DO@ 00000001400ac730     imgui_widgets.obj
 0002:0000e808       ??_C@_1BG@FOPGMADN@?$AAs?$AAt?$AAa?$AAt?$AAe?$AA?5?$AA?$CB?$AA?$DN?$AA?5?$AA0@ 00000001400ac808     imgui_widgets.obj
 0002:0000e820       ??_C@_1EO@GEAEFBFI@?$AAc?$AAa?$AAl?$AAl?$AAb?$AAa?$AAc?$AAk?$AA_?$AAd?$AAa?$AAt?$AAa?$AA?4?$AAB@ 00000001400ac820     imgui_widgets.obj
 0002:0000e870       ??_C@_1FK@GDPCIOA@?$AAc?$AAa?$AAl?$AAl?$AAb?$AAa?$AAc?$AAk?$AA_?$AAd?$AAa?$AAt?$AAa?$AA?4?$AAB@ 00000001400ac870     imgui_widgets.obj
 0002:0000e8d0       ??_C@_1DK@HOPDKFNI@?$AAc?$AAa?$AAl?$AAl?$AAb?$AAa?$AAc?$AAk?$AA_?$AAd?$AAa?$AAt?$AAa?$AA?4?$AAF@ 00000001400ac8d0     imgui_widgets.obj
 0002:0000e910       ??_C@_1HG@EHLBBEIB@?$AAc?$AAa?$AAl?$AAl?$AAb?$AAa?$AAc?$AAk?$AA_?$AAd?$AAa?$AAt?$AAa?$AA?4?$AAB@ 00000001400ac910     imgui_widgets.obj
 0002:0000e988       ??_C@_1DG@CHDFECEK@?$AAa?$AAp?$AAp?$AAl?$AAy?$AA_?$AAn?$AAe?$AAw?$AA_?$AAt?$AAe?$AAx?$AAt?$AA_@ 00000001400ac988     imgui_widgets.obj
 0002:0000e9c0       ??_C@_1EE@MOOHJKEO@?$AAa?$AAp?$AAp?$AAl?$AAy?$AA_?$AAn?$AAe?$AAw?$AA_?$AAt?$AAe?$AAx?$AAt?$AA_@ 00000001400ac9c0     imgui_widgets.obj
 0002:0000ea04       ??_C@_03CEFFAPNG@?$CD?$CDX@ 00000001400aca04     imgui_widgets.obj
 0002:0000ea08       ??_C@_03DNEODOJH@?$CD?$CDY@ 00000001400aca08     imgui_widgets.obj
 0002:0000ea0c       ??_C@_03BGGDGNFE@?$CD?$CDZ@ 00000001400aca0c     imgui_widgets.obj
 0002:0000ea10       ??_C@_03KDMNBDBJ@?$CD?$CDW@ 00000001400aca10     imgui_widgets.obj
 0002:0000ea14       ??_C@_03GOOLIKIF@?$CF3d@   00000001400aca14     imgui_widgets.obj
 0002:0000ea18       ??_C@_05FELKPNOB@R?3?$CF3d@ 00000001400aca18     imgui_widgets.obj
 0002:0000ea20       ??_C@_05HKBGOMJ@G?3?$CF3d@ 00000001400aca20     imgui_widgets.obj
 0002:0000ea28       ??_C@_05FHGMPPHK@B?3?$CF3d@ 00000001400aca28     imgui_widgets.obj
 0002:0000ea30       ??_C@_05NBPIINNE@A?3?$CF3d@ 00000001400aca30     imgui_widgets.obj
 0002:0000ea38       ??_C@_05PGPHNMBM@H?3?$CF3d@ 00000001400aca38     imgui_widgets.obj
 0002:0000ea40       ??_C@_05JPOGCOEE@S?3?$CF3d@ 00000001400aca40     imgui_widgets.obj
 0002:0000ea48       ??_C@_05MPCLLPPH@V?3?$CF3d@ 00000001400aca48     imgui_widgets.obj
 0002:0000ea50       ??_C@_05ONBKDNLK@?$CF0?43f@ 00000001400aca50     imgui_widgets.obj
 0002:0000ea58       ??_C@_07CCOKENNH@R?3?$CF0?43f@ 00000001400aca58     imgui_widgets.obj
 0002:0000ea60       ??_C@_07BGLBHCJI@G?3?$CF0?43f@ 00000001400aca60     imgui_widgets.obj
 0002:0000ea68       ??_C@_07FOFBHMPM@B?3?$CF0?43f@ 00000001400aca68     imgui_widgets.obj
 0002:0000ea70       ??_C@_07NANOHLBP@A?3?$CF0?43f@ 00000001400aca70     imgui_widgets.obj
 0002:0000ea78       ??_C@_07MPJBGADE@H?3?$CF0?43f@ 00000001400aca78     imgui_widgets.obj
 0002:0000ea80       ??_C@_07OOEAENEJ@S?3?$CF0?43f@ 00000001400aca80     imgui_widgets.obj
 0002:0000ea88       ??_C@_07KGKAEDCN@V?3?$CF0?43f@ 00000001400aca88     imgui_widgets.obj
 0002:0000ea90       ??_C@_1HC@IFIJNDDD@?$AAI?$AAm?$AAI?$AAs?$AAP?$AAo?$AAw?$AAe?$AAr?$AAO?$AAf?$AAT?$AAw?$AAo?$AA?$CI@ 00000001400aca90     imgui_widgets.obj
 0002:0000eb10       ??_C@_1GO@CDHIBPHM@?$AAI?$AAm?$AAI?$AAs?$AAP?$AAo?$AAw?$AAe?$AAr?$AAO?$AAf?$AAT?$AAw?$AAo?$AA?$CI@ 00000001400acb10     imgui_widgets.obj
 0002:0000eb80       ??_C@_07FFNLLALM@M?30?4000@ 00000001400acb80     imgui_widgets.obj
 0002:0000eb88       ??_C@_05BNGMMMAL@M?3000@   00000001400acb88     imgui_widgets.obj
 0002:0000eb90       ??_C@_07JKKCBBMM@context@  00000001400acb90     imgui_widgets.obj
 0002:0000eb98       ??_C@_0BC@CKPCOFBK@?$CD?$CF02X?$CF02X?$CF02X?$CF02X@ 00000001400acb98     imgui_widgets.obj
 0002:0000ebb0       ??_C@_0O@MBPBDFLP@?$CD?$CF02X?$CF02X?$CF02X@ 00000001400acbb0     imgui_widgets.obj
 0002:0000ebc0       ??_C@_06MNCEJPDI@?$CD?$CDText@ 00000001400acbc0     imgui_widgets.obj
 0002:0000ebc8       ??_C@_0BB@DDMGLOLI@?$CF02X?$CF02X?$CF02X?$CF02X@ 00000001400acbc8     imgui_widgets.obj
 0002:0000ebe0       ??_C@_0N@KODLFHPJ@?$CF02X?$CF02X?$CF02X@ 00000001400acbe0     imgui_widgets.obj
 0002:0000ebf0       ??_C@_0O@GLNBIEEK@?$CD?$CDColorButton@ 00000001400acbf0     imgui_widgets.obj
 0002:0000ec00       ??_C@_06MAKAMBBI@picker@   00000001400acc00     imgui_widgets.obj
 0002:0000ec10       ??_C@_1HA@IEGAFBEB@?$AAI?$AAm?$AAI?$AAs?$AAP?$AAo?$AAw?$AAe?$AAr?$AAO?$AAf?$AAT?$AAw?$AAo?$AA?$CI@ 00000001400acc10     imgui_widgets.obj
 0002:0000ec80       ??_C@_03PPLPHHG@hsv@       00000001400acc80     imgui_widgets.obj
 0002:0000ec84       ??_C@_02CPGMCOJE@sv@       00000001400acc84     imgui_widgets.obj
 0002:0000ec88       ??_C@_03GKJJMKFG@hue@      00000001400acc88     imgui_widgets.obj
 0002:0000ec8c       ??_C@_05IAEKHIAN@alpha@    00000001400acc8c     imgui_widgets.obj
 0002:0000ec98       ??_C@_08DCPBJHAO@Original@ 00000001400acc98     imgui_widgets.obj
 0002:0000eca8       ??_C@_0L@IGJKOBOK@?$CD?$CDoriginal@ 00000001400acca8     imgui_widgets.obj
 0002:0000ecb4       ??_C@_05JCABMAIH@?$CD?$CDrgb@ 00000001400accb4     imgui_widgets.obj
 0002:0000ecbc       ??_C@_05JICEKLIF@?$CD?$CDhsv@ 00000001400accbc     imgui_widgets.obj
 0002:0000ecc4       ??_C@_05BOAMFJMJ@?$CD?$CDhex@ 00000001400accc4     imgui_widgets.obj
 0002:0000ecd0       ??_C@_0L@KCOHFILK@VK_LBUTTON@ 00000001400accd0     imgui_widgets.obj
 0002:0000ece0       ??_C@_0L@MLNGHLKD@VK_RBUTTON@ 00000001400acce0     imgui_widgets.obj
 0002:0000ecf0       ??_C@_09INKGPFMC@VK_CANCEL@ 00000001400accf0     imgui_widgets.obj
 0002:0000ed00       ??_C@_0L@GOENFICE@VK_MBUTTON@ 00000001400acd00     imgui_widgets.obj
 0002:0000ed10       ??_C@_0M@BMGHKJAF@VK_XBUTTON1@ 00000001400acd10     imgui_widgets.obj
 0002:0000ed20       ??_C@_0M@DHEKPKMG@VK_XBUTTON2@ 00000001400acd20     imgui_widgets.obj
 0002:0000ed30       ??_C@_07NCIKNAFA@VK_BACK@  00000001400acd30     imgui_widgets.obj
 0002:0000ed38       ??_C@_06KDCAMDM@VK_TAB@    00000001400acd38     imgui_widgets.obj
 0002:0000ed40       ??_C@_08PIAECJOM@VK_CLEAR@ 00000001400acd40     imgui_widgets.obj
 0002:0000ed50       ??_C@_09KDODHALJ@VK_RETURN@ 00000001400acd50     imgui_widgets.obj
 0002:0000ed60       ??_C@_08BHJBIDAM@VK_SHIFT@ 00000001400acd60     imgui_widgets.obj
 0002:0000ed70       ??_C@_0L@GEFMOENA@VK_CONTROL@ 00000001400acd70     imgui_widgets.obj
 0002:0000ed80       ??_C@_07DCBHMFK@VK_MENU@   00000001400acd80     imgui_widgets.obj
 0002:0000ed88       ??_C@_08MPOODJHP@VK_PAUSE@ 00000001400acd88     imgui_widgets.obj
 0002:0000ed98       ??_C@_0L@LKDKNNID@VK_CAPITAL@ 00000001400acd98     imgui_widgets.obj
 0002:0000eda8       ??_C@_07CNKNMJPI@VK_KANA@  00000001400acda8     imgui_widgets.obj
 0002:0000edb0       ??_C@_08IEAKEKF@VK_JUNJA@  00000001400acdb0     imgui_widgets.obj
 0002:0000edc0       ??_C@_08GDGJIPPB@VK_FINAL@ 00000001400acdc0     imgui_widgets.obj
 0002:0000edd0       ??_C@_08JOKFMMEK@VK_KANJI@ 00000001400acdd0     imgui_widgets.obj
 0002:0000ede0       ??_C@_09DJNOLFIA@VK_ESCAPE@ 00000001400acde0     imgui_widgets.obj
 0002:0000edf0       ??_C@_0L@EFLHHAOM@VK_CONVERT@ 00000001400acdf0     imgui_widgets.obj
 0002:0000ee00       ??_C@_0O@JCIMAAFP@VK_NONCONVERT@ 00000001400ace00     imgui_widgets.obj
 0002:0000ee10       ??_C@_09BCPMCHEP@VK_ACCEPT@ 00000001400ace10     imgui_widgets.obj
 0002:0000ee20       ??_C@_0O@FCDOCDG@VK_MODECHANGE@ 00000001400ace20     imgui_widgets.obj
 0002:0000ee30       ??_C@_08NHKHJGFL@VK_SPACE@ 00000001400ace30     imgui_widgets.obj
 0002:0000ee40       ??_C@_08OCNOOCII@VK_PRIOR@ 00000001400ace40     imgui_widgets.obj
 0002:0000ee50       ??_C@_07EFDBOIAJ@VK_NEXT@  00000001400ace50     imgui_widgets.obj
 0002:0000ee58       ??_C@_06LPJBNMHN@VK_END@   00000001400ace58     imgui_widgets.obj
 0002:0000ee60       ??_C@_07OMPILPEG@VK_HOME@  00000001400ace60     imgui_widgets.obj
 0002:0000ee68       ??_C@_07CJEJDFBD@VK_LEFT@  00000001400ace68     imgui_widgets.obj
 0002:0000ee70       ??_C@_05PIGLHCBF@VK_UP@    00000001400ace70     imgui_widgets.obj
 0002:0000ee78       ??_C@_08LOMCDCA@VK_RIGHT@  00000001400ace78     imgui_widgets.obj
 0002:0000ee88       ??_C@_07NLENKNCK@VK_DOWN@  00000001400ace88     imgui_widgets.obj
 0002:0000ee90       ??_C@_09KINEMDEN@VK_SELECT@ 00000001400ace90     imgui_widgets.obj
 0002:0000eea0       ??_C@_08LFEGCPDJ@VK_PRINT@ 00000001400acea0     imgui_widgets.obj
 0002:0000eeb0       ??_C@_0L@OECLDLCH@VK_EXECUTE@ 00000001400aceb0     imgui_widgets.obj
 0002:0000eec0       ??_C@_0M@PHCCMJCA@VK_SNAPSHOT@ 00000001400acec0     imgui_widgets.obj
 0002:0000eed0       ??_C@_09POOJDJBK@VK_INSERT@ 00000001400aced0     imgui_widgets.obj
 0002:0000eee0       ??_C@_09EABNPHOI@VK_DELETE@ 00000001400acee0     imgui_widgets.obj
 0002:0000eef0       ??_C@_07LFDCNDAB@VK_HELP@  00000001400acef0     imgui_widgets.obj
 0002:0000eef8       ??_C@_01GBGANLPD@0@        00000001400acef8     imgui_widgets.obj
 0002:0000eefc       ??_C@_01FAMBOPH@4@         00000001400acefc     imgui_widgets.obj
 0002:0000ef00       ??_C@_01DHDKHMHF@6@        00000001400acf00     imgui_widgets.obj
 0002:0000ef04       ??_C@_01COCBENDE@7@        00000001400acf04     imgui_widgets.obj
 0002:0000ef08       ??_C@_01KJLJFBPL@8@        00000001400acf08     imgui_widgets.obj
 0002:0000ef0c       ??_C@_01LAKCGALK@9@        00000001400acf0c     imgui_widgets.obj
 0002:0000ef10       ??_C@_01GFHCPBMG@C@        00000001400acf10     imgui_widgets.obj
 0002:0000ef14       ??_C@_01CKDDGHAB@D@        00000001400acf14     imgui_widgets.obj
 0002:0000ef18       ??_C@_01DDCIFGEA@E@        00000001400acf18     imgui_widgets.obj
 0002:0000ef1c       ??_C@_01BIAFAFID@F@        00000001400acf1c     imgui_widgets.obj
 0002:0000ef20       ??_C@_01BBODEMC@G@         00000001400acf20     imgui_widgets.obj
 0002:0000ef24       ??_C@_01IGIGCIAN@H@        00000001400acf24     imgui_widgets.obj
 0002:0000ef28       ??_C@_01JPJNBJEM@I@        00000001400acf28     imgui_widgets.obj
 0002:0000ef2c       ??_C@_01LELAEKIP@J@        00000001400acf2c     imgui_widgets.obj
 0002:0000ef30       ??_C@_01KNKLHLMO@K@        00000001400acf30     imgui_widgets.obj
 0002:0000ef34       ??_C@_01OCOKONAJ@L@        00000001400acf34     imgui_widgets.obj
 0002:0000ef38       ??_C@_01PLPBNMEI@M@        00000001400acf38     imgui_widgets.obj
 0002:0000ef3c       ??_C@_01NANMIPIL@N@        00000001400acf3c     imgui_widgets.obj
 0002:0000ef40       ??_C@_01MJMHLOMK@O@        00000001400acf40     imgui_widgets.obj
 0002:0000ef44       ??_C@_01EJNLAFE@P@         00000001400acf44     imgui_widgets.obj
 0002:0000ef48       ??_C@_01BNIGIBBF@Q@        00000001400acf48     imgui_widgets.obj
 0002:0000ef4c       ??_C@_01DGKLNCNG@R@        00000001400acf4c     imgui_widgets.obj
 0002:0000ef50       ??_C@_01CPLAODJH@S@        00000001400acf50     imgui_widgets.obj
 0002:0000ef54       ??_C@_01GAPBHFFA@T@        00000001400acf54     imgui_widgets.obj
 0002:0000ef58       ??_C@_01HJOKEEBB@U@        00000001400acf58     imgui_widgets.obj
 0002:0000ef5c       ??_C@_01FCMHBHNC@V@        00000001400acf5c     imgui_widgets.obj
 0002:0000ef60       ??_C@_01ELNMCGJD@W@        00000001400acf60     imgui_widgets.obj
 0002:0000ef68       ??_C@_07GICIBHOB@VK_LWIN@  00000001400acf68     imgui_widgets.obj
 0002:0000ef70       ??_C@_07LHPIDOAC@VK_RWIN@  00000001400acf70     imgui_widgets.obj
 0002:0000ef78       ??_C@_07OBPEBPAK@VK_APPS@  00000001400acf78     imgui_widgets.obj
 0002:0000ef80       ??_C@_08MOONOBCJ@VK_SLEEP@ 00000001400acf80     imgui_widgets.obj
 0002:0000ef90       ??_C@_0L@ICJAMHIF@VK_NUMPAD0@ 00000001400acf90     imgui_widgets.obj
 0002:0000efa0       ??_C@_0L@JLILPGME@VK_NUMPAD1@ 00000001400acfa0     imgui_widgets.obj
 0002:0000efb0       ??_C@_0L@LAKGKFAH@VK_NUMPAD2@ 00000001400acfb0     imgui_widgets.obj
 0002:0000efc0       ??_C@_0L@KJLNJEEG@VK_NUMPAD3@ 00000001400acfc0     imgui_widgets.obj
 0002:0000efd0       ??_C@_0L@OGPMACIB@VK_NUMPAD4@ 00000001400acfd0     imgui_widgets.obj
 0002:0000efe0       ??_C@_0L@PPOHDDMA@VK_NUMPAD5@ 00000001400acfe0     imgui_widgets.obj
 0002:0000eff0       ??_C@_0L@NEMKGAAD@VK_NUMPAD6@ 00000001400acff0     imgui_widgets.obj
 0002:0000f000       ??_C@_0L@MNNBFBEC@VK_NUMPAD7@ 00000001400ad000     imgui_widgets.obj
 0002:0000f010       ??_C@_0L@EKEJENIN@VK_NUMPAD8@ 00000001400ad010     imgui_widgets.obj
 0002:0000f020       ??_C@_0L@FDFCHMMM@VK_NUMPAD9@ 00000001400ad020     imgui_widgets.obj
 0002:0000f030       ??_C@_0M@EAKCGOCP@VK_MULTIPLY@ 00000001400ad030     imgui_widgets.obj
 0002:0000f03c       ??_C@_06DNGEMOPM@VK_ADD@   00000001400ad03c     imgui_widgets.obj
 0002:0000f048       ??_C@_0N@BBNOCIBO@VK_SEPARATOR@ 00000001400ad048     imgui_widgets.obj
 0002:0000f058       ??_C@_0M@DFPICDII@VK_SUBTRACT@ 00000001400ad058     imgui_widgets.obj
 0002:0000f068       ??_C@_0L@OMODJIKJ@VK_DECIMAL@ 00000001400ad068     imgui_widgets.obj
 0002:0000f078       ??_C@_09ELHPKEHI@VK_DIVIDE@ 00000001400ad078     imgui_widgets.obj
 0002:0000f084       ??_C@_05JKONDFNK@VK_F1@    00000001400ad084     imgui_widgets.obj
 0002:0000f08c       ??_C@_05LBMAGGBJ@VK_F2@    00000001400ad08c     imgui_widgets.obj
 0002:0000f094       ??_C@_05KINLFHFI@VK_F3@    00000001400ad094     imgui_widgets.obj
 0002:0000f09c       ??_C@_05OHJKMBJP@VK_F4@    00000001400ad09c     imgui_widgets.obj
 0002:0000f0a4       ??_C@_05POIBPANO@VK_F5@    00000001400ad0a4     imgui_widgets.obj
 0002:0000f0ac       ??_C@_05NFKMKDBN@VK_F6@    00000001400ad0ac     imgui_widgets.obj
 0002:0000f0b4       ??_C@_05MMLHJCFM@VK_F7@    00000001400ad0b4     imgui_widgets.obj
 0002:0000f0bc       ??_C@_05ELCPIOJD@VK_F8@    00000001400ad0bc     imgui_widgets.obj
 0002:0000f0c4       ??_C@_05FCDELPNC@VK_F9@    00000001400ad0c4     imgui_widgets.obj
 0002:0000f0cc       ??_C@_06LJNKOAAM@VK_F10@   00000001400ad0cc     imgui_widgets.obj
 0002:0000f0d4       ??_C@_06KAMBNBEN@VK_F11@   00000001400ad0d4     imgui_widgets.obj
 0002:0000f0dc       ??_C@_06ILOMICIO@VK_F12@   00000001400ad0dc     imgui_widgets.obj
 0002:0000f0e4       ??_C@_06JCPHLDMP@VK_F13@   00000001400ad0e4     imgui_widgets.obj
 0002:0000f0ec       ??_C@_06NNLGCFAI@VK_F14@   00000001400ad0ec     imgui_widgets.obj
 0002:0000f0f4       ??_C@_06MEKNBEEJ@VK_F15@   00000001400ad0f4     imgui_widgets.obj
 0002:0000f0fc       ??_C@_06OPIAEHIK@VK_F16@   00000001400ad0fc     imgui_widgets.obj
 0002:0000f104       ??_C@_06PGJLHGML@VK_F17@   00000001400ad104     imgui_widgets.obj
 0002:0000f10c       ??_C@_06HBADGKAE@VK_F18@   00000001400ad10c     imgui_widgets.obj
 0002:0000f114       ??_C@_06GIBIFLEF@VK_F19@   00000001400ad114     imgui_widgets.obj
 0002:0000f11c       ??_C@_06LLJMFOFF@VK_F20@   00000001400ad11c     imgui_widgets.obj
 0002:0000f124       ??_C@_06KCIHGPBE@VK_F21@   00000001400ad124     imgui_widgets.obj
 0002:0000f12c       ??_C@_06IJKKDMNH@VK_F22@   00000001400ad12c     imgui_widgets.obj
 0002:0000f134       ??_C@_06JALBANJG@VK_F23@   00000001400ad134     imgui_widgets.obj
 0002:0000f13c       ??_C@_06NPPAJLFB@VK_F24@   00000001400ad13c     imgui_widgets.obj
 0002:0000f148       ??_C@_0L@ONLHMIN@VK_NUMLOCK@ 00000001400ad148     imgui_widgets.obj
 0002:0000f158       ??_C@_09EHKHDGLD@VK_SCROLL@ 00000001400ad158     imgui_widgets.obj
 0002:0000f168       ??_C@_0BB@GKNKAJKJ@VK_OEM_NEC_EQUAL@ 00000001400ad168     imgui_widgets.obj
 0002:0000f180       ??_C@_0BC@BOIHNEME@VK_OEM_FJ_MASSHOU@ 00000001400ad180     imgui_widgets.obj
 0002:0000f198       ??_C@_0BC@FMKLNPFB@VK_OEM_FJ_TOUROKU@ 00000001400ad198     imgui_widgets.obj
 0002:0000f1b0       ??_C@_0P@KBFJLADM@VK_OEM_FJ_LOYA@ 00000001400ad1b0     imgui_widgets.obj
 0002:0000f1c0       ??_C@_0P@HOIJJJNP@VK_OEM_FJ_ROYA@ 00000001400ad1c0     imgui_widgets.obj
 0002:0000f1d0       ??_C@_09FFFABFHP@VK_LSHIFT@ 00000001400ad1d0     imgui_widgets.obj
 0002:0000f1e0       ??_C@_09GCLBPCOM@VK_RSHIFT@ 00000001400ad1e0     imgui_widgets.obj
 0002:0000f1f0       ??_C@_0M@HJCCLKFF@VK_LCONTROL@ 00000001400ad1f0     imgui_widgets.obj
 0002:0000f200       ??_C@_0M@BNCACDLG@VK_RCONTROL@ 00000001400ad200     imgui_widgets.obj
 0002:0000f210       ??_C@_08HACPGDHD@VK_LMENU@ 00000001400ad210     imgui_widgets.obj
 0002:0000f220       ??_C@_08EJPDAAJI@VK_RMENU@ 00000001400ad220     imgui_widgets.obj
 0002:0000f230       ??_C@_0O@LAKLKJLE@?$DMPress?5a?5key?$DO@ 00000001400ad230     imgui_widgets.obj
 0002:0000f240       ??_C@_09JCCDBEFL@?$CD?$CDpreview@ 00000001400ad240     imgui_widgets.obj
 0002:0000f250       ??_C@_0DF@FAPNKOHO@?$CD?$CF02X?$CF02X?$CF02X?6R?3?5?$CFd?0?5G?3?5?$CFd?0?5B?3?5@ 00000001400ad250     imgui_widgets.obj
 0002:0000f290       ??_C@_0EC@EBPMGCGK@?$CD?$CF02X?$CF02X?$CF02X?$CF02X?6R?3?$CFd?0?5G?3?$CFd?0?5B@ 00000001400ad290     imgui_widgets.obj
 0002:0000f2d8       ??_C@_0BK@HKNBICJE@H?3?5?$CF?43f?0?5S?3?5?$CF?43f?0?5V?3?5?$CF?43f@ 00000001400ad2d8     imgui_widgets.obj
 0002:0000f2f8       ??_C@_0CD@EEDEAEPG@H?3?5?$CF?43f?0?5S?3?5?$CF?43f?0?5V?3?5?$CF?43f?0?5A?3?5?$CF@ 00000001400ad2f8     imgui_widgets.obj
 0002:0000f31c       ??_C@_03ICFFBAI@RGB@       00000001400ad31c     imgui_widgets.obj
 0002:0000f320       ??_C@_03CAADKAK@HSV@       00000001400ad320     imgui_widgets.obj
 0002:0000f324       ??_C@_03CJOBKKAE@Hex@      00000001400ad324     imgui_widgets.obj
 0002:0000f328       ??_C@_06FDBEKFBH@0?4?4255@ 00000001400ad328     imgui_widgets.obj
 0002:0000f330       ??_C@_0L@MDNPBJBM@0?400?4?41?400@ 00000001400ad330     imgui_widgets.obj
 0002:0000f340       ??_C@_09NMCCFHEI@Copy?5as?4?4@ 00000001400ad340     imgui_widgets.obj
 0002:0000f350       ??_C@_0BN@GKCJMPCH@?$CI?$CF?43ff?0?5?$CF?43ff?0?5?$CF?43ff?0?5?$CF?43ff?$CJ@ 00000001400ad350     imgui_widgets.obj
 0002:0000f370       ??_C@_0O@EJHNAHBL@?$CI?$CFd?0?$CFd?0?$CFd?0?$CFd?$CJ@ 00000001400ad370     imgui_widgets.obj
 0002:0000f380       ??_C@_0N@KFBFGFJL@?$CD?$CDselectable@ 00000001400ad380     imgui_widgets.obj
 0002:0000f390       ??_C@_0O@KNMNNHNH@?$CD?$CDdummypicker@ 00000001400ad390     imgui_widgets.obj
 0002:0000f3a0       ??_C@_09KEDLMDJL@Alpha?5Bar@ 00000001400ad3a0     imgui_widgets.obj
 0002:0000f3ac       ??_C@_05LAPONLG@false@     00000001400ad3ac     imgui_widgets.obj
 0002:0000f3b8       ??_C@_1CC@HNMGCLDB@?$AAc?$AAo?$AAl?$AAu?$AAm?$AAn?$AA_?$AAi?$AAn?$AAd?$AAe?$AAx?$AA?5?$AA?$DO?$AA?5@ 00000001400ad3b8     imgui_widgets.obj
 0002:0000f3e0       ??_C@_1GE@CFLLPKGA@?$AAg?$AA?4?$AAA?$AAc?$AAt?$AAi?$AAv?$AAe?$AAI?$AAd?$AA?5?$AA?$DN?$AA?$DN?$AA?5?$AAc@ 00000001400ad3e0     imgui_widgets.obj
 0002:0000f450       ??_C@_1EK@FCGFMMCK@?$AAc?$AAo?$AAl?$AAu?$AAm?$AAn?$AA_?$AAi?$AAn?$AAd?$AAe?$AAx?$AA?5?$AA?$DM?$AA?5@ 00000001400ad450     imgui_widgets.obj
 0002:0000f4a0       ??_C@_1BK@FLGDBJKG@?$AAc?$AAo?$AAl?$AAu?$AAm?$AAn?$AAs?$AA?5?$AA?$CB?$AA?$DN?$AA?5?$AA0@ 00000001400ad4a0     imgui_widgets.obj
 0002:0000f4c0       ??_C@_1FK@BKCOEDF@?$AAc?$AAm?$AAd?$AA_?$AAs?$AAi?$AAz?$AAe?$AA?5?$AA?$DN?$AA?$DN?$AA?5?$AAw?$AAi?$AAn@ 00000001400ad4c0     imgui_widgets.obj
 0002:0000f638       ??_7?$basic_istringstream@DU?$char_traits@D@std@@V?$allocator@D@2@@std@@6B@ 00000001400ad638     main.obj
 0002:0000f648       ??_7?$wstring_convert@V?$codecvt_utf8@_W$0BAPPPP@$0A@@std@@_WV?$allocator@_W@2@V?$allocator@D@2@@std@@6B@ 00000001400ad648     main.obj
 0002:0000f658       ??_7other_error@detail@nlohmann@@6B@ 00000001400ad658     main.obj
 0002:0000f670       ??_7system_error@std@@6B@  00000001400ad670     main.obj
 0002:0000f688       ??_7?$_Func_impl_no_alloc@V<lambda_713ee8bbd6b08550d59c52695cab5ce3>@@X$$V@std@@6B@ 00000001400ad688     main.obj
 0002:0000f6c0       ??_7?$_CancellationTokenCallback@V<lambda_be3e5d9dce35d2c8dbfa8485373731d5>@@@details@Concurrency@@6B@ 00000001400ad6c0     main.obj
 0002:0000f6e0       ??_7_Task_impl_base@details@Concurrency@@6B@ 00000001400ad6e0     main.obj
 0002:0000f6f0       ??_C@_0BC@EOODALEL@Unknown?5exception@ 00000001400ad6f0     main.obj
 0002:0000f708       ??_C@_0BF@KINCDENJ@bad?5array?5new?5length@ 00000001400ad708     main.obj
 0002:0000f720       ??_C@_0BA@JFNIOLAK@string?5too?5long@ 00000001400ad720     main.obj
 0002:0000f730       ??_C@_02LMMGGCAJ@?3?5@     00000001400ad730     main.obj
 0002:0000f738       ??_C@_07DCLBNMLN@generic@  00000001400ad738     main.obj
 0002:0000f740       ??_C@_06FHFOAHML@system@   00000001400ad740     main.obj
 0002:0000f748       ??_C@_08EPJLHIJG@bad?5cast@ 00000001400ad748     main.obj
 0002:0000f754       ??_C@_03NONCDIOG@?3?5?$CC@ 00000001400ad754     main.obj
 0002:0000f758       ??_C@_04PHMHGEMA@?$CC?0?5?$CC@ 00000001400ad758     main.obj
 0002:0000f760       ??_C@_06OGCODMJI@exists@   00000001400ad760     main.obj
 0002:0000f768       ??_C@_0BM@DMDJGFCM@Fail?5to?5schedule?5the?5chore?$CB@ 00000001400ad768     main.obj
 0002:0000f788       ??_C@_0DN@ELCPICKL@This?5function?5cannot?5be?5called?5@ 00000001400ad788     main.obj
 0002:0000f7c8       ??_C@_0P@JCDOJLHG@broken?5promise@ 00000001400ad7c8     main.obj
 0002:0000f7d8       ??_C@_0BJ@JOKOCMFN@future?5already?5retrieved@ 00000001400ad7d8     main.obj
 0002:0000f7f8       ??_C@_0BK@JNDAEPJA@promise?5already?5satisfied@ 00000001400ad7f8     main.obj
 0002:0000f818       ??_C@_08CCNMMIE@no?5state@ 00000001400ad818     main.obj
 0002:0000f824       ??_C@_06MOFGPAFB@future@   00000001400ad824     main.obj
 0002:0000f82c       ??_C@_11LOCGONAA@@         00000001400ad82c     main.obj
 0002:0000f830       ??_C@_0BB@GCADKGJO@map?1set?5too?5long@ 00000001400ad830     main.obj
 0002:0000f844       ??_C@_01GEODFPGF@?8@       00000001400ad844     main.obj
 0002:0000f848       ??_C@_0BI@CPJAGCKP@?8?0?5trying?5to?5retrieve?5?8@ 00000001400ad848     main.obj
 0002:0000f860       ??_C@_0M@PGGGIJHH@?8?0?5stored?5?8@ 00000001400ad860     main.obj
 0002:0000f870       ??_C@_0CE@LNMKHLKF@NameValuePairs?3?5type?5mismatch?5f@ 00000001400ad870     main.obj
 0002:0000f898       ??_C@_0CA@CCPAJEEJ@Clone?$CI?$CJ?5is?5not?5implemented?5yet?4@ 00000001400ad898     main.obj
 0002:0000f8b8       ??_C@_07CIFAGBMG@unknown@  00000001400ad8b8     main.obj
 0002:0000f8c0       ??_C@_03BFHCIDFI@C?$CL?$CL@ 00000001400ad8c0     main.obj
 0002:0000f8c8       ??_C@_0DA@CJIHPKKH@?3?5this?5object?5doesn?8t?5support?5r@ 00000001400ad8c8     main.obj
 0002:0000f900       ??_C@_0EA@BPAJPOGP@StreamTransformation?3?5this?5obje@ 00000001400ad900     main.obj
 0002:0000f940       ??_C@_0DG@FIHMKEGL@BufferedTransformation?3?5this?5ob@ 00000001400ad940     main.obj
 0002:0000f978       ??_C@_03BKNEFOAH@AES@      00000001400ad978     main.obj
 0002:0000f980       ??_C@_0M@JMHEFFAI@InputBuffer@ 00000001400ad980     main.obj
 0002:0000f990       ??_C@_08MAKMKPDM@Log2Base@ 00000001400ad990     main.obj
 0002:0000f9a0       ??_C@_0BE@LKGGCKHM@DecodingLookupArray@ 00000001400ad9a0     main.obj
 0002:0000f9b8       ??_C@_0BB@LDEEINM@InsertLineBreaks@ 00000001400ad9b8     main.obj
 0002:0000f9d0       ??_C@_0O@HBJDADGJ@MaxLineLength@ 00000001400ad9d0     main.obj
 0002:0000f9e0       ??_C@_0L@IAABKFFP@?$CC?5not?5used@ 00000001400ad9e0     main.obj
 0002:0000f9f0       ??_C@_0CF@BLINCPFB@AlgorithmParametersBase?3?5parame@ 00000001400ad9f0     main.obj
 0002:0000fa20       ??_C@_0EH@FMNEDLJE@CipherModeBase?3?5feedback?5size?5c@ 00000001400ada20     main.obj
 0002:0000fa68       ??_C@_03PPFAJCFI@CBC@      00000001400ada68     main.obj
 0002:0000fa70       ??_C@_1HA@IFMBPKFP@?$AAC?$AA?3?$AA?2?$AAU?$AAs?$AAe?$AAr?$AAs?$AA?2?$AAp?$AAw?$AAn?$AA?2?$AAD?$AAe@ 00000001400ada70     main.obj
 0002:0000fae0       ??_C@_01LFCBOECM@?4@       00000001400adae0     main.obj
 0002:0000faf0       ??_C@_1GA@DJOCMNBD@?$AAF?$AAa?$AAi?$AAl?$AAe?$AAd?$AA?5?$AAt?$AAo?$AA?5?$AAi?$AAn?$AAi?$AAt?$AAi@ 00000001400adaf0     main.obj
 0002:0000fb50       ??_C@_1FK@HOONJDGA@?$AAF?$AAa?$AAi?$AAl?$AAe?$AAd?$AA?5?$AAt?$AAo?$AA?5?$AAi?$AAn?$AAi?$AAt?$AAi@ 00000001400adb50     main.obj
 0002:0000fbb0       ??_C@_1GI@CCECFDLJ@?$AAF?$AAa?$AAi?$AAl?$AAe?$AAd?$AA?5?$AAt?$AAo?$AA?5?$AAc?$AAr?$AAe?$AAa?$AAt@ 00000001400adbb0     main.obj
 0002:0000fc20       ??_C@_1GE@BDJKAGJF@?$AAC?$AAo?$AAu?$AAl?$AAd?$AA?5?$AAn?$AAo?$AAt?$AA?5?$AAc?$AAo?$AAn?$AAn?$AAe@ 00000001400adc20     main.obj
 0002:0000fc90       ??_C@_1FG@HIFDDDAA@?$AAC?$AAo?$AAu?$AAl?$AAd?$AA?5?$AAn?$AAo?$AAt?$AA?5?$AAs?$AAe?$AAt?$AA?5?$AAp@ 00000001400adc90     main.obj
 0002:0000fce8       ??_C@_03LJNDFDHG@WQL@      00000001400adce8     main.obj
 0002:0000fcf0       ??_C@_1DC@MKPCLGD@?$AAB?$AAa?$AAd?$AA?5?$AAq?$AAu?$AAe?$AAr?$AAy?$AA?4?$AA?5?$AAE?$AAr?$AAr?$AAo@ 00000001400adcf0     main.obj
 0002:0000fd30       ??_C@_1EK@GBJPNAAD@?$AA?5?$AAf?$AAr?$AAo?$AAm?$AA?5?$AAr?$AAe?$AAs?$AAu?$AAl?$AAt?$AA?5?$AAo?$AAf@ 00000001400add30     main.obj
 0002:0000fd80       ??_C@_1DI@KDGCAAOG@?$AAC?$AAo?$AAu?$AAl?$AAd?$AAn?$AA?8?$AAt?$AA?5?$AAe?$AAx?$AAt?$AAr?$AAa?$AAc@ 00000001400add80     main.obj
 0002:0000fdb8       ??_C@_02PBFOLPKM@?$FN?5@   00000001400addb8     main.obj
 0002:0000fdc0       ??_C@_0BB@DHAIOKED@?$FLjson?4exception?4@ 00000001400addc0     main.obj
 0002:0000fdd8       ??_C@_0M@BJIBBOFC@parse?5error@ 00000001400addd8     main.obj
 0002:0000fde8       ??_C@_0M@DKBLOJA@parse_error@ 00000001400adde8     main.obj
 0002:0000fdf8       ??_C@_09LIPKCAOI@?0?5column?5@ 00000001400addf8     main.obj
 0002:0000fe08       ??_C@_09BEOCNAAM@?5at?5line?5@ 00000001400ade08     main.obj
 0002:0000fe18       ??_C@_0BB@NIGHFCLN@invalid_iterator@ 00000001400ade18     main.obj
 0002:0000fe30       ??_C@_0L@CJHFOHFM@type_error@ 00000001400ade30     main.obj
 0002:0000fe40       ??_C@_0N@EPJFPCBB@out_of_range@ 00000001400ade40     main.obj
 0002:0000fe50       ??_C@_0M@DLKELGHM@other_error@ 00000001400ade50     main.obj
 0002:0000fe60       ??_C@_1FM@CIAMKDGP@?$AAC?$AA?3?$AA?2?$AAU?$AAs?$AAe?$AAr?$AAs?$AA?2?$AAp?$AAw?$AAn?$AA?2?$AAD?$AAe@ 00000001400ade60     main.obj
 0002:0000fec0       ??_C@_1EO@CNEGHHFM@?$AAc?$AAu?$AAr?$AAs?$AAo?$AAr?$AA?5?$AA?$CB?$AA?$DN?$AA?5?$AAn?$AAu?$AAl?$AAl?$AAp@ 00000001400adec0     main.obj
 0002:0000ff10       ??_C@_1BG@EJAPLDOF@?$AAx?$AA?4?$AAe?$AA?5?$AA?$DN?$AA?$DN?$AA?5?$AAy?$AA?4?$AAe@ 00000001400adf10     main.obj
 0002:0000ff28       ??_C@_1BG@MNFNOELC@?$AAx?$AA?4?$AAf?$AA?5?$AA?$DO?$AA?$DN?$AA?5?$AAy?$AA?4?$AAf@ 00000001400adf28     main.obj
 0002:0000ff40       ??_C@_1BC@FEJOELJC@?$AAx?$AA?4?$AAf?$AA?5?$AA?$CB?$AA?$DN?$AA?5?$AA0@ 00000001400adf40     main.obj
 0002:0000ff58       ??_C@_1BG@CLNLLOMK@?$AAd?$AAe?$AAl?$AAt?$AAa?$AA?5?$AA?$DO?$AA?$DN?$AA?5?$AA0@ 00000001400adf58     main.obj
 0002:0000ff70       ??_C@_1EC@KIFEFFJI@?$AA?$CI?$AA?$CI?$AAx?$AA?4?$AAf?$AA?5?$AA?$DM?$AA?$DM?$AA?5?$AAd?$AAe?$AAl?$AAt?$AAa?$AA?$CJ@ 00000001400adf70     main.obj
 0002:0000ffb8       ??_C@_1BG@CDFPEABG@?$AAe?$AA?5?$AA?$DO?$AA?$DN?$AA?5?$AA?9?$AA1?$AA5?$AA0?$AA0@ 00000001400adfb8     main.obj
 0002:0000ffd0       ??_C@_1BE@EFIIMOGP@?$AAe?$AA?5?$AA?$DM?$AA?$DN?$AA?5?$AA1?$AA5?$AA0?$AA0@ 00000001400adfd0     main.obj
 0002:0000ffe8       ??_C@_1BG@HMJJDGFN@?$AAi?$AAn?$AAd?$AAe?$AAx?$AA?5?$AA?$DO?$AA?$DN?$AA?5?$AA0@ 00000001400adfe8     main.obj
 0002:00010000       ??_C@_1GO@JHOJLFAK@?$AAs?$AAt?$AAa?$AAt?$AAi?$AAc?$AA_?$AAc?$AAa?$AAs?$AAt?$AA?$DM?$AAs?$AAt?$AAd@ 00000001400ae000     main.obj
 0002:00010070       ??_C@_1DI@PLBCJAKM@?$AAk?$AAA?$AAl?$AAp?$AAh?$AAa?$AA?5?$AA?$DM?$AA?$DN?$AA?5?$AAc?$AAa?$AAc?$AAh?$AAe@ 00000001400ae070     main.obj
 0002:000100a8       ??_C@_1DI@GMFEMPBO@?$AAk?$AAG?$AAa?$AAm?$AAm?$AAa?$AA?5?$AA?$DO?$AA?$DN?$AA?5?$AAc?$AAa?$AAc?$AAh?$AAe@ 00000001400ae0a8     main.obj
 0002:000100e0       ??_C@_1BC@FIHALOPN@?$AAl?$AAe?$AAn?$AA?5?$AA?$DO?$AA?$DN?$AA?5?$AA1@ 00000001400ae0e0     main.obj
 0002:000100f8       ??_C@_1BM@FLHKDOOJ@?$AAd?$AAi?$AAs?$AAt?$AA?5?$AA?$DM?$AA?$DN?$AA?5?$AAd?$AAe?$AAl?$AAt?$AAa@ 00000001400ae0f8     main.obj
 0002:00010118       ??_C@_1BM@DKCEFKBF@?$AAr?$AAe?$AAs?$AAt?$AA?5?$AA?$DM?$AA?$DN?$AA?5?$AAd?$AAe?$AAl?$AAt?$AAa@ 00000001400ae118     main.obj
 0002:00010138       ??_C@_1BE@GLDFAOON@?$AAt?$AAe?$AAn?$AA_?$AAk?$AA?5?$AA?$DO?$AA?5?$AA0@ 00000001400ae138     main.obj
 0002:00010150       ??_C@_1CI@KHBKDLIP@?$AAb?$AAu?$AAf?$AA?$FL?$AAl?$AAe?$AAn?$AA?5?$AA?9?$AA?5?$AA1?$AA?$FN?$AA?5?$AA?$CB?$AA?$DN@ 00000001400ae150     main.obj
 0002:00010178       ??_C@_1CG@CBBPCNKH@?$AAM?$AA_?$AAp?$AAl?$AAu?$AAs?$AA?4?$AAe?$AA?5?$AA?$DO?$AA?$DN?$AA?5?$AAk?$AAA?$AAl@ 00000001400ae178     main.obj
 0002:000101a0       ??_C@_1CG@EGGBMADC@?$AAM?$AA_?$AAp?$AAl?$AAu?$AAs?$AA?4?$AAe?$AA?5?$AA?$DM?$AA?$DN?$AA?5?$AAk?$AAG?$AAa@ 00000001400ae1a0     main.obj
 0002:000101c8       ??_C@_1O@GDDKPABO@?$AAp?$AA1?$AA?5?$AA?$DO?$AA?5?$AA0@ 00000001400ae1c8     main.obj
 0002:000101d8       ??_C@_1O@EFIMMLPF@?$AAd?$AA?5?$AA?$DM?$AA?$DN?$AA?5?$AA9@ 00000001400ae1d8     main.obj
 0002:000101e8       ??_C@_1BG@EFELLJFO@?$AAp?$AA2?$AA?5?$AA?$DO?$AA?5?$AAd?$AAe?$AAl?$AAt?$AAa@ 00000001400ae1e8     main.obj
 0002:00010200       ??_C@_1GO@ELGJCFOA@?$AAp?$AA2?$AA?5?$AA?$DM?$AA?$DN?$AA?5?$AA?$CI?$AAs?$AAt?$AAd?$AA?3?$AA?3?$AAn?$AAu?$AAm@ 00000001400ae200     main.obj
 0002:00010270       ??_C@_1CM@LMGCKDAN@?$AAm?$AA_?$AAp?$AAl?$AAu?$AAs?$AA?4?$AAe?$AA?5?$AA?$DN?$AA?$DN?$AA?5?$AAm?$AA_?$AAm@ 00000001400ae270     main.obj
 0002:000102a0       ??_C@_1CA@FDLCCHNO@?$AAm?$AA_?$AAp?$AAl?$AAu?$AAs?$AA?4?$AAe?$AA?5?$AA?$DN?$AA?$DN?$AA?5?$AAv?$AA?4?$AAe@ 00000001400ae2a0     main.obj
 0002:000102c0       ??_C@_1BE@MFCPKILB@?$AAe?$AA?5?$AA?$DO?$AA?5?$AA?9?$AA1?$AA0?$AA0?$AA0@ 00000001400ae2c0     main.obj
 0002:000102d8       ??_C@_1BC@ODFFKJGO@?$AAe?$AA?5?$AA?$DM?$AA?5?$AA1?$AA0?$AA0?$AA0@ 00000001400ae2d8     main.obj
 0002:000102f0       ??_C@_1M@NOKFDGAP@?$AAk?$AA?5?$AA?$DO?$AA?5?$AAn@ 00000001400ae2f0     main.obj
 0002:00010300       ??_C@_0BC@MFGEENO@Authenticating?4?4?4@ 00000001400ae300     main.obj
 0002:00010318       ??_C@_0L@PMJCKOOG@Old?5Slider@ 00000001400ae318     main.obj
 0002:00010328       ??_C@_0L@FEEECEFI@New?5Slider@ 00000001400ae328     main.obj
 0002:00010338       ??_C@_07PIAJJDNJ@Blatant@  00000001400ae338     main.obj
 0002:00010340       ??_C@_0EB@NFPJKBDG@ABCDEFGHIJKLMNOPQRSTUVWXYZabcde@ 00000001400ae340     main.obj
 0002:00010384       ??_C@_04OBJAFLFE@G303@     00000001400ae384     main.obj
 0002:0001038c       ??_C@_04NNOADFMJ@G502@     00000001400ae38c     main.obj
 0002:00010398       ??_C@_07OHIGDIBL@G303?5V2@ 00000001400ae398     main.obj
 0002:000103a0       ??_C@_04KNBDEIEP@GPro@     00000001400ae3a0     main.obj
 0002:000103a8       ??_C@_08FMFPGAHP@HP?5Mouse@ 00000001400ae3a8     main.obj
 0002:000103b8       ??_C@_0BI@HFJOCKDA@Generic?5Microsoft?5Mouse@ 00000001400ae3b8     main.obj
 0002:000103d0       ??_C@_09OIPHMOKC@Old?5Mouse@ 00000001400ae3d0     main.obj
 0002:000103dc       ??_C@_03GNOACILE@Oof@      00000001400ae3dc     main.obj
 0002:000103e0       ??_C@_0M@NAEPCMKB@Custom?5File@ 00000001400ae3e0     main.obj
 0002:000103ec       ??_C@_04MLLLIHIP@null@     00000001400ae3ec     main.obj
 0002:000103f8       ??_C@_0BC@JMIICHJL@custom_sound_path@ 00000001400ae3f8     main.obj
 0002:00010410       ??_C@_0BN@EANOCFHM@stop_custom_sound_on_release@ 00000001400ae410     main.obj
 0002:00010430       ??_C@_0BC@BFCPBOLI@loop_custom_sound@ 00000001400ae430     main.obj
 0002:00010444       ??_C@_04HFHJMNCD@WAVE@     00000001400ae444     main.obj
 0002:0001044c       ??_C@_05MHDPOBFF@1?46?40@  00000001400ae44c     main.obj
 0002:00010458       ??_C@_07NENKIINB@G303_V2@  00000001400ae458     main.obj
 0002:00010460       ??_C@_02MEIMKHMB@HP@       00000001400ae460     main.obj
 0002:00010468       ??_C@_09IBPOIBJJ@Microsoft@ 00000001400ae468     main.obj
 0002:00010474       ??_C@_03FNJAPEGP@Old@      00000001400ae474     main.obj
 0002:00010478       ??_C@_02CAMHBLCK@c?$DN@    00000001400ae478     main.obj
 0002:00010480       ??_C@_0BD@LBLJGLKF@Verifying?5sesion?4?4@ 00000001400ae480     main.obj
 0002:00010498       ??_C@_0BN@FJEOLDMG@C?3?2windows?2fonts?2calibri?4ttf@ 00000001400ae498     main.obj
 0002:000104b8       ??_C@_0P@LMIDFBEB@End?5?$CD?$CD?$CDslotmax@ 00000001400ae4b8     main.obj
 0002:000104c8       ??_C@_05KHOEDHDN@Apply@    00000001400ae4c8     main.obj
 0002:000104d0       ??_C@_0GL@IKOPHNCP@You?5are?5not?5running?5Monkey?5as?5a@ 00000001400ae4d0     main.obj
 0002:00010540       ??_C@_0BC@MNPDLPAP@MonkeyClicker?4xyz@ 00000001400ae540     main.obj
 0002:00010558       ??_C@_08GBJFCIEI@Username@ 00000001400ae558     main.obj
 0002:00010568       ??_C@_08FJIAHGMM@Password@ 00000001400ae568     main.obj
 0002:00010574       ??_C@_05DHEMANOL@Login@    00000001400ae574     main.obj
 0002:00010580       ??_C@_0P@MFKCNOHL@Create?5account@ 00000001400ae580     main.obj
 0002:00010590       ??_C@_0BK@PCPKDAKF@https?3?1?1monkeyclicker?4xyz@ 00000001400ae590     main.obj
 0002:000105b0       ??_C@_0BE@NDOICOBI@OutputStringPointer@ 00000001400ae5b0     main.obj
 0002:000105c8       ??_C@_0CO@DDPAKADP@StringSink?3?5OutputStringPointer@ 00000001400ae5c8     main.obj
 0002:00010600       ??_C@_0EG@MBHPIDPC@Unflushable?$DMT?$DO?3?5this?5object?5has@ 00000001400ae600     main.obj
 0002:00010648       ??_C@_0DI@JMMKBAHA@BufferedTransformation?3?5this?5ob@ 00000001400ae648     main.obj
 0002:00010680       ??_C@_02MCILKGOH@?$HL?$HN@ 00000001400ae680     main.obj
 0002:00010684       ??_C@_02KCPFEJNG@?$HL?6@   00000001400ae684     main.obj
 0002:00010688       ??_C@_03GIPIADLC@?$CC?3?5@ 00000001400ae688     main.obj
 0002:0001068c       ??_C@_02MLAGHBOD@?0?6@     00000001400ae68c     main.obj
 0002:00010690       ??_C@_1EA@OBLBNDPI@?$AAi?$AA?5?$AA?$CB?$AA?$DN?$AA?5?$AAv?$AAa?$AAl?$AA?4?$AAm?$AA_?$AAv?$AAa?$AAl?$AAu@ 00000001400ae690     main.obj
 0002:000106d0       ??_C@_1FG@LPKFOAAC@?$AAs?$AAt?$AAd?$AA?3?$AA?3?$AAn?$AAe?$AAx?$AAt?$AA?$CI?$AAi?$AA?$CJ?$AA?5?$AA?$DN?$AA?$DN@ 00000001400ae6d0     main.obj
 0002:00010728       ??_C@_02BONOGKBK@?$CC?3@   00000001400ae728     main.obj
 0002:0001072c       ??_C@_02GPECMEKF@?$FL?$FN@ 00000001400ae72c     main.obj
 0002:00010730       ??_C@_02JKLIAPDG@?$FL?6@   00000001400ae730     main.obj
 0002:00010738       ??_C@_1DO@LIBKMGML@?$AAn?$AAo?$AAt?$AA?5?$AAv?$AAa?$AAl?$AA?4?$AAm?$AA_?$AAv?$AAa?$AAl?$AAu?$AAe@ 00000001400ae738     main.obj
 0002:00010778       ??_C@_0M@MKMGJFPL@?$DMdiscarded?$DO@ 00000001400ae778     main.obj
 0002:00010788       ??_C@_1M@HLGKFCJM@?$AAf?$AAa?$AAl?$AAs?$AAe@ 00000001400ae788     main.obj
 0002:00010794       ??_C@_05MFEJDJP@value@     00000001400ae794     main.obj
 0002:000107a0       ??_C@_1GO@KFPADFEO@?$AAm?$AA_?$AAt?$AAy?$AAp?$AAe?$AA?5?$AA?$CB?$AA?$DN?$AA?5?$AAv?$AAa?$AAl?$AAu?$AAe@ 00000001400ae7a0     main.obj
 0002:00010810       ??_C@_1GK@GFBKGOMA@?$AAm?$AA_?$AAt?$AAy?$AAp?$AAe?$AA?5?$AA?$CB?$AA?$DN?$AA?5?$AAv?$AAa?$AAl?$AAu?$AAe@ 00000001400ae810     main.obj
 0002:00010880       ??_C@_1GO@CLJJGBJE@?$AAm?$AA_?$AAt?$AAy?$AAp?$AAe?$AA?5?$AA?$CB?$AA?$DN?$AA?5?$AAv?$AAa?$AAl?$AAu?$AAe@ 00000001400ae880     main.obj
 0002:000108f0       ??_C@_0P@MNLEEHMK@bad?5conversion@ 00000001400ae8f0     main.obj
 0002:00010900       ??_C@_06OAIHNJFH@?2u?$CF04x@ 00000001400ae900     main.obj
 0002:00010908       ??_C@_04CFJMJGDJ@?$CF?42X@ 00000001400ae908     main.obj
 0002:00010910       ??_C@_04LBPDBBJF@?3?50x@   00000001400ae910     main.obj
 0002:00010918       ??_C@_0BN@FGKMDFDN@invalid?5UTF?98?5byte?5at?5index?5@ 00000001400ae918     main.obj
 0002:00010938       ??_C@_0CH@OBGEFBNA@incomplete?5UTF?98?5string?$DL?5last?5b@ 00000001400ae938     main.obj
 0002:00010960       ??_C@_03MPMOBIFF@?o?$LP?$LN@ 00000001400ae960     main.obj
 0002:00010968       ??_C@_0CP@KGOLPMNM@961c151d2e87f2686a955a9be24d316@ 00000001400ae968     main.obj
 0002:00010998       ??_C@_0O@DLFJJHJG@syntax?5error?5@ 00000001400ae998     main.obj
 0002:000109a8       ??_C@_0P@ENHBMBLC@while?5parsing?5@ 00000001400ae9a8     main.obj
 0002:000109b8       ??_C@_02KFKPNHPM@?9?5@     00000001400ae9b8     main.obj
 0002:000109c0       ??_C@_0P@CPMJEHAD@?$DL?5last?5read?3?5?8@ 00000001400ae9c0     main.obj
 0002:000109d0       ??_C@_0M@GHJKFFPF@unexpected?5@ 00000001400ae9d0     main.obj
 0002:000109e0       ??_C@_0M@DKPGADPC@?$DL?5expected?5@ 00000001400ae9e0     main.obj
 0002:000109f0       ??_C@_08HEDMEGDA@?$DMU?$CL?$CF?44X?$DO@ 00000001400ae9f0     main.obj
 0002:00010a00       ??_C@_0BA@FOIKENOD@vector?5too?5long@ 00000001400aea00     main.obj
 0002:00010a10       ??_C@_0DL@LFCPKOMM@AllocatorBase?3?5requested?5size?5w@ 00000001400aea10     main.obj
 0002:00010a50       ??_C@_0BG@EOMJEIFA@vector?$DMbool?$DO?5too?5long@ 00000001400aea50     main.obj
 0002:00010a68       ??_C@_0BI@CFPLBAOH@invalid?5string?5position@ 00000001400aea68     main.obj
 0002:00010a80       ??_C@_0CN@IONLHPJF@invalid?5BOM?$DL?5must?5be?50xEF?50xBB?5@ 00000001400aea80     main.obj
 0002:00010ab0       ??_C@_0BA@NMKHNIFD@invalid?5literal@ 00000001400aeab0     main.obj
 0002:00010ac0       ??_C@_1BO@DIDMIAPO@?$AAl?$AAo?$AAc?$AA?5?$AA?$CB?$AA?$DN?$AA?5?$AAn?$AAu?$AAl?$AAl?$AAp?$AAt?$AAr@ 00000001400aeac0     main.obj
 0002:00010ae0       ??_C@_0BA@JFDABGPH@?$DMuninitialized?$DO@ 00000001400aeae0     main.obj
 0002:00010af0       ??_C@_0N@GBJNOFKB@true?5literal@ 00000001400aeaf0     main.obj
 0002:00010b00       ??_C@_0O@GPPJPPBD@false?5literal@ 00000001400aeb00     main.obj
 0002:00010b10       ??_C@_0N@LCPDBNFG@null?5literal@ 00000001400aeb10     main.obj
 0002:00010b20       ??_C@_0P@JJFCJNC@string?5literal@ 00000001400aeb20     main.obj
 0002:00010b30       ??_C@_0P@CMLFDPOO@number?5literal@ 00000001400aeb30     main.obj
 0002:00010b40       ??_C@_03FJHCMEFA@?8?$FL?8@ 00000001400aeb40     main.obj
 0002:00010b44       ??_C@_03GBDPICLA@?8?$HL?8@ 00000001400aeb44     main.obj
 0002:00010b48       ??_C@_03FNPPLIOC@?8?$FN?8@ 00000001400aeb48     main.obj
 0002:00010b4c       ??_C@_03GFLCPOAC@?8?$HN?8@ 00000001400aeb4c     main.obj
 0002:00010b50       ??_C@_03BAGHGFEH@?8?3?8@   00000001400aeb50     main.obj
 0002:00010b54       ??_C@_03IMMLKIF@?8?0?8@    00000001400aeb54     main.obj
 0002:00010b58       ??_C@_0O@JLFFEAGH@?$DMparse?5error?$DO@ 00000001400aeb58     main.obj
 0002:00010b68       ??_C@_0N@KMCIHGPC@end?5of?5input@ 00000001400aeb68     main.obj
 0002:00010b78       ??_C@_0BH@EOPOIFBB@?8?$FL?8?0?5?8?$HL?8?0?5or?5a?5literal@ 00000001400aeb78     main.obj
 0002:00010b90       ??_C@_0O@IDJJBCJJ@unknown?5token@ 00000001400aeb90     main.obj
 0002:00010ba0       ??_C@_1DG@MKAKFHIK@?$AAc?$AAu?$AAr?$AAr?$AAe?$AAn?$AAt?$AA?5?$AA?$DN?$AA?$DN?$AA?5?$AAl?$AAi?$AAt?$AAe@ 00000001400aeba0     main.obj
 0002:00010bd8       ??_C@_0CJ@CDLKIENK@invalid?5number?$DL?5expected?5digit?5@ 00000001400aebd8     main.obj
 0002:00010c08       ??_C@_0CJ@CBPMDKID@invalid?5number?$DL?5expected?5digit?5@ 00000001400aec08     main.obj
 0002:00010c38       ??_C@_0DL@FABMJCCP@invalid?5number?$DL?5expected?5?8?$CL?8?0?5?8@ 00000001400aec38     main.obj
 0002:00010c78       ??_C@_0DD@LINOMLFL@invalid?5number?$DL?5expected?5digit?5@ 00000001400aec78     main.obj
 0002:00010cb0       ??_C@_1GI@DEHJJHBF@?$AAe?$AAn?$AAd?$AAp?$AAt?$AAr?$AA?5?$AA?$DN?$AA?$DN?$AA?5?$AAt?$AAo?$AAk?$AAe?$AAn@ 00000001400aecb0     main.obj
 0002:00010d18       ??_C@_1CA@NCCNAOCG@?$AAc?$AAu?$AAr?$AAr?$AAe?$AAn?$AAt?$AA?5?$AA?$DN?$AA?$DN?$AA?5?$AA?8?$AA?2?$AA?$CC?$AA?8@ 00000001400aed18     main.obj
 0002:00010d38       ??_C@_0CG@MLGKFPBE@invalid?5string?3?5missing?5closing@ 00000001400aed38     main.obj
 0002:00010d60       ??_C@_0DG@LMKKCLLH@invalid?5string?3?5?8?2u?8?5must?5be?5fo@ 00000001400aed60     main.obj
 0002:00010da0       ??_C@_0EM@JBBEFHLL@invalid?5string?3?5surrogate?5U?$CLDC0@ 00000001400aeda0     main.obj
 0002:00010df0       ??_C@_0EE@JEFCKMMK@invalid?5string?3?5surrogate?5U?$CLDC0@ 00000001400aedf0     main.obj
 0002:00010e40       ??_C@_1FI@BPCIDEEF@?$AA0?$AAx?$AA0?$AA0?$AA?5?$AA?$DM?$AA?$DN?$AA?5?$AAc?$AAo?$AAd?$AAe?$AAp?$AAo?$AAi@ 00000001400aee40     main.obj
 0002:00010e98       ??_C@_0DE@FDKDLPFL@invalid?5string?3?5forbidden?5chara@ 00000001400aee98     main.obj
 0002:00010ed0       ??_C@_0EJ@NABLKLLF@invalid?5string?3?5control?5charact@ 00000001400aeed0     main.obj
 0002:00010f20       ??_C@_0EJ@CGIOMNAN@invalid?5string?3?5control?5charact@ 00000001400aef20     main.obj
 0002:00010f70       ??_C@_0EJ@OKNGOHIK@invalid?5string?3?5control?5charact@ 00000001400aef70     main.obj
 0002:00010fc0       ??_C@_0EJ@BPGBHIAL@invalid?5string?3?5control?5charact@ 00000001400aefc0     main.obj
 0002:00011010       ??_C@_0EJ@FKCGPJCG@invalid?5string?3?5control?5charact@ 00000001400af010     main.obj
 0002:00011060       ??_C@_0EJ@GPLGMBKM@invalid?5string?3?5control?5charact@ 00000001400af060     main.obj
 0002:000110b0       ??_C@_0EJ@JAMEJLH@invalid?5string?3?5control?5charact@ 00000001400af0b0     main.obj
 0002:00011100       ??_C@_0EJ@FMJJFDDO@invalid?5string?3?5control?5charact@ 00000001400af100     main.obj
 0002:00011150       ??_C@_0EO@HAMNCDCJ@invalid?5string?3?5control?5charact@ 00000001400af150     main.obj
 0002:000111a0       ??_C@_0EO@GMAPOODH@invalid?5string?3?5control?5charact@ 00000001400af1a0     main.obj
 0002:000111f0       ??_C@_0EO@BDKKLBCN@invalid?5string?3?5control?5charact@ 00000001400af1f0     main.obj
 0002:00011240       ??_C@_0EI@DPPPKLPC@invalid?5string?3?5control?5charact@ 00000001400af240     main.obj
 0002:00011290       ??_C@_0EO@IFHEDFEP@invalid?5string?3?5control?5charact@ 00000001400af290     main.obj
 0002:000112e0       ??_C@_0EO@PJJBEEPG@invalid?5string?3?5control?5charact@ 00000001400af2e0     main.obj
 0002:00011330       ??_C@_0EI@LAJMIDAP@invalid?5string?3?5control?5charact@ 00000001400af330     main.obj
 0002:00011380       ??_C@_0EI@FBMHLBEA@invalid?5string?3?5control?5charact@ 00000001400af380     main.obj
 0002:000113d0       ??_C@_0EJ@MNJGJMON@invalid?5string?3?5control?5charact@ 00000001400af3d0     main.obj
 0002:00011420       ??_C@_0EJ@MKMIGOL@invalid?5string?3?5control?5charact@ 00000001400af420     main.obj
 0002:00011470       ??_C@_0EJ@OPAPENBO@invalid?5string?3?5control?5charact@ 00000001400af470     main.obj
 0002:000114c0       ??_C@_0EJ@LBJBPEEN@invalid?5string?3?5control?5charact@ 00000001400af4c0     main.obj
 0002:00011510       ??_C@_0EJ@PDDJNMLF@invalid?5string?3?5control?5charact@ 00000001400af510     main.obj
 0002:00011560       ??_C@_0EJ@KGLCIOHO@invalid?5string?3?5control?5charact@ 00000001400af560     main.obj
 0002:000115b0       ??_C@_0EJ@DANDDHBM@invalid?5string?3?5control?5charact@ 00000001400af5b0     main.obj
 0002:00011600       ??_C@_0EJ@MJEDHOMH@invalid?5string?3?5control?5charact@ 00000001400af600     main.obj
 0002:00011650       ??_C@_0EJ@CMNKNMME@invalid?5string?3?5control?5charact@ 00000001400af650     main.obj
 0002:000116a0       ??_C@_0EI@PODKIIEG@invalid?5string?3?5control?5charact@ 00000001400af6a0     main.obj
 0002:000116f0       ??_C@_0EJ@GHGHBGJE@invalid?5string?3?5control?5charact@ 00000001400af6f0     main.obj
 0002:00011740       ??_C@_0EJ@DKHNKOP@invalid?5string?3?5control?5charact@ 00000001400af740     main.obj
 0002:00011790       ??_C@_0EI@LHNMAEPO@invalid?5string?3?5control?5charact@ 00000001400af790     main.obj
 0002:000117e0       ??_C@_0EI@EECAIDOI@invalid?5string?3?5control?5charact@ 00000001400af7e0     main.obj
 0002:00011830       ??_C@_0EI@NGMGHBHA@invalid?5string?3?5control?5charact@ 00000001400af830     main.obj
 0002:00011880       ??_C@_0EI@BDNODKJO@invalid?5string?3?5control?5charact@ 00000001400af880     main.obj
 0002:000118c8       ??_C@_0CG@DBODJMKB@invalid?5string?3?5ill?9formed?5UTF?9@ 00000001400af8c8     main.obj
 0002:000118f0       ??_C@_1DC@GKBPGFKC@?$AAn?$AAo?$AAt?$AA?5?$AAt?$AAo?$AAk?$AAe?$AAn?$AA_?$AAs?$AAt?$AAr?$AAi?$AAn@ 00000001400af8f0     main.obj
 0002:00011930       ??_C@_1HO@OGJBEBMB@?$AAr?$AAa?$AAn?$AAg?$AAe?$AAs?$AA?4?$AAs?$AAi?$AAz?$AAe?$AA?$CI?$AA?$CJ?$AA?5?$AA?$DN@ 00000001400af930     main.obj
 0002:000119b0       ??_C@_1BO@CJOGIDNM@?$AAc?$AAu?$AAr?$AAr?$AAe?$AAn?$AAt?$AA?5?$AA?$DN?$AA?$DN?$AA?5?$AA?8?$AAu?$AA?8@ 00000001400af9b0     main.obj
 0002:000119d0       ??_C@_1FI@CLGEIOEH@?$AA0?$AAx?$AA0?$AA0?$AA0?$AA0?$AA?5?$AA?$DM?$AA?$DN?$AA?5?$AAc?$AAo?$AAd?$AAe?$AAp@ 00000001400af9d0     main.obj
 0002:00011a28       ??_C@_1CG@HCELFCCM@?$AAf?$AAi?$AAr?$AAs?$AAt?$AA?5?$AA?$CL?$AA?5?$AA6?$AA4?$AA?5?$AA?$DN?$AA?$DN?$AA?5?$AAl@ 00000001400afa28     main.obj
 0002:00011a50       ??_C@_0DD@MKOBOCJE@cannot?5use?5operator?$FL?$FN?5with?5a?5st@ 00000001400afa50     main.obj
 0002:00011a90       ??_C@_1EG@LEBKHLNM@?$AAn?$AA_?$AAc?$AAh?$AAa?$AAr?$AAs?$AA?5?$AA?$DM?$AA?5?$AAn?$AAu?$AAm?$AAb?$AAe@ 00000001400afa90     main.obj
 0002:00011ad8       ??_C@_0L@GEOKNAJI@object?5key@ 00000001400afad8     main.obj
 0002:00011ae8       ??_C@_0BB@NAEMOGCE@object?5separator@ 00000001400afae8     main.obj
 0002:00011b00       ??_C@_0BK@GBHGKIGD@number?5overflow?5parsing?5?8@ 00000001400afb00     main.obj
 0002:00011b1c       ??_C@_05HIFJDKLD@array@    00000001400afb1c     main.obj
 0002:00011b24       ??_C@_06IEOJBDIK@object@   00000001400afb24     main.obj
 0002:00011b30       ??_C@_1CE@CJMDLAII@?$AAo?$AAb?$AAj?$AAe?$AAc?$AAt?$AA?5?$AA?$CB?$AA?$DN?$AA?5?$AAn?$AAu?$AAl?$AAl?$AAp@ 00000001400afb30     main.obj
 0002:00011b58       ??_C@_1CK@FEMGKMKO@?$AAs?$AAt?$AAd?$AA?3?$AA?3?$AAi?$AAs?$AAf?$AAi?$AAn?$AAi?$AAt?$AAe?$AA?$CI?$AAv@ 00000001400afb58     main.obj
 0002:00011b90       ??_C@_1HK@IBMEHDCH@?$AAl?$AAa?$AAs?$AAt?$AA?5?$AA?9?$AA?5?$AAf?$AAi?$AAr?$AAs?$AAt?$AA?5?$AA?$DO?$AA?$DN@ 00000001400afb90     main.obj
 0002:00011c10       ??_C@_1GI@PBLIGGME@?$AAl?$AAe?$AAn?$AA?5?$AA?$DM?$AA?$DN?$AA?5?$AAs?$AAt?$AAd?$AA?3?$AA?3?$AAn?$AAu?$AAm@ 00000001400afc10     main.obj
 0002:00011c78       ??_C@_1DI@DIIOEPGG@?$AAl?$AAa?$AAs?$AAt?$AA?5?$AA?9?$AA?5?$AAf?$AAi?$AAr?$AAs?$AAt?$AA?5?$AA?$DO?$AA?$DN@ 00000001400afc78     main.obj
 0002:00011cb0       ??_C@_1KE@HMBKICCG@?$AAl?$AAa?$AAs?$AAt?$AA?5?$AA?9?$AA?5?$AAf?$AAi?$AAr?$AAs?$AAt?$AA?5?$AA?$DO?$AA?$DN@ 00000001400afcb0     main.obj
 0002:00011d60       ??_C@_1IC@BBGBLLOC@?$AAl?$AAa?$AAs?$AAt?$AA?5?$AA?9?$AA?5?$AAf?$AAi?$AAr?$AAs?$AAt?$AA?5?$AA?$DO?$AA?$DN@ 00000001400afd60     main.obj
 0002:00011de8       ??_C@_1CM@NCDNCKAA@?$AAn?$AAo?$AAt?$AA?5?$AAr?$AAe?$AAf?$AA_?$AAs?$AAt?$AAa?$AAc?$AAk?$AA?4?$AAe@ 00000001400afde8     main.obj
 0002:00011e18       ??_C@_1CO@PBLDKPAK@?$AAn?$AAo?$AAt?$AA?5?$AAk?$AAe?$AAe?$AAp?$AA_?$AAs?$AAt?$AAa?$AAc?$AAk?$AA?4@ 00000001400afe18     main.obj
 0002:00011e48       ??_C@_06ICGJLFIM@string@   00000001400afe48     main.obj
 0002:00011e50       ??_C@_07GOBOHMJA@boolean@  00000001400afe50     main.obj
 0002:00011e58       ??_C@_09BHELGMBL@discarded@ 00000001400afe58     main.obj
 0002:00011e64       ??_C@_06EBGNBFIA@number@   00000001400afe64     main.obj
 0002:00011e70       ??_C@_0BL@GOIGLPKN@unordered_map?1set?5too?5long@ 00000001400afe70     main.obj
 0002:00011e90       ??_C@_1CI@FHDNFOOM@?$AAm?$AA_?$AAo?$AAb?$AAj?$AAe?$AAc?$AAt?$AA?5?$AA?$CB?$AA?$DN?$AA?5?$AAn?$AAu?$AAl@ 00000001400afe90     main.obj
 0002:00011ec0       ??_C@_1HA@EHGEHPPM@?$AAm?$AA_?$AAi?$AAt?$AA?4?$AAo?$AAb?$AAj?$AAe?$AAc?$AAt?$AA_?$AAi?$AAt?$AAe@ 00000001400afec0     main.obj
 0002:00011f30       ??_C@_1GM@IMDIPMBO@?$AAm?$AA_?$AAi?$AAt?$AA?4?$AAa?$AAr?$AAr?$AAa?$AAy?$AA_?$AAi?$AAt?$AAe?$AAr@ 00000001400aff30     main.obj
 0002:00011fa0       ??_C@_0BB@GBBPBDAB@cannot?5get?5value@ 00000001400affa0     main.obj
 0002:00011fb8       ??_C@_0BK@OGNNAFAB@invalid?5hash?5bucket?5count@ 00000001400affb8     main.obj
 0002:00011fd8       ??_C@_0DB@MMKEGCHK@cannot?5compare?5iterators?5of?5dif@ 00000001400affd8     main.obj
 0002:00012010       ??_C@_1BM@BJPBLFEK@?$AAi?$AAs?$AA_?$AAc?$AAo?$AAn?$AAt?$AAi?$AAg?$AAu?$AAo?$AAu?$AAs@ 00000001400b0010     main.obj
 0002:00012030       ??_C@_1BE@NLJBPLFJ@?$AAv?$AAa?$AAl?$AAu?$AAe?$AA?5?$AA?$DO?$AA?5?$AA0@ 00000001400b0030     main.obj
 0002:00012050       ??_C@_1HM@HECAKDIN@?$AAr?$AAe?$AAf?$AA_?$AAs?$AAt?$AAa?$AAc?$AAk?$AA?4?$AAb?$AAa?$AAc?$AAk?$AA?$CI@ 00000001400b0050     main.obj
 0002:000120d0       ??_C@_1DM@HHKOENFM@?$AAr?$AAe?$AAf?$AA_?$AAs?$AAt?$AAa?$AAc?$AAk?$AA?4?$AAb?$AAa?$AAc?$AAk?$AA?$CI@ 00000001400b00d0     main.obj
 0002:00012110       ??_C@_1BO@EPPPKBFE@?$AAo?$AAb?$AAj?$AAe?$AAc?$AAt?$AA_?$AAe?$AAl?$AAe?$AAm?$AAe?$AAn?$AAt@ 00000001400b0110     main.obj
 0002:00012130       ??_C@_1DG@NKOEJKAG@?$AAn?$AAo?$AAt?$AA?5?$AAk?$AAe?$AAy?$AA_?$AAk?$AAe?$AAe?$AAp?$AA_?$AAs?$AAt@ 00000001400b0130     main.obj
 0002:00012168       ??_C@_0CE@BGJPELCC@iterator?5does?5not?5fit?5current?5v@ 00000001400b0168     main.obj
 0002:00012190       ??_C@_0BG@OAOABPIO@iterator?5out?5of?5range@ 00000001400b0190     main.obj
 0002:000121a8       ??_C@_0BJ@NPKCAHHP@cannot?5use?5erase?$CI?$CJ?5with?5@ 00000001400b01a8     main.obj
 0002:000121c8       ??_C@_0BN@GPCBHMHC@type?5must?5be?5string?0?5but?5is?5@ 00000001400b01c8     main.obj
 0002:000121e8       ??_C@_0BO@BEAHMENC@type?5must?5be?5boolean?0?5but?5is?5@ 00000001400b01e8     main.obj
 0002:00012208       ??_C@_0BN@EAGLCAOD@type?5must?5be?5number?0?5but?5is?5@ 00000001400b0208     main.obj
 0002:00012230       ??_7exception@detail@nlohmann@@6B@ 00000001400b0230     main.obj
 0002:00012248       ??_7?$_Packaged_state@$$A6AXXZ@std@@6B@ 00000001400b0248     main.obj
 0002:00012280       ??_7_DefaultPPLTaskScheduler@details@Concurrency@@6B@ 00000001400b0280     main.obj
 0002:00012290       ??_7?$basic_ostringstream@DU?$char_traits@D@std@@V?$allocator@D@2@@std@@6B@ 00000001400b0290     main.obj
 0002:000122a0       ??_7?$_Func_impl_no_alloc@V<lambda_f25c37099038263181b5186a3fa41b37>@@X$$V@std@@6B@ 00000001400b02a0     main.obj
 0002:000122d8       ??_7filesystem_error@filesystem@std@@6B@ 00000001400b02d8     main.obj
 0002:000122f0       ??_7_Generic_error_category@std@@6B@ 00000001400b02f0     main.obj
 0002:00012328       ??_7parse_error@detail@nlohmann@@6B@ 00000001400b0328     main.obj
 0002:00012340       ??_7?$output_string_adapter@DV?$basic_string@DU?$char_traits@D@std@@V?$allocator@D@2@@std@@@detail@nlohmann@@6B@ 00000001400b0340     main.obj
 0002:00012360       ??_7range_error@std@@6B@   00000001400b0360     main.obj
 0002:00012378       ??_7?$CipherModeFinalTemplate_CipherHolder@V?$BlockCipherFinal@$00VDec@Rijndael@CryptoPP@@@CryptoPP@@VCBC_Decryption@2@@CryptoPP@@6BSimpleKeyingInterface@1@@ 00000001400b0378     main.obj
 0002:00012408       ??_7?$CipherModeFinalTemplate_CipherHolder@V?$BlockCipherFinal@$00VDec@Rijndael@CryptoPP@@@CryptoPP@@VCBC_Decryption@2@@CryptoPP@@6BStreamTransformation@1@@ 00000001400b0408     main.obj
 0002:00012490       ??_7_CancellationTokenRegistration@details@Concurrency@@6B@ 00000001400b0490     main.obj
 0002:000124b0       ??_7BaseN_Encoder@CryptoPP@@6BWaitable@1@@ 00000001400b04b0     main.obj
 0002:000124d0       ??_7_RefCounter@details@Concurrency@@6B@ 00000001400b04d0     main.obj
 0002:000124e8       ??_7?$_InitialTaskHandle@XV<lambda_202dd44b79ed805f6289af950b2eac1c>@@U_TypeSelectorNoAsync@details@Concurrency@@@?$task@E@Concurrency@@6B@ 00000001400b04e8     main.obj
 0002:00012500       ??_7?$basic_filebuf@DU?$char_traits@D@std@@@std@@6B@ 00000001400b0500     main.obj
 0002:00012578       ??_8?$basic_ostringstream@DU?$char_traits@D@std@@V?$allocator@D@2@@std@@7B@ 00000001400b0578     main.obj
 0002:00012578       ??_8?$basic_stringstream@DU?$char_traits@D@std@@V?$allocator@D@2@@std@@7B?$basic_ostream@DU?$char_traits@D@std@@@1@@ 00000001400b0578     main.obj
 0002:00012588       ??_7out_of_range@detail@nlohmann@@6B@ 00000001400b0588     main.obj
 0002:000125a0       ??_7BaseN_Encoder@CryptoPP@@6BAlgorithm@1@@ 00000001400b05a0     main.obj
 0002:00012730       ??_7Grouper@CryptoPP@@6BWaitable@1@@ 00000001400b0730     main.obj
 0002:00012750       ??_7?$codecvt_utf8@_W$0BAPPPP@$0A@@std@@6B@ 00000001400b0750     main.obj
 0002:000127a8       ??_7?$basic_ofstream@DU?$char_traits@D@std@@@std@@6B@ 00000001400b07a8     main.obj
 0002:000127b0       ?_Unknown_error@?4??message@_System_error_category@std@@UEBA?AV?$basic_string@DU?$char_traits@D@std@@V?$allocator@D@2@@3@H@Z@4QBDB 00000001400b07b0     main.obj
 0002:000127c0       ?utf8d@?1??decode@?$serializer@V?$basic_json@Vmap@std@@Vvector@2@V?$basic_string@DU?$char_traits@D@std@@V?$allocator@D@2@@2@_N_J_KNVallocator@2@Uadl_serializer@nlohmann@@@nlohmann@@@detail@nlohmann@@CAEAEAEAEAIE@Z@4V?$array@E$0BJA@@std@@B 00000001400b07c0     main.obj
 0002:00012958       ??_7?$_PPLTaskHandle@EU?$_InitialTaskHandle@XV<lambda_202dd44b79ed805f6289af950b2eac1c>@@U_TypeSelectorNoAsync@details@Concurrency@@@?$task@E@Concurrency@@U_TaskProcHandle@details@3@@details@Concurrency@@6B@ 00000001400b0958     main.obj
 0002:00012970       ??_7?$BlockCipherFinal@$00VDec@Rijndael@CryptoPP@@@CryptoPP@@6BSimpleKeyingInterface@1@@ 00000001400b0970     main.obj
 0002:000129f0       ??_7?$_Ref_count_obj2@Vinput_buffer_adapter@detail@nlohmann@@@std@@6B@ 00000001400b09f0     main.obj
 0002:00012a18       ??_7AutoSeededRandomPool@CryptoPP@@6B@ 00000001400b0a18     main.obj
 0002:00012a80       ?digits_to_99@?1???$dump_integer@_J$0A@@?$serializer@V?$basic_json@Vmap@std@@Vvector@2@V?$basic_string@DU?$char_traits@D@std@@V?$allocator@D@2@@2@_N_J_KNVallocator@2@Uadl_serializer@nlohmann@@@nlohmann@@@detail@nlohmann@@AEAAX_J@Z@4V?$array@V?$array@D$01@std@@$0GE@@std@@B 00000001400b0a80     main.obj
 0002:00012a80       ?digits_to_99@?1???$dump_integer@_K$0A@@?$serializer@V?$basic_json@Vmap@std@@Vvector@2@V?$basic_string@DU?$char_traits@D@std@@V?$allocator@D@2@@2@_N_J_KNVallocator@2@Uadl_serializer@nlohmann@@@nlohmann@@@detail@nlohmann@@AEAAX_K@Z@4V?$array@V?$array@D$01@std@@$0GE@@std@@B 00000001400b0a80     main.obj
 0002:00012b50       ??_7_Future_error_category2@std@@6B@ 00000001400b0b50     main.obj
 0002:00012b88       ??_7?$_Associated_state@H@std@@6B@ 00000001400b0b88     main.obj
 0002:00012bc0       ??_7Base64Encoder@CryptoPP@@6BAlgorithm@1@@ 00000001400b0bc0     main.obj
 0002:00012da8       ??_8?$basic_ofstream@DU?$char_traits@D@std@@@std@@7B@ 00000001400b0da8     main.obj
 0002:00012db8       ??_7?$basic_stringbuf@DU?$char_traits@D@std@@V?$allocator@D@2@@std@@6B@ 00000001400b0db8     main.obj
 0002:00012e38       ??_7?$_Task_async_state@X@std@@6B@ 00000001400b0e38     main.obj
 0002:00012e70       ??_7?$_Ref_count_obj2@U?$_Task_impl@E@details@Concurrency@@@std@@6B@ 00000001400b0e70     main.obj
 0002:00012e98       ??_7?$_Ref_count_obj2@V?$output_string_adapter@DV?$basic_string@DU?$char_traits@D@std@@V?$allocator@D@2@@std@@@detail@nlohmann@@@std@@6B@ 00000001400b0e98     main.obj
 0002:00012ec0       ??_7_TaskProcHandle@details@Concurrency@@6B@ 00000001400b0ec0     main.obj
 0002:00012ed8       ??_7runtime_error@std@@6B@ 00000001400b0ed8     main.obj
 0002:00012ef0       ??_7?$_Func_impl_no_alloc@V<lambda_763529b0c7473cbc215a52d189ac9b18>@@X$$V@std@@6B@ 00000001400b0ef0     main.obj
 0002:00012f28       ??_7_System_error@std@@6B@ 00000001400b0f28     main.obj
 0002:00012f40       ??_7?$basic_stringstream@DU?$char_traits@D@std@@V?$allocator@D@2@@std@@6B@ 00000001400b0f40     main.obj
 0002:00012f50       ??_7Grouper@CryptoPP@@6BAlgorithm@1@@ 00000001400b0f50     main.obj
 0002:000130d0       ??_8?$basic_ifstream@DU?$char_traits@D@std@@@std@@7B@ 00000001400b10d0     main.obj
 0002:000130e0       ??_7Base64Encoder@CryptoPP@@6BWaitable@1@@ 00000001400b10e0     main.obj
 0002:00013100       ??_7input_buffer_adapter@detail@nlohmann@@6B@ 00000001400b1100     main.obj
 0002:00013118       ??_7Base64Decoder@CryptoPP@@6BWaitable@1@@ 00000001400b1118     main.obj
 0002:00013138       ??_7?$_Func_impl_no_alloc@V<lambda_202dd44b79ed805f6289af950b2eac1c>@@X$$V@std@@6B@ 00000001400b1138     main.obj
 0002:00013168       ??_8?$basic_istringstream@DU?$char_traits@D@std@@V?$allocator@D@2@@std@@7B@ 00000001400b1168     main.obj
 0002:00013178       ??_7?$BlockCipherFinal@$00VDec@Rijndael@CryptoPP@@@CryptoPP@@6BBlockTransformation@1@@ 00000001400b1178     main.obj
 0002:000131d8       ??_7?$_Func_impl_no_alloc@V<lambda_052e919cc0e5399df76dff3972c0cac1>@@E$$V@std@@6B@ 00000001400b11d8     main.obj
 0002:00013210       ??_7?$_Task_impl@E@details@Concurrency@@6B@ 00000001400b1210     main.obj
 0002:00013228       ??_7_System_error_category@std@@6B@ 00000001400b1228     main.obj
 0002:00013260       ??_7type_error@detail@nlohmann@@6B@ 00000001400b1260     main.obj
 0002:00013278       ??_7Base64Decoder@CryptoPP@@6BAlgorithm@1@@ 00000001400b1278     main.obj
 0002:00013408       ??_7?$_Func_impl_no_alloc@V?$_Fake_no_copy_callable_adapter@A6AX_N@Z_N@std@@X$$V@std@@6B@ 00000001400b1408     main.obj
 0002:00013438       ??_8?$basic_stringstream@DU?$char_traits@D@std@@V?$allocator@D@2@@std@@7B?$basic_istream@DU?$char_traits@D@std@@@1@@ 00000001400b1438     main.obj
 0002:00013448       ??_7invalid_operation@Concurrency@@6B@ 00000001400b1448     main.obj
 0002:00013460       ??_7?$basic_ifstream@DU?$char_traits@D@std@@@std@@6B@ 00000001400b1460     main.obj
 0002:00013470       ??_7?$_Ref_count_obj2@U_ExceptionHolder@details@Concurrency@@@std@@6B@ 00000001400b1470     main.obj
 0002:00013490       ?kCachedPowers@?1??get_cached_power_for_binary_exponent@dtoa_impl@detail@nlohmann@@YA?AUcached_power@234@H@Z@4V?$array@Ucached_power@dtoa_impl@detail@nlohmann@@$0EP@@std@@B 00000001400b1490     main.obj
 0002:00013988       ??_7invalid_iterator@detail@nlohmann@@6B@ 00000001400b1988     main.obj
 0002:00013998       __real@00800000            00000001400b1998     imgui_widgets.obj
 0002:0001399c       __real@1e3ce508            00000001400b199c     imgui.obj
 0002:000139a0       __real@358637bd            00000001400b19a0     imgui_widgets.obj
 0002:000139a4       __real@3727c5ac            00000001400b19a4     imgui_widgets.obj
 0002:000139a8       __real@37800000            00000001400b19a8     imgui_draw.obj
 0002:000139ac       __real@38800000            00000001400b19ac     imgui_draw.obj
 0002:000139b0       __real@38d1b717            00000001400b19b0     imgui_widgets.obj
 0002:000139b4       __real@3b808081            00000001400b19b4     imgui_widgets.obj
 0002:000139b8       __real@3c23d70a            00000001400b19b8     imgui_widgets.obj
 0002:000139bc       __real@3c888889            00000001400b19bc     imgui_impl_glfw.obj
 0002:000139c0       __real@3cdd2f1b            00000001400b19c0     imgui_widgets.obj
 0002:000139c4       __real@3d23d70a            00000001400b19c4     imgui.obj
 0002:000139c8       __real@3d4ccccd            00000001400b19c8     imgui.obj
 0002:000139cc       __real@3da3d70a            00000001400b19cc     imgui_widgets.obj
 0002:000139d0       __real@3dcccccd            00000001400b19d0     imgui_demo.obj
 0002:000139d4       __real@3e19999a            00000001400b19d4     imgui.obj
 0002:000139d8       __real@3e2aaaab            00000001400b19d8     imgui.obj
 0002:000139dc       __real@3e4ccccd            00000001400b19dc     imgui.obj
 0002:000139e0       __real@3e800000            00000001400b19e0     imgui_draw.obj
 0002:000139e4       __real@3e99999a            00000001400b19e4     imgui.obj
 0002:000139e8       __real@3eb33333            00000001400b19e8     imgui_draw.obj
 0002:000139ec       __real@3ecccccd            00000001400b19ec     imgui_draw.obj
 0002:000139f0       __real@3efae148            00000001400b19f0     imgui_draw.obj
 0002:000139f4       __real@3f000000            00000001400b19f4     imgui_draw.obj
 0002:000139f8       __real@3f0ccccd            00000001400b19f8     imgui_widgets.obj
 0002:000139fc       __real@3f199999            00000001400b19fc     imgui_impl_glfw.obj
 0002:00013a00       __real@3f19999a            00000001400b1a00     imgui_draw.obj
 0002:00013a04       __real@3f266666            00000001400b1a04     imgui_widgets.obj
 0002:00013a08       __real@3f2b851f            00000001400b1a08     imgui.obj
 0002:00013a0c       __real@3f333333            00000001400b1a0c     imgui.obj
 0002:00013a10       __real@3f3851ec            00000001400b1a10     imgui.obj
 0002:00013a14       __real@3f400000            00000001400b1a14     imgui.obj
 0002:00013a18       __real@3f490fdb            00000001400b1a18     imgui.obj
 0002:00013a1c       __real@3f4ccccd            00000001400b1a1c     imgui.obj
 0002:00013a20       __real@3f5db22d            00000001400b1a20     imgui.obj
 0002:00013a24       __real@3f5db3d0            00000001400b1a24     imgui_widgets.obj
 0002:00013a28       __real@3f733333            00000001400b1a28     imgui.obj
 0002:00013a2c       __real@3f800000            00000001400b1a2c     imgui_widgets.obj
 0002:00013a30       __real@3f8147ae            00000001400b1a30     imgui_draw.obj
 0002:00013a34       __real@3f99999a            00000001400b1a34     imgui_widgets.obj
 0002:00013a38       __real@3fa00000            00000001400b1a38     imgui.obj
 0002:00013a3c       __real@3faccccd            00000001400b1a3c     imgui.obj
 0002:00013a40       __real@3fb33333            00000001400b1a40     imgui_widgets.obj
 0002:00013a44       __real@3fc00000            00000001400b1a44     imgui_widgets.obj
 0002:00013a48       __real@3fd0000000000000    00000001400b1a48     main.obj
 0002:00013a50       __real@3fe8000000000000    00000001400b1a50     main.obj
 0002:00013a58       __real@3ff0000000000000    00000001400b1a58     imgui_impl_opengl2.obj
 0002:00013a60       __real@3ff4000000000000    00000001400b1a60     main.obj
 0002:00013a68       __real@3ffeb852            00000001400b1a68     imgui_draw.obj
 0002:00013a6c       __real@40000000            00000001400b1a6c     imgui.obj
 0002:00013a70       __real@40200000            00000001400b1a70     imgui.obj
 0002:00013a78       __real@4024000000000000    00000001400b1a78     imgui_widgets.obj
 0002:00013a80       __real@403f5c29            00000001400b1a80     imgui_widgets.obj
 0002:00013a84       __real@40400000            00000001400b1a84     imgui.obj
 0002:00013a88       __real@40490fdb            00000001400b1a88     imgui_draw.obj
 0002:00013a8c       __real@40600000            00000001400b1a8c     imgui.obj
 0002:00013a90       __real@40666666            00000001400b1a90     imgui_widgets.obj
 0002:00013a94       __real@40800000            00000001400b1a94     imgui.obj
 0002:00013a98       __real@40a00000            00000001400b1a98     imgui.obj
 0002:00013a9c       __real@40b84e89            00000001400b1a9c     imgui_widgets.obj
 0002:00013aa0       __real@40bc7edd            00000001400b1aa0     imgui_widgets.obj
 0002:00013aa4       __real@40c00000            00000001400b1aa4     imgui.obj
 0002:00013aa8       __real@40c90fdb            00000001400b1aa8     imgui_draw.obj
 0002:00013ab0       __real@40efffe000000000    00000001400b1ab0     main.obj
 0002:00013ab8       __real@41000000            00000001400b1ab8     imgui.obj
 0002:00013abc       __real@41200000            00000001400b1abc     imgui_widgets.obj
 0002:00013ac0       __real@41400000            00000001400b1ac0     imgui_draw.obj
 0002:00013ac4       __real@41500000            00000001400b1ac4     imgui_draw.obj
 0002:00013ac8       __real@41600000            00000001400b1ac8     main.obj
 0002:00013acc       __real@41700000            00000001400b1acc     main.obj
 0002:00013ad0       __real@41800000            00000001400b1ad0     imgui.obj
 0002:00013ad4       __real@41c00000            00000001400b1ad4     imgui.obj
 0002:00013ad8       __real@41c80000            00000001400b1ad8     main.obj
 0002:00013adc       __real@42c80000            00000001400b1adc     imgui_widgets.obj
 0002:00013ae0       __real@42da0000            00000001400b1ae0     imgui_draw.obj
 0002:00013ae4       __real@42f00000            00000001400b1ae4     imgui.obj
 0002:00013ae8       __real@43000000            00000001400b1ae8     imgui_widgets.obj
 0002:00013aec       __real@43480000            00000001400b1aec     main.obj
 0002:00013af0       __real@434c0000            00000001400b1af0     imgui_widgets.obj
 0002:00013af4       __real@437f0000            00000001400b1af4     imgui_widgets.obj
 0002:00013af8       __real@43e0000000000000    00000001400b1af8     imgui_widgets.obj
 0002:00013b00       __real@44160000            00000001400b1b00     imgui.obj
 0002:00013b04       __real@44333333            00000001400b1b04     imgui_draw.obj
 0002:00013b08       __real@44480000            00000001400b1b08     imgui.obj
 0002:00013b0c       __real@447a0000            00000001400b1b0c     imgui.obj
 0002:00013b10       __real@44b33333            00000001400b1b10     imgui_draw.obj
 0002:00013b14       __real@45333333            00000001400b1b14     imgui_draw.obj
 0002:00013b18       __real@47efffffe0000000    00000001400b1b18     imgui_widgets.obj
 0002:00013b20       __real@5f000000            00000001400b1b20     imgui_widgets.obj
 0002:00013b24       __real@7f7fffff            00000001400b1b24     imgui_widgets.obj
 0002:00013b28       __real@7fefffffffffffff    00000001400b1b28     imgui_widgets.obj
 0002:00013b30       __real@be99999a            00000001400b1b30     imgui_impl_glfw.obj
 0002:00013b34       __real@beaaaaab            00000001400b1b34     imgui.obj
 0002:00013b38       __real@bf000000            00000001400b1b38     imgui_widgets.obj
 0002:00013b3c       __real@bf199999            00000001400b1b3c     imgui_impl_glfw.obj
 0002:00013b40       __real@bf400000            00000001400b1b40     imgui.obj
 0002:00013b44       __real@bf5db22d            00000001400b1b44     imgui.obj
 0002:00013b48       __real@bf5db3d0            00000001400b1b48     imgui_widgets.obj
 0002:00013b4c       __real@bf800000            00000001400b1b4c     imgui_demo.obj
 0002:00013b50       __real@c2c80000            00000001400b1b50     imgui_widgets.obj
 0002:00013b54       __real@c3480000            00000001400b1b54     main.obj
 0002:00013b58       __real@c7efffffe0000000    00000001400b1b58     imgui.obj
 0002:00013b60       __real@c87a0000            00000001400b1b60     imgui.obj
 0002:00013b64       __real@ff7fffff            00000001400b1b64     imgui.obj
 0002:00013b68       __real@ffefffffffffffff    00000001400b1b68     imgui_widgets.obj
 0002:00013b70       __xmm@0000000000000000ffffffffffffffff 00000001400b1b70     main.obj
 0002:00013b80       __xmm@00000000000000020000000300000001 00000001400b1b80     imgui.obj
 0002:00013b90       __xmm@00000000000000070000000000000000 00000001400b1b90     main.obj
 0002:00013ba0       __xmm@000000000000000f0000000000000000 00000001400b1ba0     main.obj
 0002:00013bb0       __xmm@00000001000000010000000100000001 00000001400b1bb0     imgui_draw.obj
 0002:00013bc0       __xmm@00000002000000000000000100000003 00000001400b1bc0     imgui.obj
 0002:00013bd0       __xmm@00000003000000020000000100000000 00000001400b1bd0     imgui_draw.obj
 0002:00013be0       __xmm@000000bf000000800000008f00000080 00000001400b1be0     main.obj
 0002:00013bf0       __xmm@000000bf000000800000009f00000080 00000001400b1bf0     main.obj
 0002:00013c00       __xmm@000000bf00000080000000bf00000080 00000001400b1c00     main.obj
 0002:00013c10       __xmm@000000bf00000080000000bf00000090 00000001400b1c10     main.obj
 0002:00013c20       __xmm@000000bf00000080000000bf000000a0 00000001400b1c20     main.obj
 0002:00013c30       __xmm@3dcccccd3dcccccd3dcccccd3dcccccd 00000001400b1c30     main.obj
 0002:00013c40       __xmm@3e23d70a3f8000003f8000003f800000 00000001400b1c40     main.obj
 0002:00013c50       __xmm@3e4ccccd3f4ccccd3ecccccd00000000 00000001400b1c50     main.obj
 0002:00013c60       __xmm@3e4ccccd3f4ccccd3f4ccccd3f4ccccd 00000001400b1c60     imgui_draw.obj
 0002:00013c70       __xmm@3e8000003f7ae1483f170a3d3e851eb8 00000001400b1c70     imgui_draw.obj
 0002:00013c80       __xmm@3e99999a3f4ccccd3ecccccd00000000 00000001400b1c80     main.obj
 0002:00013c90       __xmm@3e99999a3f8000003f8000003f800000 00000001400b1c90     main.obj
 0002:00013ca0       __xmm@3e9eb8523f7ae1483f170a3d3e851eb8 00000001400b1ca0     imgui_draw.obj
 0002:00013cb0       __xmm@3eb333333e4ccccd3e4ccccd3e4ccccd 00000001400b1cb0     main.obj
 0002:00013cc0       __xmm@3eb333333f4ccccd3f4ccccd3f4ccccd 00000001400b1cc0     imgui_draw.obj
 0002:00013cd0       __xmm@3eb333333f7ae1483f170a3d3e851eb8 00000001400b1cd0     imgui_draw.obj
 0002:00013ce0       __xmm@3eb333333f8000000000000000000000 00000001400b1ce0     main.obj
 0002:00013cf0       __xmm@3ecccccd3f4ccccd3ecccccd00000000 00000001400b1cf0     main.obj
 0002:00013d00       __xmm@3ecccccd3f7ae1483f170a3d3e851eb8 00000001400b1d00     imgui_draw.obj
 0002:00013d10       __xmm@3ee666663f6666663ecccccd00000000 00000001400b1d10     main.obj
 0002:00013d20       __xmm@3f0000003f0000003edc28f63edc28f6 00000001400b1d20     imgui_draw.obj
 0002:00013d30       __xmm@3f0000003f0000003f0000003f000000 00000001400b1d30     main.obj
 0002:00013d40       __xmm@3f0000003f6666663f6666663f666666 00000001400b1d40     main.obj
 0002:00013d50       __xmm@3f028f5c000000000000000000000000 00000001400b1d50     imgui_draw.obj
 0002:00013d60       __xmm@3f07ae143ca3d70a3ca3d70a3ca3d70a 00000001400b1d60     imgui_draw.obj
 0002:00013d70       __xmm@3f0a3d713ef5c28f3e947ae13e23d70a 00000001400b1d70     imgui_draw.obj
 0002:00013d80       __xmm@3f19999a3e99999a3e8000003e4ccccd 00000001400b1d80     main.obj
 0002:00013d90       __xmm@3f19999a3f0000003f0000003f000000 00000001400b1d90     main.obj
 0002:00013da0       __xmm@3f19999a3f4ccccd3ec7ae1400000000 00000001400b1da0     main.obj
 0002:00013db0       __xmm@3f19999a3f8000003f51eb853f47ae14 00000001400b1db0     main.obj
 0002:00013dc0       __xmm@3f2b851f3f7ae1483f170a3d3e851eb8 00000001400b1dc0     imgui_draw.obj
 0002:00013dd0       __xmm@3f3333333f8000003f8000003f800000 00000001400b1dd0     imgui_draw.obj
 0002:00013de0       __xmm@3f47ae143f2e147b3eae147b00000000 00000001400b1de0     main.obj
 0002:00013df0       __xmm@3f47ae143f4000003ecccccd3dcccccd 00000001400b1df0     imgui_draw.obj
 0002:00013e00       __xmm@3f4ccccd3f0ccccd3ecccccd00000000 00000001400b1e00     main.obj
 0002:00013e10       __xmm@3f4ccccd3f5eb8523f07ae1400000000 00000001400b1e10     main.obj
 0002:00013e20       __xmm@3f4ccccd3f6666663ee6666600000000 00000001400b1e20     main.obj
 0002:00013e30       __xmm@3f4ccccd3f7ae1483f170a3d3e851eb8 00000001400b1e30     imgui_draw.obj
 0002:00013e40       __xmm@3f51eb853f11eb853e8f5c2900000000 00000001400b1e40     main.obj
 0002:00013e50       __xmm@3f547ae13f0a3d713e8a3d7100000000 00000001400b1e50     main.obj
 0002:00013e60       __xmm@3f570a3d3f2666663eb3333300000000 00000001400b1e60     main.obj
 0002:00013e70       __xmm@3f570a3d3f3ae1483ecccccd00000000 00000001400b1e70     main.obj
 0002:00013e80       __xmm@3f5eb8523f2147ae3ea3d70a00000000 00000001400b1e80     main.obj
 0002:00013e90       __xmm@3f666666000000003f8000003f800000 00000001400b1e90     imgui_draw.obj
 0002:00013ea0       __xmm@3f6666663f8000003f51eb853f47ae14 00000001400b1ea0     main.obj
 0002:00013eb0       __xmm@3f6b851f000000000000000000000000 00000001400b1eb0     main.obj
 0002:00013ec0       __xmm@3f6b851f3e0f5c293de147ae3de147ae 00000001400b1ec0     main.obj
 0002:00013ed0       __xmm@3f70a3d73d75c28f3d75c28f3d75c28f 00000001400b1ed0     imgui_draw.obj
 0002:00013ee0       __xmm@3f70a3d73da3d70a3da3d70a3da3d70a 00000001400b1ee0     imgui_draw.obj
 0002:00013ef0       __xmm@3f7333333f7ae1483f170a3d3e851eb8 00000001400b1ef0     imgui_draw.obj
 0002:00013f00       __xmm@3f80000000000000000000003f800000 00000001400b1f00     imgui_draw.obj
 0002:00013f10       __xmm@3f800000000000003f19999a3f800000 00000001400b1f10     imgui_draw.obj
 0002:00013f20       __xmm@3f800000000000003f3333333f666666 00000001400b1f20     imgui_draw.obj
 0002:00013f30       __xmm@3f8000003d23d70a3d23d70a3d23d70a 00000001400b1f30     imgui_draw.obj
 0002:00013f40       __xmm@3f8000003e0f5c293e0f5c293e0f5c29 00000001400b1f40     imgui_draw.obj
 0002:00013f50       __xmm@3f8000003e6b851f3e6b851f3e6b851f 00000001400b1f50     main.obj
 0002:00013f60       __xmm@3f8000003e9eb8523e9eb8523e9eb852 00000001400b1f60     imgui_draw.obj
 0002:00013f70       __xmm@3f8000003eb333333edc28f63f800000 00000001400b1f70     imgui_draw.obj
 0002:00013f80       __xmm@3f8000003ed1eb853ed1eb853ed1eb85 00000001400b1f80     imgui_draw.obj
 0002:00013f90       __xmm@3f8000003ef5c28f3e947ae13e23d70a 00000001400b1f90     imgui_draw.obj
 0002:00013fa0       __xmm@3f8000003f0000003f0000003f000000 00000001400b1fa0     imgui_draw.obj
 0002:00013fb0       __xmm@3f8000003f028f5c3f028f5c3f028f5c 00000001400b1fb0     imgui_draw.obj
 0002:00013fc0       __xmm@3f8000003f19999a3f19999a3f19999a 00000001400b1fc0     main.obj
 0002:00013fd0       __xmm@3f8000003f1c28f63ecccccd00000000 00000001400b1fd0     main.obj
 0002:00013fe0       __xmm@3f8000003f1c28f63f1c28f63f1c28f6 00000001400b1fe0     imgui_draw.obj
 0002:00013ff0       __xmm@3f8000003f23d70a3ed1eb8500000000 00000001400b1ff0     main.obj
 0002:00014000       __xmm@3f8000003f30a3d73ef0a3d700000000 00000001400b2000     main.obj
 0002:00014010       __xmm@3f8000003f3333333f19999a3ed1eb85 00000001400b2010     main.obj
 0002:00014020       __xmm@3f8000003f35c28f3ef5c28f00000000 00000001400b2020     main.obj
 0002:00014030       __xmm@3f8000003f4000003ecccccd3dcccccd 00000001400b2030     imgui_draw.obj
 0002:00014040       __xmm@3f8000003f4ccccd3f0a3d7100000000 00000001400b2040     main.obj
 0002:00014050       __xmm@3f8000003f6147ae3f051eb83e75c28f 00000001400b2050     imgui_draw.obj
 0002:00014060       __xmm@3f8000003f6666663f3333333f0f5c29 00000001400b2060     main.obj
 0002:00014070       __xmm@3f8000003f6666663f6666663f666666 00000001400b2070     main.obj
 0002:00014080       __xmm@3f8000003f7ae1483f07ae143d75c28f 00000001400b2080     imgui_draw.obj
 0002:00014090       __xmm@3f8000003f7ae1483f170a3d3e851eb8 00000001400b2090     imgui_draw.obj
 0002:000140a0       __xmm@3f8000003f8000003f8000003f800000 00000001400b20a0     imgui_draw.obj
 0002:000140b0       __xmm@3ff0000000000000bff0000000000000 00000001400b20b0     imgui_impl_opengl2.obj
 0002:000140c0       __xmm@437f0000437f0000437f0000437f0000 00000001400b20c0     imgui_widgets.obj
 0002:000140d0       __xmm@4600000046000000c6000000c6000000 00000001400b20d0     imgui_draw.obj
 0002:000140e0       __xmm@7fffffff7fffffff7fffffff7fffffff 00000001400b20e0     imgui.obj
 0002:000140f0       __xmm@80000000000000008000000000000000 00000001400b20f0     imgui_widgets.obj
 0002:00014100       __xmm@80000000800000008000000080000000 00000001400b2100     imgui_widgets.obj
 0002:00014130       _load_config_used          00000001400b2130     MSVCRT:loadcfg.obj
 0002:00014260       _tls_used                  00000001400b2260     MSVCRT:tlssup.obj
 0002:00014290       ??_R4InvalidDataFormat@CryptoPP@@6B@ 00000001400b2290     cryptopp-static:cryptlib.cpp.obj
 0002:000142b8       ??_R3InvalidDataFormat@CryptoPP@@8 00000001400b22b8     cryptopp-static:cryptlib.cpp.obj
 0002:000142d0       ??_R2InvalidDataFormat@CryptoPP@@8 00000001400b22d0     cryptopp-static:cryptlib.cpp.obj
 0002:000142f0       ??_R1A@?0A@EA@InvalidDataFormat@CryptoPP@@8 00000001400b22f0     cryptopp-static:cryptlib.cpp.obj
 0002:00014318       ??_R4InvalidCiphertext@CryptoPP@@6B@ 00000001400b2318     cryptopp-static:cryptlib.cpp.obj
 0002:00014340       ??_R3InvalidCiphertext@CryptoPP@@8 00000001400b2340     cryptopp-static:cryptlib.cpp.obj
 0002:00014358       ??_R2InvalidCiphertext@CryptoPP@@8 00000001400b2358     cryptopp-static:cryptlib.cpp.obj
 0002:00014380       ??_R1A@?0A@EA@InvalidCiphertext@CryptoPP@@8 00000001400b2380     cryptopp-static:cryptlib.cpp.obj
 0002:000143a8       ??_R4NoChannelSupport@BufferedTransformation@CryptoPP@@6B@ 00000001400b23a8     cryptopp-static:cryptlib.cpp.obj
 0002:000143d0       ??_R3NoChannelSupport@BufferedTransformation@CryptoPP@@8 00000001400b23d0     cryptopp-static:cryptlib.cpp.obj
 0002:000143e8       ??_R2NoChannelSupport@BufferedTransformation@CryptoPP@@8 00000001400b23e8     cryptopp-static:cryptlib.cpp.obj
 0002:00014410       ??_R1A@?0A@EA@NoChannelSupport@BufferedTransformation@CryptoPP@@8 00000001400b2410     cryptopp-static:cryptlib.cpp.obj
 0002:00014438       ??_R4InvalidKeyLength@CryptoPP@@6B@ 00000001400b2438     cryptopp-static:cryptlib.cpp.obj
 0002:00014460       ??_R3InvalidKeyLength@CryptoPP@@8 00000001400b2460     cryptopp-static:cryptlib.cpp.obj
 0002:00014478       ??_R2InvalidKeyLength@CryptoPP@@8 00000001400b2478     cryptopp-static:cryptlib.cpp.obj
 0002:000144a0       ??_R1A@?0A@EA@InvalidKeyLength@CryptoPP@@8 00000001400b24a0     cryptopp-static:cryptlib.cpp.obj
 0002:000144c8       ??_R4BitBucket@CryptoPP@@6BAlgorithm@1@@ 00000001400b24c8     cryptopp-static:cryptlib.cpp.obj
 0002:000144f0       ??_R3BitBucket@CryptoPP@@8 00000001400b24f0     cryptopp-static:cryptlib.cpp.obj
 0002:00014508       ??_R2BitBucket@CryptoPP@@8 00000001400b2508     cryptopp-static:cryptlib.cpp.obj
 0002:00014548       ??_R1A@?0A@EA@BitBucket@CryptoPP@@8 00000001400b2548     cryptopp-static:cryptlib.cpp.obj
 0002:00014570       ??_R4BitBucket@CryptoPP@@6BWaitable@1@@ 00000001400b2570     cryptopp-static:cryptlib.cpp.obj
 0002:00014598       ??_R4ArraySink@CryptoPP@@6BAlgorithm@1@@ 00000001400b2598     cryptopp-static:cryptlib.cpp.obj
 0002:000145c0       ??_R3ArraySink@CryptoPP@@8 00000001400b25c0     cryptopp-static:cryptlib.cpp.obj
 0002:000145d8       ??_R2ArraySink@CryptoPP@@8 00000001400b25d8     cryptopp-static:cryptlib.cpp.obj
 0002:00014618       ??_R1A@?0A@EA@ArraySink@CryptoPP@@8 00000001400b2618     cryptopp-static:cryptlib.cpp.obj
 0002:00014640       ??_R4ArraySink@CryptoPP@@6BWaitable@1@@ 00000001400b2640     cryptopp-static:cryptlib.cpp.obj
 0002:00014668       ??_R4SelfTestFailure@CryptoPP@@6B@ 00000001400b2668     cryptopp-static:cryptlib.cpp.obj
 0002:00014690       ??_R3SelfTestFailure@CryptoPP@@8 00000001400b2690     cryptopp-static:cryptlib.cpp.obj
 0002:000146a8       ??_R2SelfTestFailure@CryptoPP@@8 00000001400b26a8     cryptopp-static:cryptlib.cpp.obj
 0002:000146c8       ??_R1A@?0A@EA@SelfTestFailure@CryptoPP@@8 00000001400b26c8     cryptopp-static:cryptlib.cpp.obj
 0002:000146f0       ??_R4NullNameValuePairs@CryptoPP@@6B@ 00000001400b26f0     cryptopp-static:cryptlib.cpp.obj
 0002:00014718       ??_R3NullNameValuePairs@CryptoPP@@8 00000001400b2718     cryptopp-static:cryptlib.cpp.obj
 0002:00014730       ??_R2NullNameValuePairs@CryptoPP@@8 00000001400b2730     cryptopp-static:cryptlib.cpp.obj
 0002:00014748       ??_R1A@?0A@EA@NullNameValuePairs@CryptoPP@@8 00000001400b2748     cryptopp-static:cryptlib.cpp.obj
 0002:00014770       ??_R4CombinedNameValuePairs@CryptoPP@@6B@ 00000001400b2770     cryptopp-static:base64.cpp.obj
 0002:00014798       ??_R3CombinedNameValuePairs@CryptoPP@@8 00000001400b2798     cryptopp-static:base64.cpp.obj
 0002:000147b0       ??_R2CombinedNameValuePairs@CryptoPP@@8 00000001400b27b0     cryptopp-static:base64.cpp.obj
 0002:000147c8       ??_R1A@?0A@EA@CombinedNameValuePairs@CryptoPP@@8 00000001400b27c8     cryptopp-static:base64.cpp.obj
 0002:000147f0       ??_R4?$AlgorithmParametersTemplate@PEBE@CryptoPP@@6B@ 00000001400b27f0     cryptopp-static:base64.cpp.obj
 0002:00014818       ??_R3?$AlgorithmParametersTemplate@PEBE@CryptoPP@@8 00000001400b2818     cryptopp-static:base64.cpp.obj
 0002:00014830       ??_R2?$AlgorithmParametersTemplate@PEBE@CryptoPP@@8 00000001400b2830     cryptopp-static:base64.cpp.obj
 0002:00014848       ??_R1A@?0A@EA@?$AlgorithmParametersTemplate@PEBE@CryptoPP@@8 00000001400b2848     cryptopp-static:base64.cpp.obj
 0002:00014870       ??_R4?$AlgorithmParametersTemplate@E@CryptoPP@@6B@ 00000001400b2870     cryptopp-static:base64.cpp.obj
 0002:00014898       ??_R3?$AlgorithmParametersTemplate@E@CryptoPP@@8 00000001400b2898     cryptopp-static:base64.cpp.obj
 0002:000148b0       ??_R2?$AlgorithmParametersTemplate@E@CryptoPP@@8 00000001400b28b0     cryptopp-static:base64.cpp.obj
 0002:000148c8       ??_R1A@?0A@EA@?$AlgorithmParametersTemplate@E@CryptoPP@@8 00000001400b28c8     cryptopp-static:base64.cpp.obj
 0002:000148f0       ??_R4BlockingInputOnly@BufferedTransformation@CryptoPP@@6B@ 00000001400b28f0     cryptopp-static:filters.cpp.obj
 0002:00014918       ??_R3BlockingInputOnly@BufferedTransformation@CryptoPP@@8 00000001400b2918     cryptopp-static:filters.cpp.obj
 0002:00014930       ??_R2BlockingInputOnly@BufferedTransformation@CryptoPP@@8 00000001400b2930     cryptopp-static:filters.cpp.obj
 0002:00014958       ??_R1A@?0A@EA@BlockingInputOnly@BufferedTransformation@CryptoPP@@8 00000001400b2958     cryptopp-static:filters.cpp.obj
 0002:00014980       ??_R4FilterPutSpaceHelper@CryptoPP@@6B@ 00000001400b2980     cryptopp-static:filters.cpp.obj
 0002:000149a8       ??_R3FilterPutSpaceHelper@CryptoPP@@8 00000001400b29a8     cryptopp-static:filters.cpp.obj
 0002:000149c0       ??_R2FilterPutSpaceHelper@CryptoPP@@8 00000001400b29c0     cryptopp-static:filters.cpp.obj
 0002:000149d0       ??_R1A@?0A@EA@FilterPutSpaceHelper@CryptoPP@@8 00000001400b29d0     cryptopp-static:filters.cpp.obj
 0002:000149f8       ??_R4StreamTransformationFilter@CryptoPP@@6BAlgorithm@1@@ 00000001400b29f8     cryptopp-static:filters.cpp.obj
 0002:00014a20       ??_R3StreamTransformationFilter@CryptoPP@@8 00000001400b2a20     cryptopp-static:filters.cpp.obj
 0002:00014a40       ??_R2StreamTransformationFilter@CryptoPP@@8 00000001400b2a40     cryptopp-static:filters.cpp.obj
 0002:00014a98       ??_R1A@?0A@EA@StreamTransformationFilter@CryptoPP@@8 00000001400b2a98     cryptopp-static:filters.cpp.obj
 0002:00014ac0       ??_R1LJ@?0A@EA@BlockPaddingSchemeDef@CryptoPP@@8 00000001400b2ac0     cryptopp-static:filters.cpp.obj
 0002:00014ae8       ??_R3BlockPaddingSchemeDef@CryptoPP@@8 00000001400b2ae8     cryptopp-static:filters.cpp.obj
 0002:00014b00       ??_R2BlockPaddingSchemeDef@CryptoPP@@8 00000001400b2b00     cryptopp-static:filters.cpp.obj
 0002:00014b10       ??_R1A@?0A@EA@BlockPaddingSchemeDef@CryptoPP@@8 00000001400b2b10     cryptopp-static:filters.cpp.obj
 0002:00014b38       ??_R1JA@?0A@EN@FilterPutSpaceHelper@CryptoPP@@8 00000001400b2b38     cryptopp-static:filters.cpp.obj
 0002:00014b60       ??_R4StreamTransformationFilter@CryptoPP@@6BWaitable@1@@ 00000001400b2b60     cryptopp-static:filters.cpp.obj
 0002:00014b88       ??_R4StreamTransformationFilter@CryptoPP@@6B@ 00000001400b2b88     cryptopp-static:filters.cpp.obj
 0002:00014bb0       ??_R1A@?0A@EA@?$CustomSignalPropagation@VSink@CryptoPP@@@CryptoPP@@8 00000001400b2bb0     cryptopp-static:filters.cpp.obj
 0002:00014bd8       ??_R3?$CustomSignalPropagation@VSink@CryptoPP@@@CryptoPP@@8 00000001400b2bd8     cryptopp-static:filters.cpp.obj
 0002:00014bf0       ??_R2?$CustomSignalPropagation@VSink@CryptoPP@@@CryptoPP@@8 00000001400b2bf0     cryptopp-static:filters.cpp.obj
 0002:00014c30       ??_R1A@?0A@EA@?$CustomFlushPropagation@VSink@CryptoPP@@@CryptoPP@@8 00000001400b2c30     cryptopp-static:filters.cpp.obj
 0002:00014c58       ??_R3?$CustomFlushPropagation@VSink@CryptoPP@@@CryptoPP@@8 00000001400b2c58     cryptopp-static:filters.cpp.obj
 0002:00014c70       ??_R2?$CustomFlushPropagation@VSink@CryptoPP@@@CryptoPP@@8 00000001400b2c70     cryptopp-static:filters.cpp.obj
 0002:00014ca8       ??_R4OutputProxy@CryptoPP@@6BAlgorithm@1@@ 00000001400b2ca8     cryptopp-static:filters.cpp.obj
 0002:00014cd0       ??_R3OutputProxy@CryptoPP@@8 00000001400b2cd0     cryptopp-static:filters.cpp.obj
 0002:00014cf0       ??_R2OutputProxy@CryptoPP@@8 00000001400b2cf0     cryptopp-static:filters.cpp.obj
 0002:00014d38       ??_R1A@?0A@EA@OutputProxy@CryptoPP@@8 00000001400b2d38     cryptopp-static:filters.cpp.obj
 0002:00014d60       ??_R4OutputProxy@CryptoPP@@6BWaitable@1@@ 00000001400b2d60     cryptopp-static:filters.cpp.obj
 0002:00014d88       ??_R4?$AlgorithmParametersTemplate@W4BlockPaddingScheme@BlockPaddingSchemeDef@CryptoPP@@@CryptoPP@@6B@ 00000001400b2d88     cryptopp-static:filters.cpp.obj
 0002:00014db0       ??_R3?$AlgorithmParametersTemplate@W4BlockPaddingScheme@BlockPaddingSchemeDef@CryptoPP@@@CryptoPP@@8 00000001400b2db0     cryptopp-static:filters.cpp.obj
 0002:00014dc8       ??_R2?$AlgorithmParametersTemplate@W4BlockPaddingScheme@BlockPaddingSchemeDef@CryptoPP@@@CryptoPP@@8 00000001400b2dc8     cryptopp-static:filters.cpp.obj
 0002:00014de0       ??_R1A@?0A@EA@?$AlgorithmParametersTemplate@W4BlockPaddingScheme@BlockPaddingSchemeDef@CryptoPP@@@CryptoPP@@8 00000001400b2de0     cryptopp-static:filters.cpp.obj
 0002:00014e08       ??_R4AlgorithmParameters@CryptoPP@@6B@ 00000001400b2e08     cryptopp-static:algparam.cpp.obj
 0002:00014e30       ??_R3AlgorithmParameters@CryptoPP@@8 00000001400b2e30     cryptopp-static:algparam.cpp.obj
 0002:00014e48       ??_R2AlgorithmParameters@CryptoPP@@8 00000001400b2e48     cryptopp-static:algparam.cpp.obj
 0002:00014e60       ??_R1A@?0A@EA@AlgorithmParameters@CryptoPP@@8 00000001400b2e60     cryptopp-static:algparam.cpp.obj
 0002:00014e88       ??_R4OS_RNG_Err@CryptoPP@@6B@ 00000001400b2e88     cryptopp-static:osrng.cpp.obj
 0002:00014eb0       ??_R3OS_RNG_Err@CryptoPP@@8 00000001400b2eb0     cryptopp-static:osrng.cpp.obj
 0002:00014ec8       ??_R2OS_RNG_Err@CryptoPP@@8 00000001400b2ec8     cryptopp-static:osrng.cpp.obj
 0002:00014ee8       ??_R1A@?0A@EA@OS_RNG_Err@CryptoPP@@8 00000001400b2ee8     cryptopp-static:osrng.cpp.obj
 0002:00014f10       ??_R4NonblockingRng@CryptoPP@@6B@ 00000001400b2f10     cryptopp-static:osrng.cpp.obj
 0002:00014f38       ??_R3NonblockingRng@CryptoPP@@8 00000001400b2f38     cryptopp-static:osrng.cpp.obj
 0002:00014f50       ??_R2NonblockingRng@CryptoPP@@8 00000001400b2f50     cryptopp-static:osrng.cpp.obj
 0002:00014f78       ??_R1A@?0A@EA@NonblockingRng@CryptoPP@@8 00000001400b2f78     cryptopp-static:osrng.cpp.obj
 0002:00014fa0       ??_R4Integer@CryptoPP@@6B@ 00000001400b2fa0     cryptopp-static:integer.cpp.obj
 0002:00014fc8       ??_R3Integer@CryptoPP@@8   00000001400b2fc8     cryptopp-static:integer.cpp.obj
 0002:00014fe0       ??_R2Integer@CryptoPP@@8   00000001400b2fe0     cryptopp-static:integer.cpp.obj
 0002:00015000       ??_R1A@?0A@EA@Integer@CryptoPP@@8 00000001400b3000     cryptopp-static:integer.cpp.obj
 0002:00015028       ??_R17?0A@EN@InitializeInteger@CryptoPP@@8 00000001400b3028     cryptopp-static:integer.cpp.obj
 0002:00015050       ??_R3InitializeInteger@CryptoPP@@8 00000001400b3050     cryptopp-static:integer.cpp.obj
 0002:00015068       ??_R2InitializeInteger@CryptoPP@@8 00000001400b3068     cryptopp-static:integer.cpp.obj
 0002:00015078       ??_R1A@?0A@EA@InitializeInteger@CryptoPP@@8 00000001400b3078     cryptopp-static:integer.cpp.obj
 0002:000150a0       ??_R1A@?0A@EA@ASN1Object@CryptoPP@@8 00000001400b30a0     cryptopp-static:integer.cpp.obj
 0002:000150c8       ??_R3ASN1Object@CryptoPP@@8 00000001400b30c8     cryptopp-static:integer.cpp.obj
 0002:000150e0       ??_R2ASN1Object@CryptoPP@@8 00000001400b30e0     cryptopp-static:integer.cpp.obj
 0002:000150f0       ??_R3HashTransformation@CryptoPP@@8 00000001400b30f0     cryptopp-static:integer.cpp.obj
 0002:00015108       ??_R2HashTransformation@CryptoPP@@8 00000001400b3108     cryptopp-static:integer.cpp.obj
 0002:00015128       ??_R1A@?0A@EA@HashTransformation@CryptoPP@@8 00000001400b3128     cryptopp-static:integer.cpp.obj
 0002:00015150       ??_R4BERDecodeErr@CryptoPP@@6B@ 00000001400b3150     cryptopp-static:integer.cpp.obj
 0002:00015178       ??_R3BERDecodeErr@CryptoPP@@8 00000001400b3178     cryptopp-static:integer.cpp.obj
 0002:00015190       ??_R2BERDecodeErr@CryptoPP@@8 00000001400b3190     cryptopp-static:integer.cpp.obj
 0002:000151b8       ??_R1A@?0A@EA@BERDecodeErr@CryptoPP@@8 00000001400b31b8     cryptopp-static:integer.cpp.obj
 0002:000151e0       ??_R1A@?0A@EA@BERGeneralDecoder@CryptoPP@@8 00000001400b31e0     cryptopp-static:integer.cpp.obj
 0002:00015208       ??_R3BERGeneralDecoder@CryptoPP@@8 00000001400b3208     cryptopp-static:integer.cpp.obj
 0002:00015220       ??_R2BERGeneralDecoder@CryptoPP@@8 00000001400b3220     cryptopp-static:integer.cpp.obj
 0002:00015268       ??_R1A@?0A@EA@DERGeneralEncoder@CryptoPP@@8 00000001400b3268     cryptopp-static:integer.cpp.obj
 0002:00015290       ??_R3DERGeneralEncoder@CryptoPP@@8 00000001400b3290     cryptopp-static:integer.cpp.obj
 0002:000152a8       ??_R2DERGeneralEncoder@CryptoPP@@8 00000001400b32a8     cryptopp-static:integer.cpp.obj
 0002:000152e8       ??_R1A@?0A@EA@ByteQueue@CryptoPP@@8 00000001400b32e8     cryptopp-static:integer.cpp.obj
 0002:00015310       ??_R3ByteQueue@CryptoPP@@8 00000001400b3310     cryptopp-static:integer.cpp.obj
 0002:00015328       ??_R2ByteQueue@CryptoPP@@8 00000001400b3328     cryptopp-static:integer.cpp.obj
 0002:00015360       ??_R1A@?0A@EA@?$Bufferless@VBufferedTransformation@CryptoPP@@@CryptoPP@@8 00000001400b3360     cryptopp-static:integer.cpp.obj
 0002:00015388       ??_R3?$Bufferless@VBufferedTransformation@CryptoPP@@@CryptoPP@@8 00000001400b3388     cryptopp-static:integer.cpp.obj
 0002:000153a0       ??_R2?$Bufferless@VBufferedTransformation@CryptoPP@@@CryptoPP@@8 00000001400b33a0     cryptopp-static:integer.cpp.obj
 0002:000153d0       ??_R3?$IteratedHashBase@IVHashTransformation@CryptoPP@@@CryptoPP@@8 00000001400b33d0     cryptopp-static:integer.cpp.obj
 0002:000153e8       ??_R2?$IteratedHashBase@IVHashTransformation@CryptoPP@@@CryptoPP@@8 00000001400b33e8     cryptopp-static:integer.cpp.obj
 0002:00015410       ??_R1A@?0A@EA@?$IteratedHashBase@IVHashTransformation@CryptoPP@@@CryptoPP@@8 00000001400b3410     cryptopp-static:integer.cpp.obj
 0002:00015438       ??_R1A@?0A@EA@?$IteratedHash@IU?$EnumToType@W4ByteOrder@CryptoPP@@$00@CryptoPP@@$0EA@VHashTransformation@2@@CryptoPP@@8 00000001400b3438     cryptopp-static:integer.cpp.obj
 0002:00015460       ??_R3?$IteratedHash@IU?$EnumToType@W4ByteOrder@CryptoPP@@$00@CryptoPP@@$0EA@VHashTransformation@2@@CryptoPP@@8 00000001400b3460     cryptopp-static:integer.cpp.obj
 0002:00015478       ??_R2?$IteratedHash@IU?$EnumToType@W4ByteOrder@CryptoPP@@$00@CryptoPP@@$0EA@VHashTransformation@2@@CryptoPP@@8 00000001400b3478     cryptopp-static:integer.cpp.obj
 0002:000154a8       ??_R3Enc@Rijndael@CryptoPP@@8 00000001400b34a8     cryptopp-static:randpool.cpp.obj
 0002:000154c0       ??_R2Enc@Rijndael@CryptoPP@@8 00000001400b34c0     cryptopp-static:randpool.cpp.obj
 0002:00015538       ??_R1A@?0A@EA@Enc@Rijndael@CryptoPP@@8 00000001400b3538     cryptopp-static:randpool.cpp.obj
 0002:00015560       ??_R4?$BlockCipherFinal@$0A@VEnc@Rijndael@CryptoPP@@@CryptoPP@@6BSimpleKeyingInterface@1@@ 00000001400b3560     cryptopp-static:randpool.cpp.obj
 0002:00015588       ??_R3?$BlockCipherFinal@$0A@VEnc@Rijndael@CryptoPP@@@CryptoPP@@8 00000001400b3588     cryptopp-static:randpool.cpp.obj
 0002:000155a0       ??_R2?$BlockCipherFinal@$0A@VEnc@Rijndael@CryptoPP@@@CryptoPP@@8 00000001400b35a0     cryptopp-static:randpool.cpp.obj
 0002:00015628       ??_R1A@?0A@EA@?$BlockCipherFinal@$0A@VEnc@Rijndael@CryptoPP@@@CryptoPP@@8 00000001400b3628     cryptopp-static:randpool.cpp.obj
 0002:00015650       ??_R1A@?0A@EA@?$ClonableImpl@V?$BlockCipherFinal@$0A@VEnc@Rijndael@CryptoPP@@@CryptoPP@@VEnc@Rijndael@2@@CryptoPP@@8 00000001400b3650     cryptopp-static:randpool.cpp.obj
 0002:00015678       ??_R3?$ClonableImpl@V?$BlockCipherFinal@$0A@VEnc@Rijndael@CryptoPP@@@CryptoPP@@VEnc@Rijndael@2@@CryptoPP@@8 00000001400b3678     cryptopp-static:randpool.cpp.obj
 0002:00015690       ??_R2?$ClonableImpl@V?$BlockCipherFinal@$0A@VEnc@Rijndael@CryptoPP@@@CryptoPP@@VEnc@Rijndael@2@@CryptoPP@@8 00000001400b3690     cryptopp-static:randpool.cpp.obj
 0002:00015710       ??_R4?$BlockCipherFinal@$0A@VEnc@Rijndael@CryptoPP@@@CryptoPP@@6BBlockTransformation@1@@ 00000001400b3710     cryptopp-static:randpool.cpp.obj
 0002:00015738       ??_R4RandomPool@CryptoPP@@6B@ 00000001400b3738     cryptopp-static:randpool.cpp.obj
 0002:00015760       ??_R4SHA256@CryptoPP@@6B@  00000001400b3760     cryptopp-static:randpool.cpp.obj
 0002:00015788       ??_R3SHA256@CryptoPP@@8    00000001400b3788     cryptopp-static:randpool.cpp.obj
 0002:000157a0       ??_R2SHA256@CryptoPP@@8    00000001400b37a0     cryptopp-static:randpool.cpp.obj
 0002:000157f0       ??_R1A@?0A@EA@SHA256@CryptoPP@@8 00000001400b37f0     cryptopp-static:randpool.cpp.obj
 0002:00015818       ??_R1A@?0A@EA@?$IteratedHashWithStaticTransform@IU?$EnumToType@W4ByteOrder@CryptoPP@@$00@CryptoPP@@$0EA@$0CA@VSHA256@2@$0CA@$00@CryptoPP@@8 00000001400b3818     cryptopp-static:randpool.cpp.obj
 0002:00015840       ??_R3?$IteratedHashWithStaticTransform@IU?$EnumToType@W4ByteOrder@CryptoPP@@$00@CryptoPP@@$0EA@$0CA@VSHA256@2@$0CA@$00@CryptoPP@@8 00000001400b3840     cryptopp-static:randpool.cpp.obj
 0002:00015860       ??_R2?$IteratedHashWithStaticTransform@IU?$EnumToType@W4ByteOrder@CryptoPP@@$00@CryptoPP@@$0EA@$0CA@VSHA256@2@$0CA@$00@CryptoPP@@8 00000001400b3860     cryptopp-static:randpool.cpp.obj
 0002:000158a8       ??_R1A@?0A@EA@?$ClonableImpl@VSHA256@CryptoPP@@V?$AlgorithmImpl@V?$IteratedHash@IU?$EnumToType@W4ByteOrder@CryptoPP@@$00@CryptoPP@@$0EA@VHashTransformation@2@@CryptoPP@@VSHA256@2@@2@@CryptoPP@@8 00000001400b38a8     cryptopp-static:randpool.cpp.obj
 0002:000158d0       ??_R3?$ClonableImpl@VSHA256@CryptoPP@@V?$AlgorithmImpl@V?$IteratedHash@IU?$EnumToType@W4ByteOrder@CryptoPP@@$00@CryptoPP@@$0EA@VHashTransformation@2@@CryptoPP@@VSHA256@2@@2@@CryptoPP@@8 00000001400b38d0     cryptopp-static:randpool.cpp.obj
 0002:000158e8       ??_R2?$ClonableImpl@VSHA256@CryptoPP@@V?$AlgorithmImpl@V?$IteratedHash@IU?$EnumToType@W4ByteOrder@CryptoPP@@$00@CryptoPP@@$0EA@VHashTransformation@2@@CryptoPP@@VSHA256@2@@2@@CryptoPP@@8 00000001400b38e8     cryptopp-static:randpool.cpp.obj
 0002:00015928       ??_R1A@?0A@EA@?$AlgorithmImpl@V?$IteratedHash@IU?$EnumToType@W4ByteOrder@CryptoPP@@$00@CryptoPP@@$0EA@VHashTransformation@2@@CryptoPP@@VSHA256@2@@CryptoPP@@8 00000001400b3928     cryptopp-static:randpool.cpp.obj
 0002:00015950       ??_R3?$AlgorithmImpl@V?$IteratedHash@IU?$EnumToType@W4ByteOrder@CryptoPP@@$00@CryptoPP@@$0EA@VHashTransformation@2@@CryptoPP@@VSHA256@2@@CryptoPP@@8 00000001400b3950     cryptopp-static:randpool.cpp.obj
 0002:00015968       ??_R2?$AlgorithmImpl@V?$IteratedHash@IU?$EnumToType@W4ByteOrder@CryptoPP@@$00@CryptoPP@@$0EA@VHashTransformation@2@@CryptoPP@@VSHA256@2@@CryptoPP@@8 00000001400b3968     cryptopp-static:randpool.cpp.obj
 0002:000159a0       ??_R3TimerBase@CryptoPP@@8 00000001400b39a0     cryptopp-static:randpool.cpp.obj
 0002:000159b8       ??_R2TimerBase@CryptoPP@@8 00000001400b39b8     cryptopp-static:randpool.cpp.obj
 0002:000159c8       ??_R1A@?0A@EA@TimerBase@CryptoPP@@8 00000001400b39c8     cryptopp-static:randpool.cpp.obj
 0002:000159f0       ??_R4Timer@CryptoPP@@6B@   00000001400b39f0     cryptopp-static:randpool.cpp.obj
 0002:00015a18       ??_R3Timer@CryptoPP@@8     00000001400b3a18     cryptopp-static:randpool.cpp.obj
 0002:00015a30       ??_R2Timer@CryptoPP@@8     00000001400b3a30     cryptopp-static:randpool.cpp.obj
 0002:00015a48       ??_R1A@?0A@EA@Timer@CryptoPP@@8 00000001400b3a48     cryptopp-static:randpool.cpp.obj
 0002:00015a70       ??_R4ByteQueue@CryptoPP@@6BAlgorithm@1@@ 00000001400b3a70     cryptopp-static:queue.cpp.obj
 0002:00015a98       ??_R4ByteQueue@CryptoPP@@6BWaitable@1@@ 00000001400b3a98     cryptopp-static:queue.cpp.obj
 0002:00015ac0       ??_R4Walker@ByteQueue@CryptoPP@@6BAlgorithm@2@@ 00000001400b3ac0     cryptopp-static:queue.cpp.obj
 0002:00015ae8       ??_R3Walker@ByteQueue@CryptoPP@@8 00000001400b3ae8     cryptopp-static:queue.cpp.obj
 0002:00015b00       ??_R2Walker@ByteQueue@CryptoPP@@8 00000001400b3b00     cryptopp-static:queue.cpp.obj
 0002:00015b38       ??_R1A@?0A@EA@Walker@ByteQueue@CryptoPP@@8 00000001400b3b38     cryptopp-static:queue.cpp.obj
 0002:00015b60       ??_R4Walker@ByteQueue@CryptoPP@@6BWaitable@2@@ 00000001400b3b60     cryptopp-static:queue.cpp.obj
 0002:00015b88       ??_R4MessageQueue@CryptoPP@@6BAlgorithm@1@@ 00000001400b3b88     cryptopp-static:mqueue.cpp.obj
 0002:00015bb0       ??_R3MessageQueue@CryptoPP@@8 00000001400b3bb0     cryptopp-static:mqueue.cpp.obj
 0002:00015bc8       ??_R2MessageQueue@CryptoPP@@8 00000001400b3bc8     cryptopp-static:mqueue.cpp.obj
 0002:00015c00       ??_R1A@?0A@EA@MessageQueue@CryptoPP@@8 00000001400b3c00     cryptopp-static:mqueue.cpp.obj
 0002:00015c28       ??_R1A@?0A@EA@?$AutoSignaling@VBufferedTransformation@CryptoPP@@@CryptoPP@@8 00000001400b3c28     cryptopp-static:mqueue.cpp.obj
 0002:00015c50       ??_R3?$AutoSignaling@VBufferedTransformation@CryptoPP@@@CryptoPP@@8 00000001400b3c50     cryptopp-static:mqueue.cpp.obj
 0002:00015c68       ??_R2?$AutoSignaling@VBufferedTransformation@CryptoPP@@@CryptoPP@@8 00000001400b3c68     cryptopp-static:mqueue.cpp.obj
 0002:00015c98       ??_R4MessageQueue@CryptoPP@@6BWaitable@1@@ 00000001400b3c98     cryptopp-static:mqueue.cpp.obj
 0002:00015cc0       ??_R4ECPPoint@CryptoPP@@6B@ 00000001400b3cc0     cryptopp-static:dll.cpp.obj
 0002:00015ce8       ??_R3ECPPoint@CryptoPP@@8  00000001400b3ce8     cryptopp-static:dll.cpp.obj
 0002:00015d00       ??_R2ECPPoint@CryptoPP@@8  00000001400b3d00     cryptopp-static:dll.cpp.obj
 0002:00015d10       ??_R1A@?0A@EA@ECPPoint@CryptoPP@@8 00000001400b3d10     cryptopp-static:dll.cpp.obj
 0002:00015d38       ??_R4EC2NPoint@CryptoPP@@6B@ 00000001400b3d38     cryptopp-static:dll.cpp.obj
 0002:00015d60       ??_R3EC2NPoint@CryptoPP@@8 00000001400b3d60     cryptopp-static:dll.cpp.obj
 0002:00015d78       ??_R2EC2NPoint@CryptoPP@@8 00000001400b3d78     cryptopp-static:dll.cpp.obj
 0002:00015d88       ??_R1A@?0A@EA@EC2NPoint@CryptoPP@@8 00000001400b3d88     cryptopp-static:dll.cpp.obj
 0002:00015db0       ??_R4BERGeneralDecoder@CryptoPP@@6BAlgorithm@1@@ 00000001400b3db0     cryptopp-static:asn.cpp.obj
 0002:00015dd8       ??_R4BERGeneralDecoder@CryptoPP@@6BWaitable@1@@ 00000001400b3dd8     cryptopp-static:asn.cpp.obj
 0002:00015e00       ??_R4DERGeneralEncoder@CryptoPP@@6BAlgorithm@1@@ 00000001400b3e00     cryptopp-static:asn.cpp.obj
 0002:00015e28       ??_R4DERGeneralEncoder@CryptoPP@@6BWaitable@1@@ 00000001400b3e28     cryptopp-static:asn.cpp.obj
 0002:00015e50       ??_R4HashInputTooLong@CryptoPP@@6B@ 00000001400b3e50     cryptopp-static:iterhash.cpp.obj
 0002:00015e78       ??_R3HashInputTooLong@CryptoPP@@8 00000001400b3e78     cryptopp-static:iterhash.cpp.obj
 0002:00015e90       ??_R2HashInputTooLong@CryptoPP@@8 00000001400b3e90     cryptopp-static:iterhash.cpp.obj
 0002:00015eb8       ??_R1A@?0A@EA@HashInputTooLong@CryptoPP@@8 00000001400b3eb8     cryptopp-static:iterhash.cpp.obj
 0002:00015ee0       ??_R4type_info@@6B@        00000001400b3ee0     MSVCRT:std_type_info_static.obj
 0002:00015f08       ??_R3type_info@@8          00000001400b3f08     MSVCRT:std_type_info_static.obj
 0002:00015f20       ??_R2type_info@@8          00000001400b3f20     MSVCRT:std_type_info_static.obj
 0002:00015f30       ??_R1A@?0A@EA@type_info@@8 00000001400b3f30     MSVCRT:std_type_info_static.obj
 0002:00015f58       ??_R2Algorithm@CryptoPP@@8 00000001400b3f58     main.obj
 0002:00015f70       ??_R3?$_Iosb@H@std@@8      00000001400b3f70     main.obj
 0002:00015f88       ??_R2_Facet_base@std@@8    00000001400b3f88     main.obj
 0002:00015f98       ??_R2facet@locale@std@@8   00000001400b3f98     main.obj
 0002:00015fb8       ??_R17?0A@EA@?$_Iosb@H@std@@8 00000001400b3fb8     main.obj
 0002:00015fe0       ??_R1A@?0A@EA@ValueTypeMismatch@NameValuePairs@CryptoPP@@8 00000001400b3fe0     main.obj
 0002:00016008       ??_R1A@?0A@EA@?$output_adapter_protocol@D@detail@nlohmann@@8 00000001400b4008     main.obj
 0002:00016030       ??_R2?$SimpleKeyingInterfaceImpl@V?$TwoBases@VBlockCipher@CryptoPP@@URijndael_Info@2@@CryptoPP@@V12@@CryptoPP@@8 00000001400b4030     main.obj
 0002:00016088       ??_R2ParameterNotUsed@AlgorithmParametersBase@CryptoPP@@8 00000001400b4088     main.obj
 0002:000160a8       ??_R1A@?0A@EA@_System_error_category@std@@8 00000001400b40a8     main.obj
 0002:000160d0       ??_R4?$_InitialTaskHandle@XV<lambda_202dd44b79ed805f6289af950b2eac1c>@@U_TypeSelectorNoAsync@details@Concurrency@@@?$task@E@Concurrency@@6B@ 00000001400b40d0     main.obj
 0002:000160f8       ??_R1A@?0A@EA@?$TwoBases@VBlockCipher@CryptoPP@@URijndael_Info@2@@CryptoPP@@8 00000001400b40f8     main.obj
 0002:00016120       ??_R2?$_Func_base@E$$V@std@@8 00000001400b4120     main.obj
 0002:00016130       ??_R4range_error@std@@6B@  00000001400b4130     main.obj
 0002:00016158       ??_R2?$AlgorithmParametersTemplate@VConstByteArrayParameter@CryptoPP@@@CryptoPP@@8 00000001400b4158     main.obj
 0002:00016170       ??_R4?$StringSinkTemplate@V?$basic_string@DU?$char_traits@D@std@@V?$allocator@D@2@@std@@@CryptoPP@@6BWaitable@1@@ 00000001400b4170     main.obj
 0002:00016198       ??_R2?$Unflushable@VFilter@CryptoPP@@@CryptoPP@@8 00000001400b4198     main.obj
 0002:000161d8       ??_R2?$Bufferless@VSink@CryptoPP@@@CryptoPP@@8 00000001400b41d8     main.obj
 0002:00016210       ??_R4?$_Func_impl_no_alloc@V<lambda_052e919cc0e5399df76dff3972c0cac1>@@E$$V@std@@6B@ 00000001400b4210     main.obj
 0002:00016238       ??_R4NotImplemented@CryptoPP@@6B@ 00000001400b4238     main.obj
 0002:00016260       ??_R3runtime_error@std@@8  00000001400b4260     main.obj
 0002:00016278       ??_R1BB@?0A@EA@?$VariableKeyLength@$0BA@$0BA@$0CA@$07$03$0A@@CryptoPP@@8 00000001400b4278     main.obj
 0002:000162a0       ??_R3?$ObjectHolder@V?$BlockCipherFinal@$00VDec@Rijndael@CryptoPP@@@CryptoPP@@@CryptoPP@@8 00000001400b42a0     main.obj
 0002:000162b8       ??_R4BaseN_Encoder@CryptoPP@@6BWaitable@1@@ 00000001400b42b8     main.obj
 0002:000162e0       ??_R3Rijndael_Info@CryptoPP@@8 00000001400b42e0     main.obj
 0002:000162f8       ??_R2out_of_range@detail@nlohmann@@8 00000001400b42f8     main.obj
 0002:00016318       ??_R2?$basic_ios@DU?$char_traits@D@std@@@std@@8 00000001400b4318     main.obj
 0002:00016338       ??_R3ValueTypeMismatch@NameValuePairs@CryptoPP@@8 00000001400b4338     main.obj
 0002:00016350       ??_R2CBC_Decryption@CryptoPP@@8 00000001400b4350     main.obj
 0002:000163a0       ??_R17?0A@EA@NotCopyable@CryptoPP@@8 00000001400b43a0     main.obj
 0002:000163c8       ??_R2Rijndael_Info@CryptoPP@@8 00000001400b43c8     main.obj
 0002:000163e8       ??_R3StringSource@CryptoPP@@8 00000001400b43e8     main.obj
 0002:00016400       ??_R2?$basic_ostringstream@DU?$char_traits@D@std@@V?$allocator@D@2@@std@@8 00000001400b4400     main.obj
 0002:00016430       ??_R2Exception@CryptoPP@@8 00000001400b4430     main.obj
 0002:00016448       ??_R1A@?0A@EA@error_category@std@@8 00000001400b4448     main.obj
 0002:00016470       ??_R1A@?0A@EA@?$_Func_impl_no_alloc@V<lambda_202dd44b79ed805f6289af950b2eac1c>@@X$$V@std@@8 00000001400b4470     main.obj
 0002:00016498       ??_R3?$_Associated_state@H@std@@8 00000001400b4498     main.obj
 0002:000164b0       ??_R4filesystem_error@filesystem@std@@6B@ 00000001400b44b0     main.obj
 0002:000164d8       ??_R3?$basic_iostream@DU?$char_traits@D@std@@@std@@8 00000001400b44d8     main.obj
 0002:000164f0       ??_R3?$basic_istream@DU?$char_traits@D@std@@@std@@8 00000001400b44f0     main.obj
 0002:00016508       ??_R4?$basic_ostringstream@DU?$char_traits@D@std@@V?$allocator@D@2@@std@@6B@ 00000001400b4508     main.obj
 0002:00016530       ??_R1A@?0A@EA@input_adapter_protocol@detail@nlohmann@@8 00000001400b4530     main.obj
 0002:00016558       ??_R4?$_Func_impl_no_alloc@V<lambda_f25c37099038263181b5186a3fa41b37>@@X$$V@std@@6B@ 00000001400b4558     main.obj
 0002:00016580       ??_R3AutoSeededRandomPool@CryptoPP@@8 00000001400b4580     main.obj
 0002:00016598       ??_R1A@?0A@EA@BaseN_Decoder@CryptoPP@@8 00000001400b4598     main.obj
 0002:000165c0       ??_R2?$AlgorithmImpl@V?$SimpleKeyingInterfaceImpl@V?$TwoBases@VBlockCipher@CryptoPP@@URijndael_Info@2@@CryptoPP@@V12@@CryptoPP@@V12@@CryptoPP@@8 00000001400b45c0     main.obj
 0002:00016620       ??_R1A@?0A@EA@StringSource@CryptoPP@@8 00000001400b4620     main.obj
 0002:00016648       ??_R4_RefCounter@details@Concurrency@@6B@ 00000001400b4648     main.obj
 0002:00016670       ??_R4_CancellationTokenRegistration@details@Concurrency@@6B@ 00000001400b4670     main.obj
 0002:00016698       ??_R4CannotFlush@CryptoPP@@6B@ 00000001400b4698     main.obj
 0002:000166c0       ??_R1A@?0A@EA@SimpleProxyFilter@CryptoPP@@8 00000001400b46c0     main.obj
 0002:000166e8       ??_R2NotImplemented@CryptoPP@@8 00000001400b46e8     main.obj
 0002:00016708       ??_R2FilterWithBufferedInput@CryptoPP@@8 00000001400b4708     main.obj
 0002:00016748       ??_R1A@?0A@EA@?$_Ref_count_obj2@U_ExceptionHolder@details@Concurrency@@@std@@8 00000001400b4748     main.obj
 0002:00016770       ??_R2Store@CryptoPP@@8     00000001400b4770     main.obj
 0002:000167b0       ??_R3?$_Func_impl_no_alloc@V<lambda_202dd44b79ed805f6289af950b2eac1c>@@X$$V@std@@8 00000001400b47b0     main.obj
 0002:000167c8       ??_R1A@?0A@EA@ProxyFilter@CryptoPP@@8 00000001400b47c8     main.obj
 0002:000167f0       ??_R3input_adapter_protocol@detail@nlohmann@@8 00000001400b47f0     main.obj
 0002:00016808       ??_R4parse_error@detail@nlohmann@@6B@ 00000001400b4808     main.obj
 0002:00016830       ??_R4StringStore@CryptoPP@@6BWaitable@1@@ 00000001400b4830     main.obj
 0002:00016858       ??_R4exception@std@@6B@    00000001400b4858     main.obj
 0002:00016880       ??_R1A@?0A@EA@?$basic_istringstream@DU?$char_traits@D@std@@V?$allocator@D@2@@std@@8 00000001400b4880     main.obj
 0002:000168a8       ??_R4?$AlgorithmParametersTemplate@PEBH@CryptoPP@@6B@ 00000001400b48a8     main.obj
 0002:000168d0       ??_R4input_buffer_adapter@detail@nlohmann@@6B@ 00000001400b48d0     main.obj
 0002:000168f8       ??_R4ParameterNotUsed@AlgorithmParametersBase@CryptoPP@@6B@ 00000001400b48f8     main.obj
 0002:00016920       ??_R1A@?0A@EA@Base64Encoder@CryptoPP@@8 00000001400b4920     main.obj
 0002:00016948       ??_R1A@?0A@EA@?$_PPLTaskHandle@EU?$_InitialTaskHandle@XV<lambda_202dd44b79ed805f6289af950b2eac1c>@@U_TypeSelectorNoAsync@details@Concurrency@@@?$task@E@Concurrency@@U_TaskProcHandle@details@3@@details@Concurrency@@8 00000001400b4948     main.obj
 0002:00016970       ??_R1A@?0A@EA@NotImplemented@CryptoPP@@8 00000001400b4970     main.obj
 0002:00016998       ??_R2?$basic_istringstream@DU?$char_traits@D@std@@V?$allocator@D@2@@std@@8 00000001400b4998     main.obj
 0002:000169c8       ??_R2?$_Ref_count_obj2@U_ExceptionHolder@details@Concurrency@@@std@@8 00000001400b49c8     main.obj
 0002:000169e0       ??_R4FilterWithBufferedInput@CryptoPP@@6BWaitable@1@@ 00000001400b49e0     main.obj
 0002:00016a08       ??_R2bad_array_new_length@std@@8 00000001400b4a08     main.obj
 0002:00016a28       ??_R4FilterWithBufferedInput@CryptoPP@@6BAlgorithm@1@@ 00000001400b4a28     main.obj
 0002:00016a50       ??_R3InvalidArgument@CryptoPP@@8 00000001400b4a50     main.obj
 0002:00016a68       ??_R4?$basic_ofstream@DU?$char_traits@D@std@@@std@@6B@ 00000001400b4a68     main.obj
 0002:00016a90       ??_R2system_error@std@@8   00000001400b4a90     main.obj
 0002:00016ab8       ??_R17?0A@EA@Waitable@CryptoPP@@8 00000001400b4ab8     main.obj
 0002:00016ae0       ??_R3Grouper@CryptoPP@@8   00000001400b4ae0     main.obj
 0002:00016af8       ??_R1A@?0A@EA@system_error@std@@8 00000001400b4af8     main.obj
 0002:00016b20       ??_R2?$AlgorithmImpl@VCBC_Decryption@CryptoPP@@V?$CipherModeFinalTemplate_CipherHolder@V?$BlockCipherFinal@$00VDec@Rijndael@CryptoPP@@@CryptoPP@@VCBC_Decryption@2@@2@@CryptoPP@@8 00000001400b4b20     main.obj
 0002:00016b78       ??_R3?$InputRejecting@VFilter@CryptoPP@@@CryptoPP@@8 00000001400b4b78     main.obj
 0002:00016b90       ??_R3?$AlgorithmParametersTemplate@_N@CryptoPP@@8 00000001400b4b90     main.obj
 0002:00016ba8       ??_R3?$CipherModeFinalTemplate_CipherHolder@V?$BlockCipherFinal@$00VDec@Rijndael@CryptoPP@@@CryptoPP@@VCBC_Decryption@2@@CryptoPP@@8 00000001400b4ba8     main.obj
 0002:00016bc0       ??_R2CBC_ModeBase@CryptoPP@@8 00000001400b4bc0     main.obj
 0002:00016c08       ??_R3?$basic_ofstream@DU?$char_traits@D@std@@@std@@8 00000001400b4c08     main.obj
 0002:00016c20       ??_R4?$_Ref_count_obj2@Vinput_buffer_adapter@detail@nlohmann@@@std@@6B@ 00000001400b4c20     main.obj
 0002:00016c48       ??_R2exception@detail@nlohmann@@8 00000001400b4c48     main.obj
 0002:00016c60       ??_R4?$BlockCipherFinal@$00VDec@Rijndael@CryptoPP@@@CryptoPP@@6BBlockTransformation@1@@ 00000001400b4c60     main.obj
 0002:00016c88       ??_R1A@?0A@EA@?$basic_istream@DU?$char_traits@D@std@@@std@@8 00000001400b4c88     main.obj
 0002:00016cb0       ??_R3NameValuePairs@CryptoPP@@8 00000001400b4cb0     main.obj
 0002:00016cc8       ??_R2?$_Associated_state@H@std@@8 00000001400b4cc8     main.obj
 0002:00016cd8       ??_R3Base64Encoder@CryptoPP@@8 00000001400b4cd8     main.obj
 0002:00016cf0       ??_R1A@?0A@EA@CBC_Decryption@CryptoPP@@8 00000001400b4cf0     main.obj
 0002:00016d18       ??_R3Sink@CryptoPP@@8      00000001400b4d18     main.obj
 0002:00016d30       ??_R4StringStore@CryptoPP@@6BAlgorithm@1@@ 00000001400b4d30     main.obj
 0002:00016d58       ??_R1A@?0A@EA@Algorithm@CryptoPP@@8 00000001400b4d58     main.obj
 0002:00016d80       ??_R3_Future_error_category2@std@@8 00000001400b4d80     main.obj
 0002:00016d98       ??_R1A@?0A@EA@CipherModeBase@CryptoPP@@8 00000001400b4d98     main.obj
 0002:00016dc0       ??_R4?$_Func_impl_no_alloc@V<lambda_202dd44b79ed805f6289af950b2eac1c>@@X$$V@std@@6B@ 00000001400b4dc0     main.obj
 0002:00016de8       ??_R1A@?0A@EA@RandomPool@CryptoPP@@8 00000001400b4de8     main.obj
 0002:00016e10       ??_R3_Task_impl_base@details@Concurrency@@8 00000001400b4e10     main.obj
 0002:00016e30       ??_R2Source@CryptoPP@@8    00000001400b4e30     main.obj
 0002:00016e78       ??_R4runtime_error@std@@6B@ 00000001400b4e78     main.obj
 0002:00016ea0       ??_R1A@?0A@EA@other_error@detail@nlohmann@@8 00000001400b4ea0     main.obj
 0002:00016ec8       ??_R3?$StringSinkTemplate@V?$basic_string@DU?$char_traits@D@std@@V?$allocator@D@2@@std@@@CryptoPP@@8 00000001400b4ec8     main.obj
 0002:00016ee0       ??_R4_System_error_category@std@@6B@ 00000001400b4ee0     main.obj
 0002:00016f08       ??_R4InputRejected@?$InputRejecting@VBufferedTransformation@CryptoPP@@@CryptoPP@@6B@ 00000001400b4f08     main.obj
 0002:00016f30       ??_R1A@?0A@EA@?$BlockCipherFinal@$00VDec@Rijndael@CryptoPP@@@CryptoPP@@8 00000001400b4f30     main.obj
 0002:00016f58       ??_R3RandomPool@CryptoPP@@8 00000001400b4f58     main.obj
 0002:00016f70       ??_R4?$_Task_impl@E@details@Concurrency@@6B@ 00000001400b4f70     main.obj
 0002:00016f98       ??_R4_System_error@std@@6B@ 00000001400b4f98     main.obj
 0002:00016fc0       ??_R1A@?0A@EA@?$output_string_adapter@DV?$basic_string@DU?$char_traits@D@std@@V?$allocator@D@2@@std@@@detail@nlohmann@@8 00000001400b4fc0     main.obj
 0002:00016fe8       ??_R3_Facet_base@std@@8    00000001400b4fe8     main.obj
 0002:00017000       ??_R1A@?0A@EA@_Ref_count_base@std@@8 00000001400b5000     main.obj
 0002:00017028       ??_R2NotCopyable@CryptoPP@@8 00000001400b5028     main.obj
 0002:00017038       ??_R1A@?0A@EA@bad_cast@std@@8 00000001400b5038     main.obj
 0002:00017060       ??_R4_Generic_error_category@std@@6B@ 00000001400b5060     main.obj
 0002:00017088       ??_R3Source@CryptoPP@@8    00000001400b5088     main.obj
 0002:000170a0       ??_R3?$_InitialTaskHandle@XV<lambda_202dd44b79ed805f6289af950b2eac1c>@@U_TypeSelectorNoAsync@details@Concurrency@@@?$task@E@Concurrency@@8 00000001400b50a0     main.obj
 0002:000170b8       ??_R1A@?0A@EA@FilterWithBufferedInput@CryptoPP@@8 00000001400b50b8     main.obj
 0002:000170e0       ??_R3?$basic_ifstream@DU?$char_traits@D@std@@@std@@8 00000001400b50e0     main.obj
 0002:000170f8       ??_R1A@?0A@EA@SimpleKeyingInterface@CryptoPP@@8 00000001400b50f8     main.obj
 0002:00017120       ??_R2other_error@detail@nlohmann@@8 00000001400b5120     main.obj
 0002:00017140       ??_R3?$AlgorithmImpl@V?$SimpleKeyingInterfaceImpl@V?$TwoBases@VBlockCipher@CryptoPP@@URijndael_Info@2@@CryptoPP@@V12@@CryptoPP@@V12@@CryptoPP@@8 00000001400b5140     main.obj
 0002:00017158       ??_R2_DefaultPPLTaskScheduler@details@Concurrency@@8 00000001400b5158     main.obj
 0002:00017170       ??_R3invalid_operation@Concurrency@@8 00000001400b5170     main.obj
 0002:00017188       ??_R1A@?0A@EA@?$_Task_async_state@X@std@@8 00000001400b5188     main.obj
 0002:000171b0       ??_R2bad_alloc@std@@8      00000001400b51b0     main.obj
 0002:000171c8       ??_R1A@?0A@EA@Filter@CryptoPP@@8 00000001400b51c8     main.obj
 0002:000171f0       ??_R1A@?0A@EA@?$AlgorithmImpl@VCBC_Decryption@CryptoPP@@V?$CipherModeFinalTemplate_CipherHolder@V?$BlockCipherFinal@$00VDec@Rijndael@CryptoPP@@@CryptoPP@@VCBC_Decryption@2@@2@@CryptoPP@@8 00000001400b51f0     main.obj
 0002:00017218       ??_R1A@?0A@EA@?$AlgorithmParametersTemplate@PEBH@CryptoPP@@8 00000001400b5218     main.obj
 0002:00017240       ??_R1A@?0A@EA@?$_Func_base@E$$V@std@@8 00000001400b5240     main.obj
 0002:00017268       ??_R2BufferedTransformation@CryptoPP@@8 00000001400b5268     main.obj
 0002:00017290       ??_R3CannotFlush@CryptoPP@@8 00000001400b5290     main.obj
 0002:000172a8       ??_R2?$basic_stringbuf@DU?$char_traits@D@std@@V?$allocator@D@2@@std@@8 00000001400b52a8     main.obj
 0002:000172c0       ??_R2?$InputRejecting@VFilter@CryptoPP@@@CryptoPP@@8 00000001400b52c0     main.obj
 0002:00017300       ??_R1A@?0A@EA@NotCopyable@CryptoPP@@8 00000001400b5300     main.obj
 0002:00017328       ??_R3?$basic_ostringstream@DU?$char_traits@D@std@@V?$allocator@D@2@@std@@8 00000001400b5328     main.obj
 0002:00017340       ??_R3_Crt_new_delete@std@@8 00000001400b5340     main.obj
 0002:00017358       ??_R1A@?0A@EA@runtime_error@std@@8 00000001400b5358     main.obj
 0002:00017380       ??_R4?$_Func_impl_no_alloc@V?$_Fake_no_copy_callable_adapter@A6AX_N@Z_N@std@@X$$V@std@@6B@ 00000001400b5380     main.obj
 0002:000173a8       ??_R4?$CipherModeFinalTemplate_CipherHolder@V?$BlockCipherFinal@$00VDec@Rijndael@CryptoPP@@@CryptoPP@@VCBC_Decryption@2@@CryptoPP@@6BStreamTransformation@1@@ 00000001400b53a8     main.obj
 0002:000173d0       ??_R2?$AlgorithmParametersTemplate@H@CryptoPP@@8 00000001400b53d0     main.obj
 0002:000173e8       ??_R3StreamTransformation@CryptoPP@@8 00000001400b53e8     main.obj
 0002:00017400       ??_R2_System_error@std@@8  00000001400b5400     main.obj
 0002:00017420       ??_R3?$SimpleKeyingInterfaceImpl@V?$TwoBases@VBlockCipher@CryptoPP@@URijndael_Info@2@@CryptoPP@@V12@@CryptoPP@@8 00000001400b5420     main.obj
 0002:00017438       ??_R4?$AlgorithmParametersTemplate@_N@CryptoPP@@6B@ 00000001400b5438     main.obj
 0002:00017460       ??_R4_DefaultPPLTaskScheduler@details@Concurrency@@6B@ 00000001400b5460     main.obj
 0002:00017488       ??_R1A@?0A@EA@?$basic_ifstream@DU?$char_traits@D@std@@@std@@8 00000001400b5488     main.obj
 0002:000174b0       ??_R2?$CipherModeFinalTemplate_CipherHolder@V?$BlockCipherFinal@$00VDec@Rijndael@CryptoPP@@@CryptoPP@@VCBC_Decryption@2@@CryptoPP@@8 00000001400b54b0     main.obj
 0002:00017518       ??_R4?$_Associated_state@H@std@@6B@ 00000001400b5518     main.obj
 0002:00017540       ??_R3?$_Ref_count_obj2@U_ExceptionHolder@details@Concurrency@@@std@@8 00000001400b5540     main.obj
 0002:00017560       ??_R2Base64Encoder@CryptoPP@@8 00000001400b5560     main.obj
 0002:000175b8       ??_R17A@3EA@?$_Iosb@H@std@@8 00000001400b55b8     main.obj
 0002:000175e0       ??_R2CipherModeBase@CryptoPP@@8 00000001400b55e0     main.obj
 0002:00017618       ??_R4ValueTypeMismatch@NameValuePairs@CryptoPP@@6B@ 00000001400b5618     main.obj
 0002:00017640       ??_R2?$_Func_impl_no_alloc@V?$_Fake_no_copy_callable_adapter@A6AX_N@Z_N@std@@X$$V@std@@8 00000001400b5640     main.obj
 0002:00017658       ??_R1A@?0A@EA@?$basic_stringstream@DU?$char_traits@D@std@@V?$allocator@D@2@@std@@8 00000001400b5658     main.obj
 0002:00017680       ??_R3?$_CancellationTokenCallback@V<lambda_be3e5d9dce35d2c8dbfa8485373731d5>@@@details@Concurrency@@8 00000001400b5680     main.obj
 0002:00017698       ??_R3?$_Func_impl_no_alloc@V<lambda_713ee8bbd6b08550d59c52695cab5ce3>@@X$$V@std@@8 00000001400b5698     main.obj
 0002:000176b0       ??_R1A@?0A@EA@?$AlgorithmParametersTemplate@H@CryptoPP@@8 00000001400b56b0     main.obj
 0002:000176d8       ??_R3type_error@detail@nlohmann@@8 00000001400b56d8     main.obj
 0002:000176f0       ??_R1A@?0A@EA@Clonable@CryptoPP@@8 00000001400b56f0     main.obj
 0002:00017718       ??_R1A@?0A@EA@exception@std@@8 00000001400b5718     main.obj
 0002:00017740       ??_R3SimpleKeyingInterface@CryptoPP@@8 00000001400b5740     main.obj
 0002:00017758       ??_R4_Future_error_category2@std@@6B@ 00000001400b5758     main.obj
 0002:00017780       ??_R2?$basic_ofstream@DU?$char_traits@D@std@@@std@@8 00000001400b5780     main.obj
 0002:000177b0       ??_R3?$wstring_convert@V?$codecvt_utf8@_W$0BAPPPP@$0A@@std@@_WV?$allocator@_W@2@V?$allocator@D@2@@std@@8 00000001400b57b0     main.obj
 0002:000177c8       ??_R1BI@?0A@EA@NotCopyable@CryptoPP@@8 00000001400b57c8     main.obj
 0002:000177f0       ??_R3invalid_iterator@detail@nlohmann@@8 00000001400b57f0     main.obj
 0002:00017808       ??_R1A@?0A@EA@_DefaultPPLTaskScheduler@details@Concurrency@@8 00000001400b5808     main.obj
 0002:00017830       ??_R4system_error@std@@6B@ 00000001400b5830     main.obj
 0002:00017858       ??_R3?$VariableKeyLength@$0BA@$0BA@$0CA@$07$03$0A@@CryptoPP@@8 00000001400b5858     main.obj
 0002:00017870       ??_R2Waitable@CryptoPP@@8  00000001400b5870     main.obj
 0002:00017880       ??_R1A@?0A@EA@_Generic_error_category@std@@8 00000001400b5880     main.obj
 0002:000178a8       ??_R2?$AutoSignaling@V?$InputRejecting@VBufferedTransformation@CryptoPP@@@CryptoPP@@@CryptoPP@@8 00000001400b58a8     main.obj
 0002:000178e0       ??_R2RandomPool@CryptoPP@@8 00000001400b58e0     main.obj
 0002:00017910       ??_R3?$_Func_base@X$$V@std@@8 00000001400b5910     main.obj
 0002:00017928       ??_R1A@?0A@EA@?$basic_streambuf@DU?$char_traits@D@std@@@std@@8 00000001400b5928     main.obj
 0002:00017950       ??_R1A@?0A@EA@_Facet_base@std@@8 00000001400b5950     main.obj
 0002:00017978       ??_R4Grouper@CryptoPP@@6BAlgorithm@1@@ 00000001400b5978     main.obj
 0002:000179a0       ??_R1A@?0A@EA@bad_alloc@std@@8 00000001400b59a0     main.obj
 0002:000179c8       ??_R1A@?0A@EA@?$AutoSignaling@V?$InputRejecting@VBufferedTransformation@CryptoPP@@@CryptoPP@@@CryptoPP@@8 00000001400b59c8     main.obj
 0002:000179f0       ??_R4BaseN_Decoder@CryptoPP@@6BWaitable@1@@ 00000001400b59f0     main.obj
 0002:00017a18       ??_R10?0A@EA@?$VariableKeyLength@$0BA@$0BA@$0CA@$07$03$0A@@CryptoPP@@8 00000001400b5a18     main.obj
 0002:00017a40       ??_R3CBC_Decryption@CryptoPP@@8 00000001400b5a40     main.obj
 0002:00017a58       ??_R3FilterWithBufferedInput@CryptoPP@@8 00000001400b5a58     main.obj
 0002:00017a70       ??_R2?$_Ref_count_obj2@V?$output_string_adapter@DV?$basic_string@DU?$char_traits@D@std@@V?$allocator@D@2@@std@@@detail@nlohmann@@@std@@8 00000001400b5a70     main.obj
 0002:00017a88       ??_R1A@?0A@EA@CannotFlush@CryptoPP@@8 00000001400b5a88     main.obj
 0002:00017ab0       ??_R2?$basic_istream@DU?$char_traits@D@std@@@std@@8 00000001400b5ab0     main.obj
 0002:00017ad8       ??_R1A@?0A@EA@parse_error@detail@nlohmann@@8 00000001400b5ad8     main.obj
 0002:00017b00       ??_R1A@?0A@EA@?$CipherModeFinalTemplate_CipherHolder@V?$BlockCipherFinal@$00VDec@Rijndael@CryptoPP@@@CryptoPP@@VCBC_Decryption@2@@CryptoPP@@8 00000001400b5b00     main.obj
 0002:00017b28       ??_R2?$InputRejecting@VBufferedTransformation@CryptoPP@@@CryptoPP@@8 00000001400b5b28     main.obj
 0002:00017b58       ??_R1A@?0A@EA@?$_CancellationTokenCallback@V<lambda_be3e5d9dce35d2c8dbfa8485373731d5>@@@details@Concurrency@@8 00000001400b5b58     main.obj
 0002:00017b80       ??_R3_System_error@std@@8  00000001400b5b80     main.obj
 0002:00017b98       ??_R1A@?0A@EA@_RefCounter@details@Concurrency@@8 00000001400b5b98     main.obj
 0002:00017bc0       ??_R1A@?0A@EA@Base64Decoder@CryptoPP@@8 00000001400b5bc0     main.obj
 0002:00017be8       ??_R3?$AutoSignaling@V?$InputRejecting@VBufferedTransformation@CryptoPP@@@CryptoPP@@@CryptoPP@@8 00000001400b5be8     main.obj
 0002:00017c00       ??_R4?$BlockCipherFinal@$00VDec@Rijndael@CryptoPP@@@CryptoPP@@6BSimpleKeyingInterface@1@@ 00000001400b5c00     main.obj
 0002:00017c28       ??_R4?$_Func_impl_no_alloc@V<lambda_763529b0c7473cbc215a52d189ac9b18>@@X$$V@std@@6B@ 00000001400b5c28     main.obj
 0002:00017c50       ??_R4?$_Ref_count_obj2@V?$output_string_adapter@DV?$basic_string@DU?$char_traits@D@std@@V?$allocator@D@2@@std@@@detail@nlohmann@@@std@@6B@ 00000001400b5c50     main.obj
 0002:00017c78       ??_R3?$_Func_impl_no_alloc@V<lambda_052e919cc0e5399df76dff3972c0cac1>@@E$$V@std@@8 00000001400b5c78     main.obj
 0002:00017c90       ??_R2?$ObjectHolder@V?$BlockCipherFinal@$00VDec@Rijndael@CryptoPP@@@CryptoPP@@@CryptoPP@@8 00000001400b5c90     main.obj
 0002:00017ca0       ??_R3?$Bufferless@VFilter@CryptoPP@@@CryptoPP@@8 00000001400b5ca0     main.obj
 0002:00017cb8       ??_R4Base64Encoder@CryptoPP@@6BWaitable@1@@ 00000001400b5cb8     main.obj
 0002:00017ce0       ??_R4_Task_impl_base@details@Concurrency@@6B@ 00000001400b5ce0     main.obj
 0002:00017d08       ??_R2?$_Ref_count_obj2@U?$_Task_impl@E@details@Concurrency@@@std@@8 00000001400b5d08     main.obj
 0002:00017d20       ??_R17?0A@EA@Algorithm@CryptoPP@@8 00000001400b5d20     main.obj
 0002:00017d48       ??_R2input_buffer_adapter@detail@nlohmann@@8 00000001400b5d48     main.obj
 0002:00017d60       ??_R17?0A@EA@_Crt_new_delete@std@@8 00000001400b5d60     main.obj
 0002:00017d88       ??_R2AutoSeededRandomPool@CryptoPP@@8 00000001400b5d88     main.obj
 0002:00017dc0       ??_R2Base@Rijndael@CryptoPP@@8 00000001400b5dc0     main.obj
 0002:00017e30       ??_R2?$output_adapter_protocol@D@detail@nlohmann@@8 00000001400b5e30     main.obj
 0002:00017e40       ??_R2StringStore@CryptoPP@@8 00000001400b5e40     main.obj
 0002:00017e88       ??_R3?$Unflushable@VFilter@CryptoPP@@@CryptoPP@@8 00000001400b5e88     main.obj
 0002:00017ea0       ??_R1A@?0A@EA@BaseN_Encoder@CryptoPP@@8 00000001400b5ea0     main.obj
 0002:00017ec8       ??_R3?$_Func_impl_no_alloc@V<lambda_f25c37099038263181b5186a3fa41b37>@@X$$V@std@@8 00000001400b5ec8     main.obj
 0002:00017ee0       ??_R1A@?0A@EA@_Future_error_category2@std@@8 00000001400b5ee0     main.obj
 0002:00017f08       ??_R4?$_Packaged_state@$$A6AXXZ@std@@6B@ 00000001400b5f08     main.obj
 0002:00017f30       ??_R2type_error@detail@nlohmann@@8 00000001400b5f30     main.obj
 0002:00017f50       ??_R2Filter@CryptoPP@@8    00000001400b5f50     main.obj
 0002:00017f88       ??_R3InputRejected@?$InputRejecting@VFilter@CryptoPP@@@CryptoPP@@8 00000001400b5f88     main.obj
 0002:00017fa0       ??_R3Base@Rijndael@CryptoPP@@8 00000001400b5fa0     main.obj
 0002:00017fb8       ??_R1A@?0A@EA@BlockOrientedCipherModeBase@CryptoPP@@8 00000001400b5fb8     main.obj
 0002:00017fe0       ??_R2SimpleProxyFilter@CryptoPP@@8 00000001400b5fe0     main.obj
 0002:00018030       ??_R2_System_error_category@std@@8 00000001400b6030     main.obj
 0002:00018048       ??_R1A@?0A@EA@_CancellationTokenRegistration@details@Concurrency@@8 00000001400b6048     main.obj
